Script started on Sat Nov  9 00:45:56 2019
[1m[7m%[27m[1m[0m                                                                                ]7;file://Ruis-MacBook-Pro-2.local/Users/ruiribeiro/Desktop/z80/debugz80[0m[27m[24m[Jruiribeiro@Ruis-MacBook-Pro-2 debugz80 % [K[?2004h../debugz80[1m [0m[0m [?2004l
- U 5DC0
5DC0 CD 00 60       CALL	6000
5DC3 C3 D7 F7       JP	F7D7
5DC6 2F             CPL
5DC7 62             LD	H,D
5DC8 14             INC	D
5DC9 04             INC	B
5DCA 40             LD	B,B
5DCB 40             LD	B,B
5DCC 40             LD	B,B
5DCD 40             LD	B,B
5DCE 40             LD	B,B
5DCF 40             LD	B,B
5DD0 40             LD	B,B
5DD1 40             LD	B,B
5DD2 40             LD	B,B
5DD3 53             LD	D,E
5DD4 54             LD	D,H
5DD5 41             LD	B,C
5DD6 42             LD	B,D
5DD7 4C             LD	C,H
- U
5DD8 45             LD	B,L
5DD9 53             LD	D,E
5DDA 40             LD	B,B
5DDB 40             LD	B,B
5DDC 40             LD	B,B
5DDD 40             LD	B,B
5DDE 40             LD	B,B
5DDF 40             LD	B,B
5DE0 40             LD	B,B
5DE1 40             LD	B,B
5DE2 63             LD	H,E
5DE3 00             NOP
5DE4 00             NOP
5DE5 00             NOP
5DE6 00             NOP
5DE7 00             NOP
5DE8 00             NOP
5DE9 00             NOP
5DEA 00             NOP
5DEB 00             NOP
- 
5DEC 00             NOP
5DED 00             NOP
5DEE 00             NOP
5DEF 00             NOP
5DF0 00             NOP
5DF1 00             NOP
5DF2 00             NOP
5DF3 00             NOP
5DF4 00             NOP
5DF5 00             NOP
5DF6 00             NOP
5DF7 00             NOP
5DF8 00             NOP
5DF9 00             NOP
5DFA 00             NOP
5DFB 00             NOP
5DFC 00             NOP
5DFD 00             NOP
5DFE 00             NOP
5DFF 00             NOP
- 
5E00 2F             CPL
5E01 90             SUB	B
5E02 4F             LD	C,A
5E03 90             SUB	B
5E04 6F             LD	L,A
5E05 90             SUB	B
5E06 8F             ADC	A,A
5E07 90             SUB	B
5E08 AF             XOR	A
5E09 90             SUB	B
5E0A CF             RST	08
5E0B 90             SUB	B
5E0C EF             RST	28
5E0D 90             SUB	B
5E0E 0F             RRCA
5E0F 91             SUB	C
5E10 2F             CPL
5E11 91             SUB	C
5E12 4F             LD	C,A
5E13 91             SUB	C
- 
5E14 6F             LD	L,A
5E15 91             SUB	C
5E16 8F             ADC	A,A
5E17 91             SUB	C
5E18 AF             XOR	A
5E19 91             SUB	C
5E1A CF             RST	08
5E1B 91             SUB	C
5E1C EF             RST	28
5E1D 91             SUB	C
5E1E 0F             RRCA
5E1F 92             SUB	D
5E20 2F             CPL
5E21 92             SUB	D
5E22 4F             LD	C,A
5E23 92             SUB	D
5E24 6F             LD	L,A
5E25 92             SUB	D
5E26 8F             ADC	A,A
5E27 92             SUB	D
- 
5E28 AF             XOR	A
5E29 92             SUB	D
5E2A CF             RST	08
5E2B 92             SUB	D
5E2C EF             RST	28
5E2D 92             SUB	D
5E2E 0F             RRCA
5E2F 93             SUB	E
5E30 2F             CPL
5E31 93             SUB	E
5E32 4F             LD	C,A
5E33 93             SUB	E
5E34 6F             LD	L,A
5E35 93             SUB	E
5E36 8F             ADC	A,A
5E37 93             SUB	E
5E38 AF             XOR	A
5E39 93             SUB	E
5E3A CF             RST	08
5E3B 93             SUB	E
- 
5E3C EF             RST	28
5E3D 93             SUB	E
5E3E 0F             RRCA
5E3F 94             SUB	H
5E40 2F             CPL
5E41 94             SUB	H
5E42 4F             LD	C,A
5E43 94             SUB	H
5E44 6F             LD	L,A
5E45 94             SUB	H
5E46 8F             ADC	A,A
5E47 94             SUB	H
5E48 AF             XOR	A
5E49 94             SUB	H
5E4A CF             RST	08
5E4B 94             SUB	H
5E4C EF             RST	28
5E4D 94             SUB	H
5E4E 0F             RRCA
5E4F 95             SUB	L
- 
5E50 0F             RRCA
5E51 9F             SBC	A,A
5E52 2F             CPL
5E53 9F             SBC	A,A
5E54 4F             LD	C,A
5E55 9F             SBC	A,A
5E56 6F             LD	L,A
5E57 9F             SBC	A,A
5E58 AF             XOR	A
5E59 95             SUB	L
5E5A CF             RST	08
5E5B 95             SUB	L
5E5C EF             RST	28
5E5D 95             SUB	L
5E5E 0F             RRCA
5E5F 96             SUB	(HL)
5E60 2F             CPL
5E61 96             SUB	(HL)
5E62 4F             LD	C,A
5E63 96             SUB	(HL)
- 
5E64 6F             LD	L,A
5E65 96             SUB	(HL)
5E66 8F             ADC	A,A
5E67 96             SUB	(HL)
5E68 8F             ADC	A,A
5E69 A0             AND	B
5E6A AF             XOR	A
5E6B A0             AND	B
5E6C CF             RST	08
5E6D A0             AND	B
5E6E EF             RST	28
5E6F A0             AND	B
5E70 0F             RRCA
5E71 A0             AND	B
5E72 2F             CPL
5E73 A0             AND	B
5E74 4F             LD	C,A
5E75 A0             AND	B
5E76 6F             LD	L,A
5E77 A0             AND	B
- 
5E78 EF             RST	28
5E79 A1             AND	C
5E7A 0F             RRCA
5E7B A2             AND	D
5E7C 2F             CPL
5E7D A2             AND	D
5E7E 4F             LD	C,A
5E7F A2             AND	D
5E80 6F             LD	L,A
5E81 A2             AND	D
5E82 8F             ADC	A,A
5E83 A2             AND	D
5E84 AF             XOR	A
5E85 A2             AND	D
5E86 CF             RST	08
5E87 A2             AND	D
5E88 2F             CPL
5E89 95             SUB	L
5E8A 4F             LD	C,A
5E8B 95             SUB	L
- 
5E8C 6F             LD	L,A
5E8D 95             SUB	L
5E8E 8F             ADC	A,A
5E8F 95             SUB	L
5E90 AF             XOR	A
5E91 97             SUB	A
5E92 CF             RST	08
5E93 97             SUB	A
5E94 EF             RST	28
5E95 97             SUB	A
5E96 0F             RRCA
5E97 98             SBC	A,B
5E98 AF             XOR	A
5E99 96             SUB	(HL)
5E9A CF             RST	08
5E9B 96             SUB	(HL)
5E9C EF             RST	28
5E9D 96             SUB	(HL)
5E9E 0F             RRCA
5E9F 97             SUB	A
- 
5EA0 2F             CPL
5EA1 97             SUB	A
5EA2 4F             LD	C,A
5EA3 97             SUB	A
5EA4 6F             LD	L,A
5EA5 97             SUB	A
5EA6 8F             ADC	A,A
5EA7 97             SUB	A
5EA8 AF             XOR	A
5EA9 9C             SBC	A,H
5EAA CF             RST	08
5EAB 9C             SBC	A,H
5EAC EF             RST	28
5EAD 9C             SBC	A,H
5EAE 0F             RRCA
5EAF 9D             SBC	A,L
5EB0 EF             RST	28
5EB1 9A             SBC	A,D
5EB2 0F             RRCA
5EB3 9B             SBC	A,E
- 
5EB4 2F             CPL
5EB5 9B             SBC	A,E
5EB6 4F             LD	C,A
5EB7 9B             SBC	A,E
5EB8 EF             RST	28
5EB9 9B             SBC	A,E
5EBA 0F             RRCA
5EBB 9C             SBC	A,H
5EBC 2F             CPL
5EBD 9C             SBC	A,H
5EBE 4F             LD	C,A
5EBF 9C             SBC	A,H
5EC0 8F             ADC	A,A
5EC1 9E             SBC	A,(HL)
5EC2 AF             XOR	A
5EC3 9E             SBC	A,(HL)
5EC4 CF             RST	08
5EC5 9E             SBC	A,(HL)
5EC6 EF             RST	28
5EC7 9E             SBC	A,(HL)
- 
5EC8 2F             CPL
5EC9 98             SBC	A,B
5ECA 4F             LD	C,A
5ECB 98             SBC	A,B
5ECC 6F             LD	L,A
5ECD 98             SBC	A,B
5ECE 8F             ADC	A,A
5ECF 98             SBC	A,B
5ED0 AF             XOR	A
5ED1 98             SBC	A,B
5ED2 CF             RST	08
5ED3 98             SBC	A,B
5ED4 EF             RST	28
5ED5 98             SBC	A,B
5ED6 CF             RST	08
5ED7 98             SBC	A,B
5ED8 0F             RRCA
5ED9 99             SBC	A,C
5EDA 2F             CPL
5EDB 99             SBC	A,C
- 
5EDC 4F             LD	C,A
5EDD 99             SBC	A,C
5EDE 6F             LD	L,A
5EDF 99             SBC	A,C
5EE0 8F             ADC	A,A
5EE1 99             SBC	A,C
5EE2 AF             XOR	A
5EE3 99             SBC	A,C
5EE4 CF             RST	08
5EE5 99             SBC	A,C
5EE6 EF             RST	28
5EE7 99             SBC	A,C
5EE8 0F             RRCA
5EE9 9A             SBC	A,D
5EEA 2F             CPL
5EEB 9A             SBC	A,D
5EEC 4F             LD	C,A
5EED 9A             SBC	A,D
5EEE 2F             CPL
5EEF 9A             SBC	A,D
- 
5EF0 6F             LD	L,A
5EF1 9A             SBC	A,D
5EF2 8F             ADC	A,A
5EF3 9A             SBC	A,D
5EF4 AF             XOR	A
5EF5 9A             SBC	A,D
5EF6 CF             RST	08
5EF7 9A             SBC	A,D
5EF8 6F             LD	L,A
5EF9 9B             SBC	A,E
5EFA 8F             ADC	A,A
5EFB 9B             SBC	A,E
5EFC AF             XOR	A
5EFD 9B             SBC	A,E
5EFE CF             RST	08
5EFF 9B             SBC	A,E
5F00 6F             LD	L,A
5F01 9C             SBC	A,H
5F02 6F             LD	L,A
5F03 9C             SBC	A,H
- 
5F04 8F             ADC	A,A
5F05 9C             SBC	A,H
5F06 8F             ADC	A,A
5F07 9C             SBC	A,H
5F08 2F             CPL
5F09 9D             SBC	A,L
5F0A 4F             LD	C,A
5F0B 9D             SBC	A,L
5F0C 6F             LD	L,A
5F0D 9D             SBC	A,L
5F0E 8F             ADC	A,A
5F0F 9D             SBC	A,L
5F10 AF             XOR	A
5F11 9D             SBC	A,L
5F12 CF             RST	08
5F13 9D             SBC	A,L
5F14 EF             RST	28
5F15 9D             SBC	A,L
5F16 0F             RRCA
5F17 9E             SBC	A,(HL)
- 
5F18 8F             ADC	A,A
5F19 9F             SBC	A,A
5F1A AF             XOR	A
5F1B 9F             SBC	A,A
5F1C CF             RST	08
5F1D 9F             SBC	A,A
5F1E EF             RST	28
5F1F 9F             SBC	A,A
5F20 2F             CPL
5F21 9E             SBC	A,(HL)
5F22 4F             LD	C,A
5F23 9E             SBC	A,(HL)
5F24 6F             LD	L,A
5F25 9E             SBC	A,(HL)
5F26 4F             LD	C,A
5F27 9E             SBC	A,(HL)
5F28 0F             RRCA
5F29 A1             AND	C
5F2A 2F             CPL
5F2B A1             AND	C
- 
5F2C 4F             LD	C,A
5F2D A1             AND	C
5F2E 6F             LD	L,A
5F2F A1             AND	C
5F30 8F             ADC	A,A
5F31 A1             AND	C
5F32 AF             XOR	A
5F33 A1             AND	C
5F34 CF             RST	08
5F35 A1             AND	C
5F36 FF             RST	38
5F37 FF             RST	38
5F38 FF             RST	38
5F39 FF             RST	38
5F3A FF             RST	38
5F3B FF             RST	38
5F3C FF             RST	38
5F3D FF             RST	38
5F3E FF             RST	38
5F3F FF             RST	38
- 
5F40 FF             RST	38
5F41 FF             RST	38
5F42 FF             RST	38
5F43 FF             RST	38
5F44 FF             RST	38
5F45 FF             RST	38
5F46 FF             RST	38
5F47 FF             RST	38
5F48 FF             RST	38
5F49 FF             RST	38
5F4A FF             RST	38
5F4B FF             RST	38
5F4C FF             RST	38
5F4D FF             RST	38
5F4E FF             RST	38
5F4F FF             RST	38
5F50 FF             RST	38
5F51 FF             RST	38
5F52 FF             RST	38
5F53 25             DEC	H
- 
5F54 FF             RST	38
5F55 FF             RST	38
5F56 FF             RST	38
5F57 FF             RST	38
5F58 09             ADD	HL,BC
5F59 08             EX	AF,AF'
5F5A FF             RST	38
5F5B FF             RST	38
5F5C FF             RST	38
5F5D FF             RST	38
5F5E FF             RST	38
5F5F 17             RLA
5F60 39             ADD	HL,SP
5F61 21 20 24       LD	HL,2420 ; LD	HL,DRW_STEPS
5F64 3C             INC	A
5F65 FF             RST	38
5F66 FF             RST	38
5F67 FF             RST	38
5F68 02             LD	(BC),A
5F69 04             INC	B
- 
5F6A 06 07          LD	B,07
5F6C FF             RST	38
5F6D FF             RST	38
5F6E FF             RST	38
5F6F 16 1B          LD	D,1B
5F71 1D             DEC	E
5F72 1F             RRA
5F73 23             INC	HL
5F74 FF             RST	38
5F75 FF             RST	38
5F76 0E 01          LD	C,01
5F78 00             NOP
5F79 03             INC	BC
5F7A 05             DEC	B
5F7B 0A             LD	A,(BC)
5F7C 0B             DEC	BC
5F7D 0C             INC	C
5F7E 14             INC	D
5F7F 15             DEC	D
5F80 1A             LD	A,(DE)
- 
5F81 1C             INC	E
5F82 1E 22          LD	E,22
5F84 26 52          LD	H,52
5F86 FF             RST	38
5F87 0F             RRCA
5F88 10 11          DJNZ	5F9B
5F8A 12             LD	(DE),A
5F8B 13             INC	DE
5F8C 0D             DEC	C
5F8D 18 19          JR	5FA8
5F8F 27             DAA
5F90 2D             DEC	L
5F91 2E 36          LD	L,36
5F93 37             SCF
5F94 4B             LD	C,E
5F95 FF             RST	38
5F96 38 35          JR 	C,5FCD
5F98 2A 2B 3A       LD	HL,(3A2B)
5F9B 3B             DEC 	SP
5F9C 41             LD	B,C
- 
5F9D 3D             DEC	A
5F9E 3E 28          LD	A,28
5FA0 2C             INC	L
5FA1 32 33 34       LD	(3433),A
5FA4 51             LD	D,C
5FA5 FF             RST	38
5FA6 FF             RST	38
5FA7 FF             RST	38
5FA8 FF             RST	38
5FA9 49             LD	C,C
5FAA 44             LD	B,H
5FAB 43             LD	B,E
5FAC 42             LD	B,D
5FAD 40             LD	B,B
5FAE 3F             CCF
5FAF 29             ADD	HL,HL
5FB0 2F             CPL
5FB1 30 31          JR	NC,5FE4
5FB3 4D             LD	C,L
5FB4 FF             RST	38
- 
5FB5 FF             RST	38
5FB6 FF             RST	38
5FB7 FF             RST	38
5FB8 FF             RST	38
5FB9 4A             LD	C,D
5FBA 46             LD	B,(HL)
5FBB 45             LD	B,L
5FBC 47             LD	B,A
5FBD 48             LD	C,B
5FBE 4C             LD	C,H
5FBF 4E             LD	C,(HL)
5FC0 4F             LD	C,A
5FC1 50             LD	D,B
5FC2 53             LD	D,E
5FC3 54             LD	D,H
5FC4 FF             RST	38
5FC5 FF             RST	38
5FC6 FF             RST	38
5FC7 FF             RST	38
5FC8 FF             RST	38
- 
5FC9 FF             RST	38
5FCA FF             RST	38
5FCB FF             RST	38
5FCC FF             RST	38
5FCD FF             RST	38
5FCE FF             RST	38
5FCF FF             RST	38
5FD0 FF             RST	38
5FD1 FF             RST	38
5FD2 FF             RST	38
5FD3 55             LD	D,L
5FD4 56             LD	D,(HL)
5FD5 57             LD	D,A
5FD6 FF             RST	38
5FD7 FF             RST	38
5FD8 FF             RST	38
5FD9 FF             RST	38
5FDA FF             RST	38
5FDB FF             RST	38
5FDC FF             RST	38
- 
5FDD FF             RST	38
5FDE FF             RST	38
5FDF FF             RST	38
5FE0 FF             RST	38
5FE1 FF             RST	38
5FE2 FF             RST	38
5FE3 FF             RST	38
5FE4 FF             RST	38
5FE5 FF             RST	38
5FE6 CD 8E 02       CALL	028E ; CALL	KEY_SCAN
5FE9 1C             INC	E
5FEA 28 FA          JR	Z,5FE6
5FEC C9             RET
5FED CD 8E 02       CALL	028E ; CALL	KEY_SCAN
5FF0 1C             INC	E
5FF1 20 FA          JR	NZ,5FED
5FF3 C9             RET
5FF4 00             NOP
5FF5 00             NOP
5FF6 60             LD	H,B
- 
5FF7 78             LD	A,B
5FF8 00             NOP
5FF9 00             NOP
5FFA 00             NOP
5FFB 00             NOP
5FFC 00             NOP
5FFD 00             NOP
5FFE 00             NOP
5FFF 00             NOP
6000 0D             DEC	C
6001 03             INC	BC
6002 03             INC	BC
6003 02             LD	(BC),A
6004 FF             RST	38
6005 28 02          JR	Z,6009
6007 30 58          JR	NC,6061
6009 E8             RET	PE
600A 46             LD	B,(HL)
600B 28 02          JR	Z,600F
600D 30 D8          JR	NC,5FE7
- 
600F E8             RET	PE
6010 46             LD	B,(HL)
6011 28 02          JR	Z,6015
6013 50             LD	D,B
6014 80             ADD	A,B
6015 E8             RET	PE
6016 46             LD	B,(HL)
6017 FF             RST	38
6018 FD 19          ADD	IY,DE
601A 13             INC	DE
601B 00             NOP
601C 20 FA          JR	NZ,6018
601E 11 04 1B       LD	DE,1B04
6021 04             INC	B
6022 02             LD	(BC),A
6023 FA 19 08       JP	M,0819 ; JP	M,LD_CONT_1
6026 05             DEC	B
6027 03             INC	BC
6028 1A             LD	A,(DE)
6029 FE 11          CP	11
- 
602B 0B             DEC	BC
602C 06 05          LD	B,05
602E FD 11 0F 06    LD	DE,060F
6032 05             DEC	B
6033 FE 11          CP	11
6035 0B             DEC	BC
6036 1D             DEC	E
6037 06 FA          LD	B,FA
6039 11 11 19       LD	DE,1911
603C 02             LD	(BC),A
603D 05             DEC	B
603E FD 1D          DEC	E
6040 0F             RRCA
6041 0F             RRCA
6042 04             INC	B
6043 FB             EI
6044 08             EX	AF,AF'
6045 07             RLCA
6046 07             RLCA
6047 FC 1E 10       CALL	M,101E ; CALL	M,ED_IGNORE
- 
604A 15             DEC	D
604B FB             EI
604C 13             INC	DE
604D 01 01 FF       LD	BC,FF01
6050 44             LD	B,H
6051 01 30 38       LD	BC,3830
6054 C8             RET	Z
6055 47             LD	B,A
6056 44             LD	B,H
6057 82             ADD	A,D
6058 88             ADC	A,B
6059 00             NOP
605A B8             CP	B
605B 05             DEC	B
605C FF             RST	38
605D FE 11          CP	11
605F 06 05          LD	B,05
6061 09             ADD	HL,BC
6062 FD 19          ADD	IY,DE
6064 13             INC	DE
- 
6065 00             NOP
6066 20 FA          JR	NZ,6062
6068 11 11 0F       LD	DE,0F11
606B 02             LD	(BC),A
606C 0A             LD	A,(BC)
606D FB             EI
606E 0C             INC	C
606F 14             INC	D
6070 05             DEC	B
6071 FD 11 0C 0F    LD	DE,0F0C ; LD	DE,COPY_L_2
6075 05             DEC	B
6076 FE 11          CP	11
6078 0C             INC	C
6079 16 03          LD	D,03
607B FD 04          INC	B
607D 0E 06          LD	C,06
607F 05             DEC	B
6080 FD 04          INC	B
6082 09             ADD	HL,BC
6083 06 05          LD	B,05
- 
6085 FF             RST	38
6086 50             LD	D,B
6087 81             ADD	A,C
6088 88             ADC	A,B
6089 00             NOP
608A 68             LD	L,B
608B 03             INC	BC
608C 7C             LD	A,H
608D 02             LD	(BC),A
608E 60             LD	H,B
608F 40             LD	B,B
6090 70             LD	(HL),B
6091 44             LD	B,H
6092 FF             RST	38
6093 FE 3C          CP	3C
6095 00             NOP
6096 00             NOP
6097 10 FA          DJNZ	6093
6099 39             ADD	HL,SP
609A 12             LD	(DE),A
- 
609B 00             NOP
609C 02             LD	(BC),A
609D 20 FA          JR	NZ,6099
609F 0A             LD	A,(BC)
60A0 0F             RRCA
60A1 13             INC	DE
60A2 03             INC	BC
60A3 02             LD	(BC),A
60A4 FD 3C          INC	A
60A6 00             NOP
60A7 01 1F FE       LD	BC,FE1F
60AA 3C             INC	A
60AB 01 1F 0E       LD	BC,0E1F
60AE FD 01 0E 19    LD	BC,190E
60B2 06 F9          LD	B,F9
60B4 0C             INC	C
60B5 1D             DEC	E
60B6 FD 01 0C 01    LD	BC,010C
60BA 0E FC          LD	C,FC
60BC 49             LD	C,C
- 
60BD 08             EX	AF,AF'
60BE 13             INC	DE
60BF FD 01 09 05    LD	BC,0509
60C3 03             INC	BC
60C4 FD 01 07 0C    LD	BC,0C07
60C8 05             DEC	B
60C9 FA 0A 06       JP	M,060A
60CC 11 04 02       LD	DE,0204
60CF FB             EI
60D0 00             NOP
60D1 17             RLA
60D2 09             ADD	HL,BC
60D3 FD 1D          DEC	E
60D5 09             ADD	HL,BC
60D6 13             INC	DE
60D7 06 FC          LD	B,FC
60D9 48             LD	C,B
60DA 01 15 F8       LD	BC,F815
60DD 30 0F          JR	NC,60EE
60DF 07             RLCA
- 
60E0 03             INC	BC
60E1 03             INC	BC
60E2 F8             RET	M
60E3 30 0F          JR	NC,60F4
60E5 0B             DEC	BC
60E6 03             INC	BC
60E7 03             INC	BC
60E8 FD 07          RLCA
60EA 07             RLCA
60EB 01 04 FB       LD	BC,FB04
60EE 00             NOP
60EF 01 07 FF       LD	BC,FF07
60F2 5C             LD	E,H
60F3 01 50 08       LD	BC,0850
60F6 68             LD	L,B
60F7 44             LD	B,H
60F8 88             ADC	A,B
60F9 01 B0 50       LD	BC,50B0
60FC 80             ADD	A,B
60FD 42             LD	B,D
- 
60FE FF             RST	38
60FF FE 11          CP	11
6101 00             NOP
6102 00             NOP
6103 14             INC	D
6104 FD 11 13 01    LD	DE,0113
6108 1F             RRA
6109 FA 11 00       JP	M,0011
610C 1E 13          LD	E,13
610E 02             LD	(BC),A
610F FB             EI
6110 0C             INC	C
6111 01 08 FB       LD	BC,FB08
6114 00             NOP
6115 01 08 FD       LD	BC,FD08
6118 11 08 01       LD	DE,0108
611B 02             LD	(BC),A
611C FD 07          RLCA
611E 08             EX	AF,AF'
611F 03             INC	BC
- 
6120 02             LD	(BC),A
6121 FE 11          CP	11
6123 0C             INC	C
6124 03             INC	BC
6125 07             RLCA
6126 FD 11 0C 04    LD	DE,040C
612A 05             DEC	B
612B FA 11 0A       JP	M,0A11 ; JP	M,CTLCHRTAB
612E 07             RLCA
612F 02             LD	(BC),A
6130 02             LD	(BC),A
6131 FB             EI
6132 10 04          DJNZ	6138
6134 03             INC	BC
6135 FB             EI
6136 13             INC	DE
6137 17             RLA
6138 01 FD 11       LD	BC,11FD
613B 10 06          DJNZ	6143
613D 0C             INC	C
- 
613E FE 11          CP	11
6140 0E 12          LD	C,12
6142 03             INC	BC
6143 FA 11 0C       JP	M,0C11
6146 1A             LD	A,(DE)
6147 02             LD	(BC),A
6148 04             INC	B
6149 FA 11 0E       JP	M,0E11
614C 17             RLA
614D 03             INC	BC
614E 07             RLCA
614F FA 11 11       JP	M,1111
6152 19             ADD	HL,DE
6153 02             LD	(BC),A
6154 05             DEC	B
6155 FD 07          RLCA
6157 09             ADD	HL,BC
6158 1C             INC	E
6159 02             LD	(BC),A
615A FD 07          RLCA
- 
615C 06 0D          LD	B,0D
615E 06 FD          LD	B,FD
6160 07             RLCA
6161 06 17          LD	B,17
6163 02             LD	(BC),A
6164 FE 11          CP	11
6166 00             NOP
6167 0C             INC	C
6168 07             RLCA
6169 FA 11 00       JP	M,0011
616C 03             INC	BC
616D 05             DEC	B
616E 09             ADD	HL,BC
616F FD 07          RLCA
6171 0C             INC	C
6172 09             ADD	HL,BC
6173 03             INC	BC
6174 FC 07 0E       CALL	M,0E07
6177 11 FC 00       LD	DE,00FC
617A 0A             LD	A,(BC)
- 
617B 00             NOP
617C FF             RST	38
617D 88             ADC	A,B
617E 82             ADD	A,D
617F A0             AND	B
6180 10 88          DJNZ	610A
6182 42             LD	B,D
6183 5C             LD	E,H
6184 01 20 68       LD	BC,6820
6187 88             ADC	A,B
6188 02             LD	(BC),A
6189 97             SUB	A
618A 78             LD	A,B
618B 38 96          JR 	C,6123
618D 52             LD	D,D
618E 00             NOP
618F FF             RST	38
6190 FE 11          CP	11
6192 00             NOP
6193 00             NOP
- 
6194 14             INC	D
6195 FD 11 13 03    LD	DE,0313
6199 0A             LD	A,(BC)
619A FD 1D          DEC	E
619C 13             INC	DE
619D 0D             DEC	C
619E 0E FA          LD	C,FA
61A0 11 11 1B       LD	DE,1B11
61A3 03             INC	BC
61A4 05             DEC	B
61A5 FD 1D          DEC	E
61A7 10 0A          DJNZ	61B3
61A9 03             INC	BC
61AA FD 1D          DEC	E
61AC 0D             DEC	C
61AD 01 04 FD       LD	BC,FD04
61B0 07             RLCA
61B1 0C             INC	C
61B2 09             ADD	HL,BC
61B3 03             INC	BC
- 
61B4 FD 07          RLCA
61B6 09             ADD	HL,BC
61B7 01 04 FC       LD	BC,FC04
61BA 00             NOP
61BB 07             RLCA
61BC 00             NOP
61BD FD 1D          DEC	E
61BF 06 09          LD	B,09
61C1 02             LD	(BC),A
61C2 FD 1D          DEC	E
61C4 05             DEC	B
61C5 01 04 FB       LD	BC,FB04
61C8 00             NOP
61C9 01 05 FE       LD	BC,FE05
61CC 04             INC	B
61CD 00             NOP
61CE 03             INC	BC
61CF 03             INC	BC
61D0 FD 04          INC	B
61D2 00             NOP
- 
61D3 04             INC	B
61D4 09             ADD	HL,BC
61D5 FE 04          CP	04
61D7 01 0C 05       LD	BC,050C
61DA FE 04          CP	04
61DC 09             ADD	HL,BC
61DD 0C             INC	C
61DE 04             INC	B
61DF FD 19          ADD	IY,DE
61E1 00             NOP
61E2 0D             DEC	C
61E3 02             LD	(BC),A
61E4 FD 19          ADD	IY,DE
61E6 01 0D 04       LD	BC,040D
61E9 FD 19          ADD	IY,DE
61EB 02             LD	(BC),A
61EC 0D             DEC	C
61ED 06 FD          LD	B,FD
61EF 19             ADD	HL,DE
61F0 03             INC	BC
- 
61F1 0D             DEC	C
61F2 08             EX	AF,AF'
61F3 FD 19          ADD	IY,DE
61F5 04             INC	B
61F6 0D             DEC	C
61F7 0A             LD	A,(BC)
61F8 FD 19          ADD	IY,DE
61FA 05             DEC	B
61FB 17             RLA
61FC 02             LD	(BC),A
61FD FD 19          ADD	IY,DE
61FF 06 17          LD	B,17
6201 04             INC	B
6202 FD 19          ADD	IY,DE
6204 07             RLCA
6205 17             RLA
6206 06 FD          LD	B,FD
6208 19             ADD	HL,DE
6209 08             EX	AF,AF'
620A 17             RLA
- 
620B 08             EX	AF,AF'
620C FA 19 09       JP	M,0919
620F 0D             DEC	C
6210 04             INC	B
6211 13             INC	DE
6212 FB             EI
6213 13             INC	DE
6214 01 01 FC       LD	BC,FC01
6217 48             LD	C,B
6218 0D             DEC	C
6219 14             INC	D
621A FF             RST	38
621B 7C             LD	A,H
621C 02             LD	(BC),A
621D 30 08          JR	NC,6227
621F 70             LD	(HL),B
6220 05             DEC	B
6221 2C             INC	L
6222 82             ADD	A,D
6223 88             ADC	A,B
- 
6224 08             EX	AF,AF'
6225 C8             RET	Z
6226 03             INC	BC
6227 96             SUB	(HL)
6228 3A 00 97       LD	A,(9700)
622B 40             LD	B,B
622C 90             SUB	B
622D FF             RST	38
622E FE 11          CP	11
6230 07             RLCA
6231 00             NOP
6232 0D             DEC	C
6233 FC 00 11       CALL	M,1100
6236 00             NOP
6237 FB             EI
6238 13             INC	DE
6239 01 01 FD       LD	BC,FD01
623C 04             INC	B
623D 13             INC	DE
623E 03             INC	BC
- 
623F 0A             LD	A,(BC)
6240 FE 04          CP	04
6242 07             RLCA
6243 0C             INC	C
6244 0C             INC	C
6245 FD 22 10 0A    LD	(0A10),IY
6249 02             LD	(BC),A
624A FD 22 0C 0A    LD	(0A0C),IY
624E 02             LD	(BC),A
624F FD 22 0F 03    LD	(030F),IY
6253 03             INC	BC
6254 FD 22 0B 01    LD	(010B),IY
6258 05             DEC	B
6259 FD 19          ADD	IY,DE
625B 06 00          LD	B,00
625D 0D             DEC	C
625E FD 19          ADD	IY,DE
6260 05             DEC	B
6261 01 0B FD       LD	BC,FD0B
6264 19             ADD	HL,DE
- 
6265 04             INC	B
6266 02             LD	(BC),A
6267 09             ADD	HL,BC
6268 FD 19          ADD	IY,DE
626A 03             INC	BC
626B 03             INC	BC
626C 07             RLCA
626D FD 19          ADD	IY,DE
626F 02             LD	(BC),A
6270 04             INC	B
6271 05             DEC	B
6272 FD 19          ADD	IY,DE
6274 01 05 03       LD	BC,0305
6277 FC 19 00       CALL	M,0019
627A 06 FF          LD	B,FF
627C 78             LD	A,B
627D 81             ADD	A,C
627E 38 38          JR 	C,62B8
6280 88             ADC	A,B
6281 43             LD	B,E
- 
6282 96             SUB	(HL)
6283 8A             ADC	A,D
6284 00             NOP
6285 FF             RST	38
6286 FE 39          CP	39
6288 00             NOP
6289 00             NOP
628A 0F             RRCA
628B FD 0D          DEC	C
628D 13             INC	DE
628E 00             NOP
628F 20 FD          JR	NZ,628E
6291 0D             DEC	C
6292 12             LD	(DE),A
6293 1C             INC	E
6294 04             INC	B
6295 FD 0D          DEC	C
6297 11 1E 02       LD	DE,021E
629A FD 51          LD	D,C
629C 12             LD	(DE),A
- 
629D 00             NOP
629E 1C             INC	E
629F FD 51          LD	D,C
62A1 11 1C 02       LD	DE,021C
62A4 FD 51          LD	D,C
62A6 10 1E          DJNZ	62C6
62A8 02             LD	(BC),A
62A9 F8             RET	M
62AA 9C             SBC	A,H
62AB 0D             DEC	C
62AC 11 02 04       LD	DE,0402
62AF F8             RET	M
62B0 8E             ADC	A,(HL)
62B1 0F             RRCA
62B2 12             LD	(DE),A
62B3 01 02 F8       LD	BC,F802
62B6 8E             ADC	A,(HL)
62B7 10 12          DJNZ	62CB
62B9 01 02 F8       LD	BC,F802
62BC 8E             ADC	A,(HL)
- 
62BD 11 12 01       LD	DE,0112
62C0 02             LD	(BC),A
62C1 FF             RST	38
62C2 94             SUB	H
62C3 02             LD	(BC),A
62C4 C0             RET	NZ
62C5 E0             RET	PO
62C6 06 94          LD	B,94
62C8 03             INC	BC
62C9 F0             RET	P
62CA A8             XOR	B
62CB 44             LD	B,H
62CC 94             SUB	H
62CD 04             INC	B
62CE D0             RET	NC
62CF 68             LD	L,B
62D0 43             LD	B,E
62D1 94             SUB	H
62D2 03             INC	BC
62D3 E0             RET	PO
- 
62D4 28 42          JR	Z,6318
62D6 FF             RST	38
62D7 FD 0D          DEC	C
62D9 00             NOP
62DA 00             NOP
62DB 20 FD          JR	NZ,62DA
62DD 0D             DEC	C
62DE 13             INC	DE
62DF 00             NOP
62E0 07             RLCA
62E1 FA 0D 0F       JP	M,0F0D
62E4 07             RLCA
62E5 05             DEC	B
62E6 02             LD	(BC),A
62E7 FA 0D 06       JP	M,060D
62EA 00             NOP
62EB 06 02          LD	B,02
62ED FA 0D 07       JP	M,070D
62F0 02             LD	(BC),A
62F1 06 02          LD	B,02
- 
62F3 FA 0D 08       JP	M,080D
62F6 04             INC	B
62F7 04             INC	B
62F8 02             LD	(BC),A
62F9 FA 0D 08       JP	M,080D
62FC 06 06          LD	B,06
62FE 02             LD	(BC),A
62FF FA 0D 08       JP	M,080D
6302 0F             RRCA
6303 03             INC	BC
6304 02             LD	(BC),A
6305 FA 0D 07       JP	M,070D
6308 11 05 02       LD	DE,0205 ; LD	DE,MAIN_KEYS
630B FA 0D 06       JP	M,060D
630E 13             INC	DE
630F 08             EX	AF,AF'
6310 02             LD	(BC),A
6311 FA 0D 05       JP	M,050D
6314 15             DEC	D
6315 0A             LD	A,(BC)
- 
6316 02             LD	(BC),A
6317 FA 0D 05       JP	M,050D
631A 17             RLA
631B 0D             DEC	C
631C 03             INC	BC
631D FA 20 11       JP	M,1120
6320 09             ADD	HL,BC
6321 03             INC	BC
6322 10 FA          DJNZ	631E
6324 0D             DEC	C
6325 11 19 03       LD	DE,0319
6328 07             RLCA
6329 FA 0D 08       JP	M,080D
632C 1C             INC	E
632D 03             INC	BC
632E 04             INC	B
632F FB             EI
6330 13             INC	DE
6331 04             INC	B
6332 01 FB 08       LD	BC,08FB
- 
6335 1A             LD	A,(DE)
6336 09             ADD	HL,BC
6337 FF             RST	38
6338 8C             ADC	A,H
6339 01 48 20       LD	BC,2048 ; LD	BC,PR_ST_END
633C 58             LD	E,B
633D 44             LD	B,H
633E 8C             ADC	A,H
633F 81             ADD	A,C
6340 60             LD	H,B
6341 20 58          JR	NZ,639B
6343 42             LD	B,D
6344 97             SUB	A
6345 20 B8          JR	NZ,62FF
6347 FF             RST	38
6348 FD 0D          DEC	C
634A 00             NOP
634B 00             NOP
634C 20 FD          JR	NZ,634B
634E 0D             DEC	C
- 
634F 00             NOP
6350 01 03 FA       LD	BC,FA03
6353 0D             DEC	C
6354 00             NOP
6355 06 04          LD	B,04
6357 03             INC	BC
6358 FE 0D          CP	0D
635A 00             NOP
635B 19             ADD	HL,DE
635C 05             DEC	B
635D FE 0D          CP	0D
635F 01 1F 0E       LD	BC,0E1F
6362 FA 0D 09       JP	M,090D
6365 00             NOP
6366 0B             DEC	BC
6367 05             DEC	B
6368 FD 00          NOP
636A 0B             DEC	BC
636B 00             NOP
636C 05             DEC	B
- 
636D FD 0D          DEC	C
636F 13             INC	DE
6370 07             RLCA
6371 19             ADD	HL,DE
6372 FC 49 12       CALL	M,1249
6375 08             EX	AF,AF'
6376 FA 20 00       JP	M,0020 ; JP	M,NEXT_CHAR
6379 09             ADD	HL,BC
637A 04             INC	B
637B 10 FD          DJNZ	637A
637D 3A 04 1A       LD	A,(1A04)
6380 02             LD	(BC),A
6381 FD 3A 06 1D    LD	A,(1D06)
6385 02             LD	(BC),A
6386 FD 3A 08 19    LD	A,(1908)
638A 02             LD	(BC),A
638B FD 3A 0A 1C    LD	A,(1C0A)
638F 03             INC	BC
6390 FD 3A 0C 17    LD	A,(170C)
6394 02             LD	(BC),A
- 
6395 FA 0D 0C       JP	M,0C0D
6398 11 04 02       LD	DE,0204
639B FD 3A 0D 0B    LD	A,(0B0D)
639F 04             INC	B
63A0 FD 3A 0C 05    LD	A,(050C)
63A4 02             LD	(BC),A
63A5 FB             EI
63A6 00             NOP
63A7 04             INC	B
63A8 04             INC	B
63A9 FB             EI
63AA 04             INC	B
63AB 01 05 FB       LD	BC,FB05
63AE 0D             DEC	C
63AF 0F             RRCA
63B0 06 FB          LD	B,FB
63B2 13             INC	DE
63B3 05             DEC	B
63B4 01 FA 23       LD	BC,23FA
63B7 0D             DEC	C
- 
63B8 01 06 03       LD	BC,0306
63BB FD 0D          DEC	C
63BD 04             INC	B
63BE 03             INC	BC
63BF 17             RLA
63C0 FE 0D          CP	0D
63C2 04             INC	B
63C3 00             NOP
63C4 05             DEC	B
63C5 FF             RST	38
63C6 8C             ADC	A,H
63C7 01 40 38       LD	BC,3840
63CA 60             LD	H,B
63CB 44             LD	B,H
63CC 78             LD	A,B
63CD 81             ADD	A,C
63CE A0             AND	B
63CF 40             LD	B,B
63D0 70             LD	(HL),B
63D1 03             INC	BC
- 
63D2 34             INC	(HL)
63D3 02             LD	(BC),A
63D4 88             ADC	A,B
63D5 88             ADC	A,B
63D6 F0             RET	P
63D7 42             LD	B,D
63D8 54             LD	D,H
63D9 02             LD	(BC),A
63DA 78             LD	A,B
63DB 28 68          JR	Z,6445
63DD 42             LD	B,D
63DE 97             SUB	A
63DF 58             LD	E,B
63E0 88             ADC	A,B
63E1 96             SUB	(HL)
63E2 58             LD	E,B
63E3 00             NOP
63E4 98             SBC	A,B
63E5 08             EX	AF,AF'
63E6 E8             RET	PE
- 
63E7 20 FF          JR	NZ,63E8
63E9 FD 0D          DEC	C
63EB 00             NOP
63EC 07             RLCA
63ED 19             ADD	HL,DE
63EE FA 0D 00       JP	M,000D
63F1 00             NOP
63F2 04             INC	B
63F3 05             DEC	B
63F4 FE 0D          CP	0D
63F6 04             INC	B
63F7 00             NOP
63F8 0C             INC	C
63F9 FB             EI
63FA 00             NOP
63FB 05             DEC	B
63FC 07             RLCA
63FD FA 13 07       JP	M,0713
6400 02             LD	(BC),A
6401 03             INC	BC
- 
6402 08             EX	AF,AF'
6403 FA 13 10       JP	M,1013
6406 00             NOP
6407 04             INC	B
6408 05             DEC	B
6409 FA 13 12       JP	M,1213
640C 05             DEC	B
640D 02             LD	(BC),A
640E 08             EX	AF,AF'
640F FA 13 12       JP	M,1213
6412 0F             RRCA
6413 02             LD	(BC),A
6414 11 FD 20       LD	DE,20FD
6417 13             INC	DE
6418 0D             DEC	C
6419 02             LD	(BC),A
641A FC 00 0B       CALL	M,0B00
641D 00             NOP
641E FD 0D          DEC	C
6420 01 0E 04       LD	BC,040E
- 
6423 FA 0D 07       JP	M,070D
6426 0E 02          LD	C,02
6428 04             INC	B
6429 FA 13 07       JP	M,0713
642C 16 03          LD	D,03
642E 03             INC	BC
642F FA 0D 01       JP	M,010D
6432 16 03          LD	D,03
6434 03             INC	BC
6435 FD 50          LD	D,B
6437 03             INC	BC
6438 1A             LD	A,(DE)
6439 02             LD	(BC),A
643A FD 50          LD	D,B
643C 06 1D          LD	B,1D
643E 02             LD	(BC),A
643F FD 50          LD	D,B
6441 0E 0A          LD	C,0A
6443 11 FE 0D       LD	DE,0DFE ; LD	DE,CL_SC_ALL
6446 01 1F 09       LD	BC,091F
- 
6449 FA 0D 0A       JP	M,0A0D
644C 1D             DEC	E
644D 05             DEC	B
644E 03             INC	BC
644F FC 1E 0F       CALL	M,0F1E ; CALL	M,COPY_L_5
6452 1B             DEC	DE
6453 FC 49 11       CALL	M,1149
6456 17             RLA
6457 FC 49 11       CALL	M,1149
645A 12             LD	(DE),A
645B FF             RST	38
645C 6C             LD	L,H
645D 05             DEC	B
645E 58             LD	E,B
645F 08             EX	AF,AF'
6460 50             LD	D,B
6461 45             LD	B,L
6462 34             INC	(HL)
6463 82             ADD	A,D
6464 60             LD	H,B
- 
6465 50             LD	D,B
6466 C8             RET	Z
6467 42             LD	B,D
6468 6C             LD	L,H
6469 01 98 08       LD	BC,0898
646C 50             LD	D,B
646D 05             DEC	B
646E 96             SUB	(HL)
646F 58             LD	E,B
6470 00             NOP
6471 97             SUB	A
6472 30 78          JR	NC,64EC
6474 95             SUB	L
6475 03             INC	BC
6476 04             INC	B
6477 17             RLA
6478 99             SBC	A,C
6479 D8             RET	C
647A 30 70          JR	NC,64EC
647C FF             RST	38
- 
647D FD 0D          DEC	C
647F 00             NOP
6480 00             NOP
6481 20 FE          JR	NZ,6481
6483 0D             DEC	C
6484 01 1F 0C       LD	BC,0C1F
6487 FD 0D          DEC	C
6489 01 00 04       LD	BC,0400
648C FA 0D 03       JP	M,030D
648F 00             NOP
6490 03             INC	BC
6491 06 FD          LD	B,FD
6493 50             LD	D,B
6494 04             INC	B
6495 0A             LD	A,(BC)
6496 07             RLCA
6497 FD 50          LD	D,B
6499 04             INC	B
649A 13             INC	DE
649B 07             RLCA
- 
649C FB             EI
649D 00             NOP
649E 1D             DEC	E
649F 04             INC	B
64A0 FA 0D 04       JP	M,040D
64A3 1C             INC	E
64A4 04             INC	B
64A5 03             INC	BC
64A6 FA 0D 06       JP	M,060D
64A9 11 02 02       LD	DE,0202
64AC FD 0D          DEC	C
64AE 0B             DEC	BC
64AF 00             NOP
64B0 08             EX	AF,AF'
64B1 FE 0D          CP	0D
64B3 0C             INC	C
64B4 00             NOP
64B5 04             INC	B
64B6 FA 0D 10       JP	M,100D
64B9 00             NOP
- 
64BA 04             INC	B
64BB 05             DEC	B
64BC FD 20 13       JR	NZ,64D2
64BF 04             INC	B
64C0 1C             INC	E
64C1 FD 0D          DEC	C
64C3 10 08          DJNZ	64CD
64C5 0D             DEC	C
64C6 FD 0D          DEC	C
64C8 10 19          DJNZ	64E3
64CA 07             RLCA
64CB FD 50          LD	D,B
64CD 0B             DEC	BC
64CE 0A             LD	A,(BC)
64CF 13             INC	DE
64D0 FE 0D          CP	0D
64D2 08             EX	AF,AF'
64D3 1F             RRA
64D4 05             DEC	B
64D5 FB             EI
- 
64D6 0B             DEC	BC
64D7 1D             DEC	E
64D8 05             DEC	B
64D9 FC 1E 05       CALL	M,051E
64DC 0F             RRCA
64DD FC 1E 05       CALL	M,051E
64E0 14             INC	D
64E1 FF             RST	38
64E2 50             LD	D,B
64E3 82             ADD	A,D
64E4 48             LD	C,B
64E5 50             LD	D,B
64E6 E8             RET	PE
64E7 46             LD	B,(HL)
64E8 50             LD	D,B
64E9 82             ADD	A,D
64EA 70             LD	(HL),B
64EB 40             LD	B,B
64EC 98             SBC	A,B
64ED 42             LD	B,D
- 
64EE 98             SBC	A,B
64EF 30 18          JR	NC,6509
64F1 7C             LD	A,H
64F2 99             SBC	A,C
64F3 40             LD	B,B
64F4 20 58          JR	NZ,654E
64F6 96             SUB	(HL)
64F7 10 00          DJNZ	64F9
64F9 FF             RST	38
64FA FD 20 13       JR	NZ,6510
64FD 00             NOP
64FE 20 FD          JR	NZ,64FD
6500 0D             DEC	C
6501 00             NOP
6502 00             NOP
6503 20 FE          JR	NZ,6503
6505 0D             DEC	C
6506 01 00 0C       LD	BC,0C00
6509 FE 0D          CP	0D
650B 01 06 02       LD	BC,0206
- 
650E FD 0D          DEC	C
6510 10 00          DJNZ	6512
6512 03             INC	BC
6513 FA 0D 06       JP	M,060D
6516 01 02 07       LD	BC,0702
6519 FA 0D 06       JP	M,060D
651C 0B             DEC	BC
651D 02             LD	(BC),A
651E 0E FD          LD	C,FD
6520 50             LD	D,B
6521 06 19          LD	B,19
6523 03             INC	BC
6524 FE 0D          CP	0D
6526 07             RLCA
6527 1F             RRA
6528 0A             LD	A,(BC)
6529 FC 07 07       CALL	M,0707
652C 1E FA          LD	E,FA
652E 0D             DEC	C
652F 0F             RRCA
- 
6530 05             DEC	B
6531 02             LD	(BC),A
6532 02             LD	(BC),A
6533 FA 0D 0F       JP	M,0F0D
6536 15             DEC	D
6537 02             LD	(BC),A
6538 05             DEC	B
6539 FF             RST	38
653A 58             LD	E,B
653B 01 20 58       LD	BC,5820
653E D0             RET	NC
653F 42             LD	B,D
6540 99             SBC	A,C
6541 E0             RET	PO
6542 30 78          JR	NC,65BC
6544 95             SUB	L
6545 03             INC	BC
6546 03             INC	BC
6547 06 9A          LD	B,9A
6549 3E 70          LD	A,70
- 
654B FF             RST	38
654C FD 0D          DEC	C
654E 13             INC	DE
654F 00             NOP
6550 20 FE          JR	NZ,6550
6552 0D             DEC	C
6553 00             NOP
6554 1F             RRA
6555 13             INC	DE
6556 FD 0D          DEC	C
6558 00             NOP
6559 10 0F          DJNZ	656A
655B FE 0D          CP	0D
655D 09             ADD	HL,BC
655E 00             NOP
655F 06 FA          LD	B,FA
6561 0D             DEC	C
6562 00             NOP
6563 00             NOP
6564 07             RLCA
- 
6565 02             LD	(BC),A
6566 FE 0D          CP	0D
6568 00             NOP
6569 04             INC	B
656A 04             INC	B
656B FB             EI
656C 00             NOP
656D 02             LD	(BC),A
656E 07             RLCA
656F FA 0D 07       JP	M,070D
6572 00             NOP
6573 02             LD	(BC),A
6574 08             EX	AF,AF'
6575 FD 50          LD	D,B
6577 08             EX	AF,AF'
6578 0C             INC	C
6579 03             INC	BC
657A FD 17          RLA
657C 08             EX	AF,AF'
657D 1A             LD	A,(DE)
- 
657E 03             INC	BC
657F FD 17          RLA
6581 0C             INC	C
6582 1A             LD	A,(DE)
6583 05             DEC	B
6584 FD 50          LD	D,B
6586 10 1A          DJNZ	65A2
6588 03             INC	BC
6589 FA 0D 11       JP	M,110D ; JP	M,KEY_NEXT
658C 04             INC	B
658D 02             LD	(BC),A
658E 02             LD	(BC),A
658F FA 0D 0E       JP	M,0E0D ; JP	M,CL_SCR_2
6592 06 05          LD	B,05
6594 02             LD	(BC),A
6595 FA 11 0E       JP	M,0E11
6598 0C             INC	C
6599 02             LD	(BC),A
659A 03             INC	BC
659B FA 11 0E       JP	M,0E11
- 
659E 13             INC	DE
659F 02             LD	(BC),A
65A0 03             INC	BC
65A1 FB             EI
65A2 08             EX	AF,AF'
65A3 1D             DEC	E
65A4 04             INC	B
65A5 FE 00          CP	00
65A7 04             INC	B
65A8 1F             RRA
65A9 04             INC	B
65AA FF             RST	38
65AB 7C             LD	A,H
65AC 82             ADD	A,D
65AD 48             LD	C,B
65AE 28 78          JR	Z,6628
65B0 04             INC	B
65B1 78             LD	A,B
65B2 05             DEC	B
65B3 80             ADD	A,B
- 
65B4 48             LD	C,B
65B5 78             LD	A,B
65B6 45             LD	B,L
65B7 60             LD	H,B
65B8 82             ADD	A,D
65B9 88             ADC	A,B
65BA 40             LD	B,B
65BB E8             RET	PE
65BC 43             LD	B,E
65BD 9A             SBC	A,D
65BE 06 A8          LD	B,A8
65C0 97             SUB	A
65C1 80             ADD	A,B
65C2 20 FF          JR	NZ,65C3
65C4 FD 11 00 00    LD	DE,0000 ; LD	DE,START
65C8 1C             INC	E
65C9 FA 11 01       JP	M,0111
65CC 18 02          JR	65D0
65CE 04             INC	B
65CF FB             EI
- 
65D0 00             NOP
65D1 1C             INC	E
65D2 08             EX	AF,AF'
65D3 FA 11 00       JP	M,0011
65D6 1E 09          LD	E,09
65D8 02             LD	(BC),A
65D9 FD 50          LD	D,B
65DB 08             EX	AF,AF'
65DC 15             DEC	D
65DD 09             ADD	HL,BC
65DE FD 1D          DEC	E
65E0 0B             DEC	BC
65E1 11 04 FD       LD	DE,FD04
65E4 50             LD	D,B
65E5 0D             DEC	C
65E6 18 08          JR	65F0
65E8 FD 1D          DEC	E
65EA 08             EX	AF,AF'
65EB 07             RLCA
65EC 08             EX	AF,AF'
- 
65ED FA 11 06       JP	M,0611
65F0 0F             RRCA
65F1 07             RLCA
65F2 03             INC	BC
65F3 FA 0D 0E       JP	M,0E0D ; JP	M,CL_SCR_2
65F6 11 06 03       LD	DE,0306
65F9 FD 0D          DEC	C
65FB 13             INC	DE
65FC 14             INC	D
65FD 0C             INC	C
65FE FA 0D 08       JP	M,080D
6601 00             NOP
6602 03             INC	BC
6603 02             LD	(BC),A
6604 FA 0D 11       JP	M,110D ; JP	M,KEY_NEXT
6607 00             NOP
6608 03             INC	BC
6609 05             DEC	B
660A FB             EI
660B 11 02 03       LD	DE,0302
- 
660E FF             RST	38
660F 84             ADD	A,H
6610 81             ADD	A,C
6611 90             SUB	B
6612 08             EX	AF,AF'
6613 48             LD	C,B
6614 45             LD	B,L
6615 88             ADC	A,B
6616 85             ADD	A,L
6617 48             LD	C,B
6618 08             EX	AF,AF'
6619 30 04          JR	NC,661F
661B 98             SBC	A,B
661C 18 C8          JR	65E6
661E 69             LD	L,C
661F 99             SBC	A,C
6620 28 40          JR	Z,6662
6622 88             ADC	A,B
6623 FF             RST	38
6624 FA 11 00       JP	M,0011
- 
6627 00             NOP
6628 02             LD	(BC),A
6629 20 FA          JR	NZ,6625
662B 11 02 00       LD	DE,0002
662E 07             RLCA
662F 03             INC	BC
6630 FA 0D 09       JP	M,090D
6633 1E 0A          LD	E,0A
6635 02             LD	(BC),A
6636 FD 0D          DEC	C
6638 13             INC	DE
6639 00             NOP
663A 20 FD          JR	NZ,6639
663C 0D             DEC	C
663D 12             LD	(DE),A
663E 06 09          LD	B,09
6640 FA 0D 10       JP	M,100D
6643 09             ADD	HL,BC
6644 02             LD	(BC),A
6645 04             INC	B
- 
6646 FA 0D 0D       JP	M,0D0D
6649 0D             DEC	C
664A 06 02          LD	B,02
664C FD 51          LD	D,C
664E 0C             INC	C
664F 0D             DEC	C
6650 02             LD	(BC),A
6651 FD 51          LD	D,C
6653 0F             RRCA
6654 09             ADD	HL,BC
6655 04             INC	B
6656 FD 51          LD	D,C
6658 11 06 03       LD	DE,0306
665B FD 55          LD	D,iY
665D 0D             DEC	C
665E 00             NOP
665F 05             DEC	B
6660 FD 1D          DEC	E
6662 0A             LD	A,(BC)
6663 07             RLCA
- 
6664 03             INC	BC
6665 FD 55          LD	D,iY
6667 07             RLCA
6668 03             INC	BC
6669 03             INC	BC
666A FD 1D          DEC	E
666C 0D             DEC	C
666D 11 0D FD       LD	DE,FD0D
6670 51             LD	D,C
6671 12             LD	(DE),A
6672 11 0D FD       LD	DE,FD0D
6675 51             LD	D,C
6676 08             EX	AF,AF'
6677 1E 02          LD	E,02
6679 FF             RST	38
667A 60             LD	H,B
667B 02             LD	(BC),A
667C 80             ADD	A,B
667D 88             ADC	A,B
667E E0             RET	PO
- 
667F 42             LD	B,D
6680 44             LD	B,H
6681 82             ADD	A,D
6682 58             LD	E,B
6683 88             ADC	A,B
6684 E0             RET	PO
6685 43             LD	B,E
6686 9A             SBC	A,D
6687 0E B0          LD	C,B0
6689 99             SBC	A,C
668A 78             LD	A,B
668B 3C             INC	A
668C 90             SUB	B
668D FF             RST	38
668E FD 0D          DEC	C
6690 00             NOP
6691 00             NOP
6692 20 FA          JR	NZ,668E
6694 0D             DEC	C
6695 01 00 0E       LD	BC,0E00 ; LD	BC,CL_SCROLL
- 
6698 03             INC	BC
6699 FA 13 12       JP	M,1213
669C 00             NOP
669D 02             LD	(BC),A
669E 20 FD          JR	NZ,669D
66A0 13             INC	DE
66A1 11 0C 14       LD	DE,140C
66A4 FD 13          INC	DE
66A6 10 10          DJNZ	66B8
66A8 10 FD          DJNZ	66A7
66AA 13             INC	DE
66AB 0F             RRCA
66AC 14             INC	D
66AD 0C             INC	C
66AE FD 13          INC	DE
66B0 0E 18          LD	C,18
66B2 08             EX	AF,AF'
66B3 F8             RET	M
66B4 56             LD	D,(HL)
66B5 0C             INC	C
- 
66B6 19             ADD	HL,DE
66B7 02             LD	(BC),A
66B8 04             INC	B
66B9 FD 55          LD	D,iY
66BB 09             ADD	HL,BC
66BC 10 04          DJNZ	66C2
66BE FD 55          LD	D,iY
66C0 09             ADD	HL,BC
66C1 09             ADD	HL,BC
66C2 03             INC	BC
66C3 FD 1D          DEC	E
66C5 0C             INC	C
66C6 03             INC	BC
66C7 06 FA          LD	B,FA
66C9 0D             DEC	C
66CA 04             INC	B
66CB 05             DEC	B
66CC 06 02          LD	B,02
66CE FD 0D          DEC	C
66D0 03             INC	BC
- 
66D1 05             DEC	B
66D2 1B             DEC	DE
66D3 FB             EI
66D4 03             INC	BC
66D5 03             INC	BC
66D6 09             ADD	HL,BC
66D7 F9             LD	SP,HL
66D8 0E 12          LD	C,12
66DA FF             RST	38
66DB 74             LD	(HL),H
66DC 05             DEC	B
66DD 68             LD	L,B
66DE 20 78          JR	NZ,6758
66E0 05             DEC	B
66E1 4C             LD	C,H
66E2 81             ADD	A,C
66E3 80             ADD	A,B
66E4 00             NOP
66E5 50             LD	D,B
66E6 44             LD	B,H
- 
66E7 99             SBC	A,C
66E8 A0             AND	B
66E9 48             LD	C,B
66EA 70             LD	(HL),B
66EB FF             RST	38
66EC FD 0D          DEC	C
66EE 00             NOP
66EF 00             NOP
66F0 20 FE          JR	NZ,66F0
66F2 0D             DEC	C
66F3 01 1F 08       LD	BC,081F
66F6 FD 0D          DEC	C
66F8 03             INC	BC
66F9 00             NOP
66FA 13             INC	DE
66FB FA 0D 04       JP	M,040D
66FE 04             INC	B
66FF 02             LD	(BC),A
6700 0F             RRCA
6701 FD 55          LD	D,iY
- 
6703 05             DEC	B
6704 13             INC	DE
6705 04             INC	B
6706 FD 1D          DEC	E
6708 08             EX	AF,AF'
6709 1B             DEC	DE
670A 04             INC	B
670B FA 13 0E       JP	M,0E13
670E 00             NOP
670F 06 04          LD	B,04
6711 FD 13          INC	DE
6713 13             INC	DE
6714 04             INC	B
6715 1C             INC	E
6716 FA 13 0E       JP	M,0E13
6719 12             LD	(DE),A
671A 02             LD	(BC),A
671B 02             LD	(BC),A
671C FA 13 10       JP	M,1013
671F 12             LD	(DE),A
- 
6720 02             LD	(BC),A
6721 06 FD          LD	B,FD
6723 13             INC	DE
6724 12             LD	(DE),A
6725 12             LD	(DE),A
6726 0E F9          LD	C,F9
6728 11 04 F8       LD	DE,F804
672B 83             ADD	A,E
672C 10 10          DJNZ	673E
672E 03             INC	BC
672F 02             LD	(BC),A
6730 FB             EI
6731 12             LD	(DE),A
6732 1A             LD	A,(DE)
6733 02             LD	(BC),A
6734 FF             RST	38
6735 60             LD	H,B
6736 01 88 30       LD	BC,3088
6739 70             LD	(HL),B
673A 07             RLCA
- 
673B 99             SBC	A,C
673C C0             RET	NZ
673D 28 80          JR	Z,66BF
673F 95             SUB	L
6740 02             LD	(BC),A
6741 01 0E 9A       LD	BC,9A0E
6744 2E 54          LD	L,54
6746 FF             RST	38
6747 FD 13          INC	DE
6749 00             NOP
674A 00             NOP
674B 20 FE          JR	NZ,674B
674D 13             INC	DE
674E 01 00 08       LD	BC,0800 ; LD	BC,VR_CONT_3
6751 FE 0D          CP	0D
6753 00             NOP
6754 1F             RRA
6755 0D             DEC	C
6756 FD 20 13       JR	NZ,676C
6759 05             DEC	B
- 
675A 16 FD          LD	D,FD
675C 51             LD	D,C
675D 10 1D          DJNZ	677C
675F 03             INC	BC
6760 FD 51          LD	D,C
6762 12             LD	(DE),A
6763 15             DEC	D
6764 02             LD	(BC),A
6765 FD 0D          DEC	C
6767 13             INC	DE
6768 15             DEC	D
6769 02             LD	(BC),A
676A FA 0D 11       JP	M,110D ; JP	M,KEY_NEXT
676D 1D             DEC	E
676E 03             INC	BC
676F 03             INC	BC
6770 FD 51          LD	D,C
6772 12             LD	(DE),A
6773 1B             DEC	DE
6774 02             LD	(BC),A
- 
6775 FD 0D          DEC	C
6777 13             INC	DE
6778 1B             DEC	DE
6779 02             LD	(BC),A
677A FA 13 12       JP	M,1213
677D 00             NOP
677E 02             LD	(BC),A
677F 05             DEC	B
6780 FD 51          LD	D,C
6782 12             LD	(DE),A
6783 09             ADD	HL,BC
6784 02             LD	(BC),A
6785 FD 0D          DEC	C
6787 13             INC	DE
6788 09             ADD	HL,BC
6789 02             LD	(BC),A
678A FD 51          LD	D,C
678C 12             LD	(DE),A
678D 0F             RRCA
678E 02             LD	(BC),A
- 
678F FD 0D          DEC	C
6791 13             INC	DE
6792 0F             RRCA
6793 02             LD	(BC),A
6794 FD 07          RLCA
6796 0D             DEC	C
6797 1B             DEC	DE
6798 02             LD	(BC),A
6799 FD 1D          DEC	E
679B 0A             LD	A,(BC)
679C 15             DEC	D
679D 02             LD	(BC),A
679E FD 07          RLCA
67A0 0C             INC	C
67A1 0F             RRCA
67A2 02             LD	(BC),A
67A3 FD 1D          DEC	E
67A5 0A             LD	A,(BC)
67A6 09             ADD	HL,BC
67A7 02             LD	(BC),A
- 
67A8 FD 07          RLCA
67AA 0B             DEC	BC
67AB 03             INC	BC
67AC 03             INC	BC
67AD FD 1D          DEC	E
67AF 08             EX	AF,AF'
67B0 01 02 FD       LD	BC,FD02
67B3 3C             INC	A
67B4 06 05          LD	B,05
67B6 04             INC	B
67B7 FD 3C          INC	A
67B9 06 0F          LD	B,0F
67BB 08             EX	AF,AF'
67BC FD 1D          DEC	E
67BE 06 1B          LD	B,1B
67C0 04             INC	B
67C1 FB             EI
67C2 00             NOP
67C3 1D             DEC	E
67C4 06 FF          LD	B,FF
- 
67C6 70             LD	(HL),B
67C7 01 30 38       LD	BC,3830
67CA 88             ADC	A,B
67CB 05             DEC	B
67CC 8C             ADC	A,H
67CD 02             LD	(BC),A
67CE 60             LD	H,B
67CF 38 88          JR 	C,6759
67D1 07             RLCA
67D2 58             LD	E,B
67D3 81             ADD	A,C
67D4 20 78          JR	NZ,684E
67D6 A8             XOR	B
67D7 06 7C          LD	B,7C
67D9 85             ADD	A,L
67DA C0             RET	NZ
67DB 08             EX	AF,AF'
67DC 88             ADC	A,B
67DD 03             INC	BC
67DE 64             LD	H,H
- 
67DF 82             ADD	A,D
67E0 90             SUB	B
67E1 38 88          JR 	C,676B
67E3 02             LD	(BC),A
67E4 96             SUB	(HL)
67E5 48             LD	C,B
67E6 00             NOP
67E7 FF             RST	38
67E8 FD 04          INC	B
67EA 00             NOP
67EB 00             NOP
67EC 20 FE          JR	NZ,67EC
67EE 04             INC	B
67EF 01 00 03       LD	BC,0300
67F2 FE 04          CP	04
67F4 05             DEC	B
67F5 1F             RRA
67F6 08             EX	AF,AF'
67F7 FB             EI
67F8 05             DEC	B
- 
67F9 1D             DEC	E
67FA 07             RLCA
67FB FD 07          RLCA
67FD 0C             INC	C
67FE 17             RLA
67FF 08             EX	AF,AF'
6800 FE 13          CP	13
6802 0F             RRCA
6803 00             NOP
6804 04             INC	B
6805 FD 13          INC	DE
6807 13             INC	DE
6808 00             NOP
6809 20 FA          JR	NZ,6805
680B 3C             INC	A
680C 08             EX	AF,AF'
680D 00             NOP
680E 06 04          LD	B,04
6810 FA 3C 0A       JP	M,0A3C
6813 08             EX	AF,AF'
- 
6814 03             INC	BC
6815 03             INC	BC
6816 FD 3C          INC	A
6818 0C             INC	C
6819 0F             RRCA
681A 02             LD	(BC),A
681B FB             EI
681C 0C             INC	C
681D 11 04 FA       LD	DE,FA04
6820 13             INC	DE
6821 0C             INC	C
6822 13             INC	DE
6823 07             RLCA
6824 02             LD	(BC),A
6825 FD 22 06 11    LD	(1106),IY
6829 04             INC	B
682A FD 22 10 08    LD	(0810),IY
682E 0B             DEC	BC
682F FD 13          INC	DE
6831 12             LD	(DE),A
- 
6832 17             RLA
6833 09             ADD	HL,BC
6834 FA 04 05       JP	M,0504
6837 17             RLA
6838 02             LD	(BC),A
6839 06 FF          LD	B,FF
683B 84             ADD	A,H
683C 05             DEC	B
683D 28 18          JR	Z,6857
683F 78             LD	A,B
6840 42             LD	B,D
6841 54             LD	D,H
6842 02             LD	(BC),A
6843 10 88          DJNZ	67CD
6845 F0             RET	P
6846 47             LD	B,A
6847 48             LD	C,B
6848 01 88 08       LD	BC,0888
684B 70             LD	(HL),B
684C 44             LD	B,H
- 
684D 90             SUB	B
684E 02             LD	(BC),A
684F 60             LD	H,B
6850 28 70          JR	Z,68C2
6852 44             LD	B,H
6853 99             SBC	A,C
6854 A8             XOR	B
6855 48             LD	C,B
6856 90             SUB	B
6857 96             SUB	(HL)
6858 70             LD	(HL),B
6859 00             NOP
685A FF             RST	38
685B FD 04          INC	B
685D 00             NOP
685E 00             NOP
685F 20 FA          JR	NZ,685B
6861 04             INC	B
6862 01 09 07       LD	BC,0709
6865 03             INC	BC
- 
6866 FE 04          CP	04
6868 05             DEC	B
6869 00             NOP
686A 08             EX	AF,AF'
686B FD 04          INC	B
686D 0C             INC	C
686E 01 0C FD       LD	BC,FD0C
6871 50             LD	D,B
6872 0C             INC	C
6873 0D             DEC	C
6874 02             LD	(BC),A
6875 FA 13 12       JP	M,1213
6878 00             NOP
6879 02             LD	(BC),A
687A 20 FA          JR	NZ,6876
687C 13             INC	DE
687D 0E 0E          LD	C,0E
687F 04             INC	B
6880 05             DEC	B
6881 FA 3C 0B       JP	M,0B3C
- 
6884 13             INC	DE
6885 02             LD	(BC),A
6886 02             LD	(BC),A
6887 FA 3C 05       JP	M,053C ; JP	M,SA_DELAY
688A 13             INC	DE
688B 02             LD	(BC),A
688C 02             LD	(BC),A
688D FA 3C 05       JP	M,053C ; JP	M,SA_DELAY
6890 19             ADD	HL,DE
6891 07             RLCA
6892 02             LD	(BC),A
6893 FB             EI
6894 05             DEC	B
6895 1B             DEC	DE
6896 06 FA          LD	B,FA
6898 04             INC	B
6899 05             DEC	B
689A 1D             DEC	E
689B 02             LD	(BC),A
689C 03             INC	BC
- 
689D FE 13          CP	13
689F 07             RLCA
68A0 1F             RRA
68A1 0B             DEC	BC
68A2 FD 55          LD	D,iY
68A4 0B             DEC	BC
68A5 1B             DEC	DE
68A6 02             LD	(BC),A
68A7 FD 50          LD	D,B
68A9 0F             RRCA
68AA 18 07          JR	68B3
68AC FB             EI
68AD 0B             DEC	BC
68AE 1D             DEC	E
68AF 04             INC	B
68B0 FD 55          LD	D,iY
68B2 05             DEC	B
68B3 01 03 FD       LD	BC,FD03
68B6 55             LD	D,L
68B7 09             ADD	HL,BC
- 
68B8 01 03 FD       LD	BC,FD03
68BB 50             LD	D,B
68BC 07             RLCA
68BD 06 03          LD	B,03
68BF FD 55          LD	D,iY
68C1 08             EX	AF,AF'
68C2 0C             INC	C
68C3 03             INC	BC
68C4 FB             EI
68C5 12             LD	(DE),A
68C6 1D             DEC	E
68C7 02             LD	(BC),A
68C8 FC 1E 09       CALL	M,091E ; CALL	M,ME_OLD_V4
68CB 0F             RRCA
68CC FC 1E 0A       CALL	M,0A1E
68CF 15             DEC	D
68D0 FF             RST	38
68D1 58             LD	E,B
68D2 01 50 08       LD	BC,0850
68D5 68             LD	L,B
- 
68D6 43             LD	B,E
68D7 2C             INC	L
68D8 81             ADD	A,C
68D9 80             ADD	A,B
68DA 08             EX	AF,AF'
68DB 60             LD	H,B
68DC 42             LD	B,D
68DD 7C             LD	A,H
68DE 02             LD	(BC),A
68DF 80             ADD	A,B
68E0 08             EX	AF,AF'
68E1 60             LD	H,B
68E2 05             DEC	B
68E3 8C             ADC	A,H
68E4 82             ADD	A,D
68E5 B0             OR	B
68E6 08             EX	AF,AF'
68E7 80             ADD	A,B
68E8 47             LD	B,A
68E9 96             SUB	(HL)
- 
68EA 6A             LD	L,D
68EB 00             NOP
68EC 98             SBC	A,B
68ED 08             EX	AF,AF'
68EE 98             SBC	A,B
68EF 5A             LD	E,D
68F0 97             SUB	A
68F1 88             ADC	A,B
68F2 C0             RET	NZ
68F3 FF             RST	38
68F4 FD 04          INC	B
68F6 00             NOP
68F7 00             NOP
68F8 20 FA          JR	NZ,68F4
68FA 04             INC	B
68FB 01 04 0A       LD	BC,0A04
68FE 02             LD	(BC),A
68FF FA 04 01       JP	M,0104
6902 06 06          LD	B,06
6904 04             INC	B
- 
6905 FD 04          INC	B
6907 06 0A          LD	B,0A
6909 08             EX	AF,AF'
690A FB             EI
690B 05             DEC	B
690C 02             LD	(BC),A
690D 08             EX	AF,AF'
690E FA 13 05       JP	M,0513
6911 00             NOP
6912 09             ADD	HL,BC
6913 02             LD	(BC),A
6914 FD 13          INC	DE
6916 0D             DEC	C
6917 02             LD	(BC),A
6918 06 FE          LD	B,FE
691A 13             INC	DE
691B 0E 00          LD	C,00
691D 05             DEC	B
691E FD 13          INC	DE
6920 13             INC	DE
- 
6921 00             NOP
6922 20 FD          JR	NZ,6921
6924 55             LD	D,L
6925 10 08          DJNZ	692F
6927 04             INC	B
6928 FA 3C 0E       JP	M,0E3C
692B 14             INC	D
692C 03             INC	BC
692D 02             LD	(BC),A
692E FA 3C 0E       JP	M,0E3C
6931 19             ADD	HL,DE
6932 03             INC	BC
6933 02             LD	(BC),A
6934 FD 13          INC	DE
6936 12             LD	(DE),A
6937 19             ADD	HL,DE
6938 07             RLCA
6939 FA 13 10       JP	M,1013
693C 1D             DEC	E
693D 02             LD	(BC),A
- 
693E 03             INC	BC
693F FE 04          CP	04
6941 01 1F 0B       LD	BC,0B1F
6944 FD 55          LD	D,iY
6946 0B             DEC	BC
6947 1D             DEC	E
6948 02             LD	(BC),A
6949 FD 50          LD	D,B
694B 09             ADD	HL,BC
694C 18 03          JR	6951
694E FD 50          LD	D,B
6950 07             RLCA
6951 14             INC	D
6952 02             LD	(BC),A
6953 FD 55          LD	D,iY
6955 04             INC	B
6956 14             INC	D
6957 02             LD	(BC),A
6958 FA 04 01       JP	M,0104
695B 16 04          LD	D,04
- 
695D 02             LD	(BC),A
695E FC 5E 02       CALL	M,025E
6961 1A             LD	A,(DE)
6962 FD 5F          LD	E,A
6964 02             LD	(BC),A
6965 1B             DEC	DE
6966 04             INC	B
6967 FC 48 01       CALL	M,0148
696A 10 FF          DJNZ	696B
696C 68             LD	L,B
696D 05             DEC	B
696E D8             RET	C
696F 38 80          JR 	C,68F1
6971 44             LD	B,H
6972 34             INC	(HL)
6973 02             LD	(BC),A
6974 88             ADC	A,B
6975 08             EX	AF,AF'
6976 B8             CP	B
6977 05             DEC	B
- 
6978 34             INC	(HL)
6979 81             ADD	A,C
697A 20 50          JR	NZ,69CC
697C 80             ADD	A,B
697D 07             RLCA
697E 95             SUB	L
697F 02             LD	(BC),A
6980 0B             DEC	BC
6981 05             DEC	B
6982 9A             SBC	A,D
6983 36 70          LD	(HL),70
6985 FF             RST	38
6986 FD 0D          DEC	C
6988 00             NOP
6989 00             NOP
698A 20 FD          JR	NZ,6989
698C 20 13          JR	NZ,69A1
698E 00             NOP
698F 1F             RRA
6990 FE 0D          CP	0D
- 
6992 01 1F 05       LD	BC,051F
6995 FE 04          CP	04
6997 0B             DEC	BC
6998 1F             RRA
6999 09             ADD	HL,BC
699A FE 0A          CP	0A
699C 02             LD	(BC),A
699D 07             RLCA
699E 06 FD          LD	B,FD
69A0 07             RLCA
69A1 07             RLCA
69A2 08             EX	AF,AF'
69A3 02             LD	(BC),A
69A4 FD 07          RLCA
69A6 04             INC	B
69A7 0C             INC	C
69A8 11 FE 0A       LD	DE,0AFE
69AB 04             INC	B
69AC 0E 08          LD	C,08
69AE FA 0D 04       JP	M,040D
- 
69B1 15             DEC	D
69B2 02             LD	(BC),A
69B3 02             LD	(BC),A
69B4 FD 07          RLCA
69B6 09             ADD	HL,BC
69B7 0C             INC	C
69B8 02             LD	(BC),A
69B9 FD 50          LD	D,B
69BB 0C             INC	C
69BC 00             NOP
69BD 0A             LD	A,(BC)
69BE FD 50          LD	D,B
69C0 11 00 03       LD	DE,0300
69C3 FD 50          LD	D,B
69C5 11 05 06       LD	DE,0605 ; LD	DE,SAVE_ETC
69C8 FA 0A 11       JP	M,110A
69CB 07             RLCA
69CC 02             LD	(BC),A
69CD 02             LD	(BC),A
69CE FA 04 11       JP	M,1104
- 
69D1 0F             RRCA
69D2 02             LD	(BC),A
69D3 02             LD	(BC),A
69D4 FD 06 0B       LD	B,0B
69D7 1A             LD	A,(DE)
69D8 05             DEC	B
69D9 FD 06 0B       LD	B,0B
69DC 13             INC	DE
69DD 02             LD	(BC),A
69DE FD 06 0F       LD	B,0F
69E1 18 03          JR	69E6
69E3 FD 06 11       LD	B,11
69E6 15             DEC	D
69E7 02             LD	(BC),A
69E8 FE 0A          CP	0A
69EA 0F             RRCA
69EB 17             RLA
69EC 03             INC	BC
69ED FE 0A          CP	0A
69EF 0A             LD	A,(BC)
- 
69F0 17             RLA
69F1 02             LD	(BC),A
69F2 FC 04 11       CALL	M,1104
69F5 1D             DEC	E
69F6 FB             EI
69F7 0C             INC	C
69F8 05             DEC	B
69F9 05             DEC	B
69FA FF             RST	38
69FB 3C             INC	A
69FC 81             ADD	A,C
69FD 50             LD	D,B
69FE 00             NOP
69FF 40             LD	B,B
6A00 03             INC	BC
6A01 88             ADC	A,B
6A02 01 60 50       LD	BC,5060
6A05 88             ADC	A,B
6A06 04             INC	B
6A07 98             SBC	A,B
- 
6A08 08             EX	AF,AF'
6A09 D0             RET	NC
6A0A 55             LD	D,L
6A0B 97             SUB	A
6A0C 18 A8          JR	69B6
6A0E 95             SUB	L
6A0F 03             INC	BC
6A10 01 0E 99       LD	BC,990E
6A13 88             ADC	A,B
6A14 58             LD	E,B
6A15 88             ADC	A,B
6A16 FF             RST	38
6A17 FD 11 00 00    LD	DE,0000 ; LD	DE,START
6A1B 26 FE          LD	H,FE
6A1D 11 01 05       LD	DE,0501
6A20 05             DEC	B
6A21 FA 11 01       JP	M,0111
6A24 1E 0D          LD	E,0D
6A26 02             LD	(BC),A
6A27 FA 60 08       JP	M,0860
- 
6A2A 00             NOP
6A2B 0C             INC	C
6A2C 02             LD	(BC),A
6A2D FA 60 0A       JP	M,0A60
6A30 02             LD	(BC),A
6A31 0A             LD	A,(BC)
6A32 02             LD	(BC),A
6A33 FA 60 0C       JP	M,0C60
6A36 04             INC	B
6A37 08             EX	AF,AF'
6A38 02             LD	(BC),A
6A39 FA 60 0E       JP	M,0E60
6A3C 06 06          LD	B,06
6A3E 02             LD	(BC),A
6A3F FA 60 10       JP	M,1060
6A42 08             EX	AF,AF'
6A43 04             INC	B
6A44 02             LD	(BC),A
6A45 FA 60 12       JP	M,1260
6A48 0A             LD	A,(BC)
- 
6A49 02             LD	(BC),A
6A4A 16 F7          LD	D,F7
6A4C 05             DEC	B
6A4D 06 F7          LD	B,F7
6A4F 05             DEC	B
6A50 0D             DEC	C
6A51 F7             RST	30
6A52 05             DEC	B
6A53 14             INC	D
6A54 F7             RST	30
6A55 09             ADD	HL,BC
6A56 1B             DEC	DE
6A57 F7             RST	30
6A58 09             ADD	HL,BC
6A59 0D             DEC	C
6A5A F7             RST	30
6A5B 0D             DEC	C
6A5C 0D             DEC	C
6A5D F7             RST	30
6A5E 0D             DEC	C
- 
6A5F 14             INC	D
6A60 FC 69 0A       CALL	M,0A69 ; CALL	M,PO_QUEST
6A63 1D             DEC	E
6A64 F8             RET	M
6A65 61             LD	H,C
6A66 0B             DEC	BC
6A67 14             INC	D
6A68 02             LD	(BC),A
6A69 03             INC	BC
6A6A F8             RET	M
6A6B 6A             LD	L,D
6A6C 07             RLCA
6A6D 1B             DEC	DE
6A6E 02             LD	(BC),A
6A6F 03             INC	BC
6A70 F8             RET	M
6A71 6A             LD	L,D
6A72 03             INC	BC
6A73 06 02          LD	B,02
6A75 03             INC	BC
- 
6A76 F8             RET	M
6A77 61             LD	H,C
6A78 03             INC	BC
6A79 0D             DEC	C
6A7A 02             LD	(BC),A
6A7B 03             INC	BC
6A7C F8             RET	M
6A7D 61             LD	H,C
6A7E 03             INC	BC
6A7F 14             INC	D
6A80 02             LD	(BC),A
6A81 03             INC	BC
6A82 FF             RST	38
6A83 7C             LD	A,H
6A84 05             DEC	B
6A85 50             LD	D,B
6A86 10 58          DJNZ	6AE0
6A88 44             LD	B,H
6A89 3C             INC	A
6A8A 00             NOP
- 
6A8B 80             ADD	A,B
6A8C 50             LD	D,B
6A8D F0             RET	P
6A8E 42             LD	B,D
6A8F 9B             SBC	A,E
6A90 53             LD	D,E
6A91 E6 FF          AND	FF
6A93 FD 11 00 00    LD	DE,0000 ; LD	DE,START
6A97 21 FA 11       LD	HL,11FA
6A9A 01 1E 09       LD	BC,091E ; LD	BC,ME_OLD_V4
6A9D 02             LD	(BC),A
6A9E FA 60 12       JP	M,1260
6AA1 00             NOP
6AA2 02             LD	(BC),A
6AA3 20 FD          JR	NZ,6AA2
6AA5 1D             DEC	E
6AA6 0D             DEC	C
6AA7 08             EX	AF,AF'
6AA8 0A             LD	A,(BC)
6AA9 FD 1D          DEC	E
- 
6AAB 09             ADD	HL,BC
6AAC 18 03          JR	6AB1
6AAE FC 1E 0C       CALL	M,0C1E
6AB1 13             INC	DE
6AB2 FA 60 0D       JP	M,0D60
6AB5 1C             INC	E
6AB6 05             DEC	B
6AB7 04             INC	B
6AB8 F9             LD	SP,HL
6AB9 10 05          DJNZ	6AC0
6ABB FE 39          CP	39
6ABD 03             INC	BC
6ABE 00             NOP
6ABF 0B             DEC	BC
6AC0 FE 39          CP	39
6AC2 06 07          LD	B,07
6AC4 08             EX	AF,AF'
6AC5 FA 3C 06       JP	M,063C
6AC8 15             DEC	D
6AC9 06 03          LD	B,03
- 
6ACB FB             EI
6ACC 06 13          LD	B,13
6ACE 04             INC	B
6ACF FD 08          EX	AF,AF'
6AD1 0D             DEC	C
6AD2 01 02 FD       LD	BC,FD02
6AD5 08             EX	AF,AF'
6AD6 0A             LD	A,(BC)
6AD7 05             DEC	B
6AD8 02             LD	(BC),A
6AD9 FD 08          EX	AF,AF'
6ADB 07             RLCA
6ADC 01 02 FC       LD	BC,FC02
6ADF 48             LD	C,B
6AE0 01 10 FC       LD	BC,FC10
6AE3 69             LD	L,C
6AE4 03             INC	BC
6AE5 1D             DEC	E
6AE6 FD 22 06 08    LD	(0806),IY ; LD	(REPORT_R),IY
6AEA 09             ADD	HL,BC
- 
6AEB FD 1D          DEC	E
6AED 0A             LD	A,(BC)
6AEE 11 04 FF       LD	DE,FF04
6AF1 3C             INC	A
6AF2 01 80 38       LD	BC,3880
6AF5 B8             CP	B
6AF6 02             LD	(BC),A
6AF7 60             LD	H,B
6AF8 00             NOP
6AF9 20 38          JR	NZ,6B33
6AFB 78             LD	A,B
6AFC 06 88          LD	B,88
6AFE 05             DEC	B
6AFF 18 18          JR	6B19
6B01 70             LD	(HL),B
6B02 43             LD	B,E
6B03 9B             SBC	A,E
6B04 1B             DEC	DE
6B05 E6 96          AND	96
6B07 13             INC	DE
- 
6B08 00             NOP
6B09 99             SBC	A,C
6B0A D0             RET	NC
6B0B 68             LD	L,B
6B0C 88             ADC	A,B
6B0D FF             RST	38
6B0E FA 0D 01       JP	M,010D
6B11 00             NOP
6B12 0D             DEC	C
6B13 02             LD	(BC),A
6B14 FD 0D          DEC	C
6B16 00             NOP
6B17 00             NOP
6B18 20 FA          JR	NZ,6B14
6B1A 04             INC	B
6B1B 0F             RRCA
6B1C 00             NOP
6B1D 05             DEC	B
6B1E 02             LD	(BC),A
6B1F FD 50          LD	D,B
- 
6B21 11 02 03       LD	DE,0302
6B24 FD 50          LD	D,B
6B26 11 07 04       LD	DE,0407
6B29 FD 20 13       JR	NZ,6B3F
6B2C 02             LD	(BC),A
6B2D 1E FA          LD	E,FA
6B2F 0A             LD	A,(BC)
6B30 10 0F          DJNZ	6B41
6B32 02             LD	(BC),A
6B33 02             LD	(BC),A
6B34 FD 50          LD	D,B
6B36 11 15 0B       LD	DE,0B15
6B39 FD 50          LD	D,B
6B3B 06 02          LD	B,02
6B3D 03             INC	BC
6B3E FD 07          RLCA
6B40 0C             INC	C
6B41 1A             LD	A,(DE)
6B42 06 FA          LD	B,FA
6B44 0A             LD	A,(BC)
- 
6B45 06 18          LD	B,18
6B47 09             ADD	HL,BC
6B48 02             LD	(BC),A
6B49 FB             EI
6B4A 06 1A          LD	B,1A
6B4C 06 FC          LD	B,FC
6B4E 69             LD	L,C
6B4F 03             INC	BC
6B50 1B             DEC	DE
6B51 FA 04 06       JP	M,0604
6B54 12             LD	(DE),A
6B55 02             LD	(BC),A
6B56 02             LD	(BC),A
6B57 FE 0A          CP	0A
6B59 03             INC	BC
6B5A 1C             INC	E
6B5B 07             RLCA
6B5C FA 0D 06       JP	M,060D
6B5F 0C             INC	C
6B60 02             LD	(BC),A
- 
6B61 02             LD	(BC),A
6B62 FD 04          INC	B
6B64 0A             LD	A,(BC)
6B65 0E 04          LD	C,04
6B67 FC 04 0B       CALL	M,0B04
6B6A 0E FC          LD	C,FC
6B6C 04             INC	B
6B6D 0B             DEC	BC
6B6E 11 FD 07       LD	DE,07FD
6B71 0D             DEC	C
6B72 15             DEC	D
6B73 03             INC	BC
6B74 FF             RST	38
6B75 90             SUB	B
6B76 02             LD	(BC),A
6B77 78             LD	A,B
6B78 08             EX	AF,AF'
6B79 40             LD	B,B
6B7A 41             LD	B,C
6B7B 64             LD	H,H
- 
6B7C 82             ADD	A,D
6B7D A8             XOR	B
6B7E 08             EX	AF,AF'
6B7F 40             LD	B,B
6B80 45             LD	B,L
6B81 99             SBC	A,C
6B82 28 30          JR	Z,6BB4
6B84 88             ADC	A,B
6B85 98             SBC	A,B
6B86 58             LD	E,B
6B87 78             LD	A,B
6B88 3E 9B          LD	A,9B
6B8A 1B             DEC	DE
6B8B D6 96          SUB	96
6B8D 73             LD	(HL),E
6B8E 00             NOP
6B8F FF             RST	38
6B90 FA 19 0A       JP	M,0A19
6B93 00             NOP
6B94 09             ADD	HL,BC
- 
6B95 06 FD          LD	B,FD
6B97 19             ADD	HL,DE
6B98 13             INC	DE
6B99 00             NOP
6B9A 20 FD          JR	NZ,6B99
6B9C 2F             CPL
6B9D 0F             RRCA
6B9E 08             EX	AF,AF'
6B9F 07             RLCA
6BA0 FD 2F          CPL
6BA2 0B             DEC	BC
6BA3 06 07          LD	B,07
6BA5 FA 04 06       JP	M,0604
6BA8 03             INC	BC
6BA9 04             INC	B
6BAA 02             LD	(BC),A
6BAB FA 04 07       JP	M,0704
6BAE 1B             DEC	DE
6BAF 05             DEC	B
6BB0 02             LD	(BC),A
- 
6BB1 FD 2F          CPL
6BB3 0B             DEC	BC
6BB4 13             INC	DE
6BB5 08             EX	AF,AF'
6BB6 FC 69 07       CALL	M,0769
6BB9 1A             LD	A,(DE)
6BBA FB             EI
6BBB 0F             RRCA
6BBC 06 04          LD	B,04
6BBE FC 1E 0F       CALL	M,0F1E ; CALL	M,COPY_L_5
6BC1 1A             LD	A,(DE)
6BC2 FB             EI
6BC3 0B             DEC	BC
6BC4 0D             DEC	C
6BC5 04             INC	B
6BC6 FF             RST	38
6BC7 3C             INC	A
6BC8 02             LD	(BC),A
6BC9 88             ADC	A,B
6BCA 40             LD	B,B
- 
6BCB F0             RET	P
6BCC 05             DEC	B
6BCD 90             SUB	B
6BCE 05             DEC	B
6BCF 80             ADD	A,B
6BD0 38 70          JR 	C,6C42
6BD2 47             LD	B,A
6BD3 9B             SBC	A,E
6BD4 3B             DEC 	SP
6BD5 CE FF          ADC	A,FF
6BD7 FD 0D          DEC	C
6BD9 00             NOP
6BDA 00             NOP
6BDB 20 FA          JR	NZ,6BD7
6BDD 0D             DEC	C
6BDE 01 0A 02       LD	BC,020A
6BE1 08             EX	AF,AF'
6BE2 FD 0D          DEC	C
6BE4 02             LD	(BC),A
6BE5 10 02          DJNZ	6BE9
- 
6BE7 FD 0D          DEC	C
6BE9 03             INC	BC
6BEA 10 04          DJNZ	6BF0
6BEC FE 0D          CP	0D
6BEE 01 1F 0B       LD	BC,0B1F
6BF1 FE 03          CP	03
6BF3 07             RLCA
6BF4 00             NOP
6BF5 06 FA          LD	B,FA
6BF7 03             INC	BC
6BF8 0D             DEC	C
6BF9 00             NOP
6BFA 04             INC	B
6BFB 03             INC	BC
6BFC FD 20 13       JR	NZ,6C12
6BFF 00             NOP
6C00 1A             LD	A,(DE)
6C01 FA 03 07       JP	M,0703
6C04 0A             LD	A,(BC)
6C05 07             RLCA
- 
6C06 02             LD	(BC),A
6C07 FD 03          INC	BC
6C09 10 05          DJNZ	6C10
6C0B 11 FA 03       LD	DE,03FA
6C0E 0D             DEC	C
6C0F 16 04          LD	D,04
6C11 02             LD	(BC),A
6C12 FC 48 08       CALL	M,0848
6C15 16 FA          LD	D,FA
6C17 3C             INC	A
6C18 10 1A          DJNZ	6C34
6C1A 04             INC	B
6C1B 06 FA          LD	B,FA
6C1D 3C             INC	A
6C1E 06 16          LD	B,16
6C20 02             LD	(BC),A
6C21 02             LD	(BC),A
6C22 FA 3C 05       JP	M,053C ; JP	M,SA_DELAY
6C25 1A             LD	A,(DE)
6C26 02             LD	(BC),A
- 
6C27 03             INC	BC
6C28 FB             EI
6C29 05             DEC	B
6C2A 1D             DEC	E
6C2B 05             DEC	B
6C2C FD 50          LD	D,B
6C2E 0A             LD	A,(BC)
6C2F 1A             LD	A,(DE)
6C30 05             DEC	B
6C31 FD 50          LD	D,B
6C33 0A             LD	A,(BC)
6C34 05             DEC	B
6C35 05             DEC	B
6C36 FD 50          LD	D,B
6C38 0A             LD	A,(BC)
6C39 0E 04          LD	C,04
6C3B FD 50          LD	D,B
6C3D 07             RLCA
6C3E 01 03 FC       LD	BC,FC03
6C41 1E 05          LD	E,05
- 
6C43 14             INC	D
6C44 FC 69 07       CALL	M,0769
6C47 15             DEC	D
6C48 FC 0B 01       CALL	M,010B
6C4B 13             INC	DE
6C4C FC 0C 01       CALL	M,010C
6C4F 06 FE          LD	B,FE
6C51 23             INC	HL
6C52 0E 01          LD	C,01
6C54 02             LD	(BC),A
6C55 FF             RST	38
6C56 58             LD	E,B
6C57 02             LD	(BC),A
6C58 70             LD	(HL),B
6C59 28 A0          JR	Z,6BFB
6C5B 02             LD	(BC),A
6C5C 8C             ADC	A,H
6C5D 05             DEC	B
6C5E C0             RET	NZ
6C5F 10 70          DJNZ	6CD1
- 
6C61 07             RLCA
6C62 97             SUB	A
6C63 28 B0          JR	Z,6C15
6C65 98             SBC	A,B
6C66 18 50          JR	6CB8
6C68 36 9B          LD	(HL),9B
6C6A 3B             DEC 	SP
6C6B A6             AND	(HL)
6C6C FF             RST	38
6C6D FD 3C          INC	A
6C6F 00             NOP
6C70 00             NOP
6C71 20 FA          JR	NZ,6C6D
6C73 3C             INC	A
6C74 01 00 04       LD	BC,0400
6C77 04             INC	B
6C78 FA 3C 01       JP	M,013C
6C7B 15             DEC	D
6C7C 03             INC	BC
6C7D 03             INC	BC
- 
6C7E FE 3C          CP	3C
6C80 01 1F 12       LD	BC,121F
6C83 FE 03          CP	03
6C85 05             DEC	B
6C86 1C             INC	E
6C87 07             RLCA
6C88 FD 3C          INC	A
6C8A 13             INC	DE
6C8B 00             NOP
6C8C 20 FA          JR	NZ,6C88
6C8E 3C             INC	A
6C8F 10 00          DJNZ	6C91
6C91 03             INC	BC
6C92 09             ADD	HL,BC
6C93 FA 03 06       JP	M,0603
6C96 00             NOP
6C97 06 04          LD	B,04
6C99 FA 03 08       JP	M,0803
6C9C 08             EX	AF,AF'
6C9D 04             INC	B
- 
6C9E 04             INC	B
6C9F FA 03 07       JP	M,0703
6CA2 18 04          JR	6CA8
6CA4 02             LD	(BC),A
6CA5 FA 03 0D       JP	M,0D03
6CA8 10 02          DJNZ	6CAC
6CAA 04             INC	B
6CAB FB             EI
6CAC 08             EX	AF,AF'
6CAD 06 08          LD	B,08
6CAF FB             EI
6CB0 05             DEC	B
6CB1 1D             DEC	E
6CB2 0A             LD	A,(BC)
6CB3 FD 55          LD	D,iY
6CB5 0F             RRCA
6CB6 18 07          JR	6CBF
6CB8 FD 55          LD	D,iY
6CBA 07             RLCA
6CBB 14             INC	D
- 
6CBC 04             INC	B
6CBD FD 55          LD	D,iY
6CBF 08             EX	AF,AF'
6CC0 0C             INC	C
6CC1 04             INC	B
6CC2 FC 69 11       CALL	M,1169
6CC5 1E FC          LD	E,FC
6CC7 49             LD	C,C
6CC8 12             LD	(DE),A
6CC9 0C             INC	C
6CCA FA 23 07       JP	M,0723 ; JP	M,SA_LINE_1
6CCD 01 04 02       LD	BC,0204
6CD0 FA 23 09       JP	M,0923 ; JP	M,ME_VAR_L2
6CD3 09             ADD	HL,BC
6CD4 02             LD	(BC),A
6CD5 02             LD	(BC),A
6CD6 FF             RST	38
6CD7 3C             INC	A
6CD8 01 30 30       LD	BC,3030
6CDB 70             LD	(HL),B
- 
6CDC 03             INC	BC
6CDD 70             LD	(HL),B
6CDE 81             ADD	A,C
6CDF A8             XOR	B
6CE0 48             LD	C,B
6CE1 88             ADC	A,B
6CE2 42             LD	B,D
6CE3 70             LD	(HL),B
6CE4 01 88 20       LD	BC,2088
6CE7 58             LD	E,B
6CE8 43             LD	B,E
6CE9 95             SUB	L
6CEA 03             INC	BC
6CEB 04             INC	B
6CEC 16 96          LD	D,96
6CEE 2B             DEC	HL
6CEF 00             NOP
6CF0 9B             SBC	A,E
6CF1 8B             ADC	A,E
6CF2 EE FF          XOR	FF
- 
6CF4 FA 11 11       JP	M,1111
6CF7 00             NOP
6CF8 03             INC	BC
6CF9 05             DEC	B
6CFA FE 11          CP	11
6CFC 0D             DEC	C
6CFD 04             INC	B
6CFE 04             INC	B
6CFF FD 19          ADD	IY,DE
6D01 0C             INC	C
6D02 00             NOP
6D03 07             RLCA
6D04 FD 19          ADD	IY,DE
6D06 0B             DEC	BC
6D07 00             NOP
6D08 05             DEC	B
6D09 FD 19          ADD	IY,DE
6D0B 0A             LD	A,(BC)
6D0C 00             NOP
6D0D 03             INC	BC
- 
6D0E FC 19 09       CALL	M,0919
6D11 00             NOP
6D12 FF             RST	38
6D13 FF             RST	38
6D14 FD 0D          DEC	C
6D16 01 05 04       LD	BC,0405
6D19 FD 0D          DEC	C
6D1B 00             NOP
6D1C 00             NOP
6D1D 20 FB          JR	NZ,6D1A
6D1F 00             NOP
6D20 06 05          LD	B,05
6D22 FA 0D 12       JP	M,120D
6D25 00             NOP
6D26 02             LD	(BC),A
6D27 20 FE          JR	NZ,6D27
6D29 0D             DEC	C
6D2A 01 00 0A       LD	BC,0A00
6D2D FD 0D          DEC	C
6D2F 01 1E 02       LD	BC,021E
- 
6D32 FA 0D 05       JP	M,050D
6D35 1E 09          LD	E,09
6D37 02             LD	(BC),A
6D38 FA 0D 0D       JP	M,0D0D
6D3B 09             ADD	HL,BC
6D3C 05             DEC	B
6D3D 05             DEC	B
6D3E FD 00          NOP
6D40 12             LD	(DE),A
6D41 07             RLCA
6D42 02             LD	(BC),A
6D43 FA 04 0C       JP	M,0C04
6D46 00             NOP
6D47 02             LD	(BC),A
6D48 05             DEC	B
6D49 FD 50          LD	D,B
6D4B 0A             LD	A,(BC)
6D4C 01 06 FD       LD	BC,FD06
6D4F 06 05          LD	B,05
6D51 01 09 FB       LD	BC,FB09
- 
6D54 05             DEC	B
6D55 02             LD	(BC),A
6D56 05             DEC	B
6D57 FD 50          LD	D,B
6D59 05             DEC	B
6D5A 0E 04          LD	C,04
6D5C FD 50          LD	D,B
6D5E 05             DEC	B
6D5F 1B             DEC	DE
6D60 03             INC	BC
6D61 FC 69 06       CALL	M,0669
6D64 1D             DEC	E
6D65 FB             EI
6D66 05             DEC	B
6D67 12             LD	(DE),A
6D68 03             INC	BC
6D69 FB             EI
6D6A 08             EX	AF,AF'
6D6B 16 05          LD	D,05
6D6D FD 06 08       LD	B,08
- 
6D70 11 05 FA       LD	DE,FA05
6D73 04             INC	B
6D74 08             EX	AF,AF'
6D75 18 02          JR	6D79
6D77 03             INC	BC
6D78 FD 50          LD	D,B
6D7A 0D             DEC	C
6D7B 12             LD	(DE),A
6D7C 08             EX	AF,AF'
6D7D FA 04 0D       JP	M,0D04
6D80 1A             LD	A,(DE)
6D81 03             INC	BC
6D82 02             LD	(BC),A
6D83 FB             EI
6D84 0D             DEC	C
6D85 1C             INC	E
6D86 05             DEC	B
6D87 FC 1E 0E       CALL	M,0E1E
6D8A 18 FF          JR	6D8B
6D8C 3C             INC	A
- 
6D8D 80             ADD	A,B
6D8E 80             ADD	A,B
6D8F 70             LD	(HL),B
6D90 D0             RET	NC
6D91 04             INC	B
6D92 70             LD	(HL),B
6D93 85             ADD	A,L
6D94 58             LD	E,B
6D95 18 58          JR	6DEF
6D97 41             LD	B,C
6D98 54             LD	D,H
6D99 01 10 70       LD	BC,7010
6D9C D8             RET	C
6D9D 06 9B          LD	B,9B
6D9F 33             INC	SP
6DA0 E6 99          AND	99
6DA2 38 50          JR 	C,6DF4
6DA4 90             SUB	B
6DA5 98             SBC	A,B
6DA6 70             LD	(HL),B
- 
6DA7 18 8C          JR	6D35
6DA9 FF             RST	38
6DAA FD 0D          DEC	C
6DAC 00             NOP
6DAD 00             NOP
6DAE 28 FD          JR	Z,6DAD
6DB0 0D             DEC	C
6DB1 01 0C 04       LD	BC,040C
6DB4 FA 0D 05       JP	M,050D
6DB7 00             NOP
6DB8 08             EX	AF,AF'
6DB9 02             LD	(BC),A
6DBA FA 0D 0C       JP	M,0C0D
6DBD 00             NOP
6DBE 02             LD	(BC),A
6DBF 0E FA          LD	C,FA
6DC1 0D             DEC	C
6DC2 0B             DEC	BC
6DC3 0E 07          LD	C,07
6DC5 02             LD	(BC),A
- 
6DC6 FA 0D 12       JP	M,120D
6DC9 00             NOP
6DCA 02             LD	(BC),A
6DCB 20 FB          JR	NZ,6DC8
6DCD 12             LD	(DE),A
6DCE 0C             INC	C
6DCF 02             LD	(BC),A
6DD0 FE 04          CP	04
6DD2 04             INC	B
6DD3 1F             RRA
6DD4 0E FE          LD	C,FE
6DD6 71             LD	(HL),C
6DD7 0E 0A          LD	C,0A
6DD9 04             INC	B
6DDA FA 04 05       JP	M,0504
6DDD 09             ADD	HL,BC
6DDE 04             INC	B
6DDF 02             LD	(BC),A
6DE0 FA 04 04       JP	M,0404
6DE3 15             DEC	D
- 
6DE4 04             INC	B
6DE5 02             LD	(BC),A
6DE6 FD 50          LD	D,B
6DE8 05             DEC	B
6DE9 02             LD	(BC),A
6DEA 04             INC	B
6DEB FD 1D          DEC	E
6DED 08             EX	AF,AF'
6DEE 06 03          LD	B,03
6DF0 FD 50          LD	D,B
6DF2 05             DEC	B
6DF3 0B             DEC	BC
6DF4 02             LD	(BC),A
6DF5 FD 1D          DEC	E
6DF7 08             EX	AF,AF'
6DF8 11 04 FD       LD	DE,FD04
6DFB 50             LD	D,B
6DFC 04             INC	B
6DFD 17             RLA
6DFE 06 FB          LD	B,FB
- 
6E00 04             INC	B
6E01 1D             DEC	E
6E02 04             INC	B
6E03 FD 1D          DEC	E
6E05 08             EX	AF,AF'
6E06 1B             DEC	DE
6E07 04             INC	B
6E08 FC 69 09       CALL	M,0969
6E0B 1E FD          LD	E,FD
6E0D 50             LD	D,B
6E0E 0C             INC	C
6E0F 12             LD	(DE),A
6E10 0D             DEC	C
6E11 FD 1D          DEC	E
6E13 0F             RRCA
6E14 10 04          DJNZ	6E1A
6E16 F9             LD	SP,HL
6E17 10 10          DJNZ	6E29
6E19 F9             LD	SP,HL
6E1A 0A             LD	A,(BC)
- 
6E1B 17             RLA
6E1C F8             RET	M
6E1D 76             HALT
6E1E 0A             LD	A,(BC)
6E1F 1D             DEC	E
6E20 02             LD	(BC),A
6E21 02             LD	(BC),A
6E22 F9             LD	SP,HL
6E23 06 13          LD	B,13
6E25 F8             RET	M
6E26 72             LD	(HL),D
6E27 0A             LD	A,(BC)
6E28 17             RLA
6E29 02             LD	(BC),A
6E2A 02             LD	(BC),A
6E2B FF             RST	38
6E2C 48             LD	C,B
6E2D 82             ADD	A,D
6E2E 80             ADD	A,B
6E2F 90             SUB	B
- 
6E30 E8             RET	PE
6E31 43             LD	B,E
6E32 2C             INC	L
6E33 01 50 10       LD	BC,1050
6E36 60             LD	H,B
6E37 05             DEC	B
6E38 68             LD	L,B
6E39 01 70 10       LD	BC,1070
6E3C 48             LD	C,B
6E3D 02             LD	(BC),A
6E3E 98             SBC	A,B
6E3F 08             EX	AF,AF'
6E40 48             LD	C,B
6E41 44             LD	B,H
6E42 95             SUB	L
6E43 03             INC	BC
6E44 01 16 9B       LD	BC,9B16
6E47 4B             LD	C,E
6E48 EE FF          XOR	FF
6E4A FA 20 12       JP	M,1220
- 
6E4D 00             NOP
6E4E 02             LD	(BC),A
6E4F 1E FA          LD	E,FA
6E51 04             INC	B
6E52 10 00          DJNZ	6E54
6E54 02             LD	(BC),A
6E55 08             EX	AF,AF'
6E56 FA 0D 01       JP	M,010D
6E59 1E 13          LD	E,13
6E5B 02             LD	(BC),A
6E5C FD 0D          DEC	C
6E5E 00             NOP
6E5F 00             NOP
6E60 20 FA          JR	NZ,6E5C
6E62 0D             DEC	C
6E63 01 0E 05       LD	BC,050E ; LD	BC,SA_PARITY
6E66 03             INC	BC
6E67 FB             EI
6E68 00             NOP
6E69 0C             INC	C
- 
6E6A 05             DEC	B
6E6B FD 50          LD	D,B
6E6D 05             DEC	B
6E6E 08             EX	AF,AF'
6E6F 06 FA          LD	B,FA
6E71 0D             DEC	C
6E72 01 00 06       LD	BC,0600
6E75 02             LD	(BC),A
6E76 FA 04 08       JP	M,0804
6E79 00             NOP
6E7A 04             INC	B
6E7B 02             LD	(BC),A
6E7C FA 04 0A       JP	M,0A04
6E7F 02             LD	(BC),A
6E80 02             LD	(BC),A
6E81 03             INC	BC
6E82 FB             EI
6E83 05             DEC	B
6E84 02             LD	(BC),A
6E85 05             DEC	B
- 
6E86 FD 1D          DEC	E
6E88 05             DEC	B
6E89 04             INC	B
6E8A 02             LD	(BC),A
6E8B FD 1D          DEC	E
6E8D 0C             INC	C
6E8E 06 02          LD	B,02
6E90 FD 50          LD	D,B
6E92 06 13          LD	B,13
6E94 05             DEC	B
6E95 FD 1D          DEC	E
6E97 08             EX	AF,AF'
6E98 1B             DEC	DE
6E99 03             INC	BC
6E9A FA 04 0D       JP	M,0D04
6E9D 15             DEC	D
6E9E 02             LD	(BC),A
6E9F 07             RLCA
6EA0 F8             RET	M
6EA1 76             HALT
- 
6EA2 0B             DEC	BC
6EA3 18 02          JR	6EA7
6EA5 02             LD	(BC),A
6EA6 FF             RST	38
6EA7 88             ADC	A,B
6EA8 82             ADD	A,D
6EA9 30 08          JR	NC,6EB3
6EAB 50             LD	D,B
6EAC 07             RLCA
6EAD 99             SBC	A,C
6EAE 40             LD	B,B
6EAF 60             LD	H,B
6EB0 88             ADC	A,B
6EB1 9A             SBC	A,D
6EB2 2E 7F          LD	L,7F
6EB4 FF             RST	38
6EB5 FD 70 00       LD	(IY+00),B
6EB8 00             NOP
6EB9 21 FE 70       LD	HL,70FE
6EBC 01 1F 0B       LD	BC,0B1F
- 
6EBF FA 70 01       JP	M,0170
6EC2 0D             DEC	C
6EC3 0D             DEC	C
6EC4 02             LD	(BC),A
6EC5 FA 3C 05       JP	M,053C ; JP	M,SA_DELAY
6EC8 11 02 02       LD	DE,0202
6ECB FA 3C 05       JP	M,053C ; JP	M,SA_DELAY
6ECE 17             RLA
6ECF 02             LD	(BC),A
6ED0 03             INC	BC
6ED1 FA 3C 0A       JP	M,0A3C
6ED4 1A             LD	A,(DE)
6ED5 02             LD	(BC),A
6ED6 02             LD	(BC),A
6ED7 FC 3C 0B       CALL	M,0B3C
6EDA 19             ADD	HL,DE
6EDB FB             EI
6EDC 0B             DEC	BC
6EDD 17             RLA
6EDE 05             DEC	B
- 
6EDF FE 3C          CP	3C
6EE1 08             EX	AF,AF'
6EE2 16 08          LD	D,08
6EE4 FA 3C 10       JP	M,103C
6EE7 16 02          LD	D,02
6EE9 0A             LD	A,(BC)
6EEA FC 70 01       CALL	M,0170
6EED 18 FE          JR	6EED
6EEF 3C             INC	A
6EF0 03             INC	BC
6EF1 00             NOP
6EF2 0E FA          LD	C,FA
6EF4 20 12          JR	NZ,6F08
6EF6 00             NOP
6EF7 02             LD	(BC),A
6EF8 20 FD          JR	NZ,6EF7
6EFA 55             LD	D,L
6EFB 10 0B          DJNZ	6F08
6EFD 0B             DEC	BC
6EFE FD 50          LD	D,B
- 
6F00 0D             DEC	C
6F01 0F             RRCA
6F02 05             DEC	B
6F03 FD 55          LD	D,iY
6F05 08             EX	AF,AF'
6F06 01 05 FB       LD	BC,FB05
6F09 05             DEC	B
6F0A 0F             RRCA
6F0B 08             EX	AF,AF'
6F0C FB             EI
6F0D 0D             DEC	C
6F0E 14             INC	D
6F0F 03             INC	BC
6F10 FD 50          LD	D,B
6F12 10 06          DJNZ	6F1A
6F14 02             LD	(BC),A
6F15 FD 55          LD	D,iY
6F17 0F             RRCA
6F18 01 02 FD       LD	BC,FD02
6F1B 55             LD	D,L
- 
6F1C 0C             INC	C
6F1D 03             INC	BC
6F1E 05             DEC	B
6F1F FD 50          LD	D,B
6F21 09             ADD	HL,BC
6F22 0B             DEC	BC
6F23 02             LD	(BC),A
6F24 FB             EI
6F25 04             INC	B
6F26 01 04 FD       LD	BC,FD04
6F29 50             LD	D,B
6F2A 04             INC	B
6F2B 03             INC	BC
6F2C 07             RLCA
6F2D FC 69 0C       CALL	M,0C69
6F30 0C             INC	C
6F31 FD 50          LD	D,B
6F33 08             EX	AF,AF'
6F34 1D             DEC	E
6F35 02             LD	(BC),A
- 
6F36 FC 48 01       CALL	M,0148
6F39 03             INC	BC
6F3A FF             RST	38
6F3B 9B             SBC	A,E
6F3C 63             LD	H,E
6F3D 5E             LD	E,(HL)
6F3E 98             SBC	A,B
6F3F 60             LD	H,B
6F40 D0             RET	NC
6F41 3E 96          LD	A,96
6F43 13             INC	DE
6F44 00             NOP
6F45 95             SUB	L
6F46 03             INC	BC
6F47 02             LD	(BC),A
6F48 18 80          JR	6ECA
6F4A 82             ADD	A,D
6F4B A0             AND	B
6F4C 08             EX	AF,AF'
6F4D 58             LD	E,B
- 
6F4E 04             INC	B
6F4F 80             ADD	A,B
6F50 01 48 44       LD	BC,4448
6F53 70             LD	(HL),B
6F54 44             LD	B,H
6F55 FF             RST	38
6F56 FD 03          INC	BC
6F58 00             NOP
6F59 00             NOP
6F5A 20 FE          JR	NZ,6F5A
6F5C 03             INC	BC
6F5D 01 00 0B       LD	BC,0B00
6F60 FE 03          CP	03
6F62 01 1F 0D       LD	BC,0D1F
6F65 FE 39          CP	39
6F67 0D             DEC	C
6F68 00             NOP
6F69 07             RLCA
6F6A FA 39 0E       JP	M,0E39
6F6D 03             INC	BC
- 
6F6E 04             INC	B
6F6F 02             LD	(BC),A
6F70 FA 39 12       JP	M,1239
6F73 03             INC	BC
6F74 02             LD	(BC),A
6F75 1D             DEC	E
6F76 FA 0A 0E       JP	M,0E0A
6F79 0B             DEC	BC
6F7A 02             LD	(BC),A
6F7B 02             LD	(BC),A
6F7C FC 08 0E       CALL	M,0E08
6F7F 05             DEC	B
6F80 FD 7A          LD	A,D
6F82 11 05 0B       LD	DE,0B05
6F85 FA 0D 0F       JP	M,0F0D
6F88 10 03          DJNZ	6F8D
6F8A 02             LD	(BC),A
6F8B FA 0D 0E       JP	M,0E0D ; JP	M,CL_SCR_2
6F8E 16 04          LD	D,04
6F90 02             LD	(BC),A
- 
6F91 FB             EI
6F92 0E 18          LD	C,18
6F94 04             INC	B
6F95 FB             EI
6F96 0E 01          LD	C,01
6F98 06 FD          LD	B,FD
6F9A 7A             LD	A,D
6F9B 11 12 04       LD	DE,0412
6F9E FA 0A 0C       JP	M,0C0A ; JP	M,PO_MSG
6FA1 1C             INC	E
6FA2 02             LD	(BC),A
6FA3 02             LD	(BC),A
6FA4 FA 0A 05       JP	M,050A
6FA7 1C             INC	E
6FA8 02             LD	(BC),A
6FA9 02             LD	(BC),A
6FAA FA 0A 05       JP	M,050A
6FAD 0C             INC	C
6FAE 05             DEC	B
6FAF 02             LD	(BC),A
- 
6FB0 FD 08          EX	AF,AF'
6FB2 09             ADD	HL,BC
6FB3 0E 0A          LD	C,0A
6FB5 FD 08          EX	AF,AF'
6FB7 05             DEC	B
6FB8 14             INC	D
6FB9 04             INC	B
6FBA FD 08          EX	AF,AF'
6FBC 05             DEC	B
6FBD 03             INC	BC
6FBE 03             INC	BC
6FBF FD 08          EX	AF,AF'
6FC1 09             ADD	HL,BC
6FC2 08             EX	AF,AF'
6FC3 02             LD	(BC),A
6FC4 FC 48 01       CALL	M,0148
6FC7 04             INC	B
6FC8 F9             LD	SP,HL
6FC9 07             RLCA
6FCA 0E FC          LD	C,FC
- 
6FCC 48             LD	C,B
6FCD 01 15 FF       LD	BC,FF15
6FD0 74             LD	(HL),H
6FD1 85             ADD	A,L
6FD2 C8             RET	Z
6FD3 10 58          DJNZ	702D
6FD5 06 3C          LD	B,3C
6FD7 81             ADD	A,C
6FD8 38 80          JR 	C,6F5A
6FDA B0             OR	B
6FDB 03             INC	BC
6FDC 97             SUB	A
6FDD 70             LD	(HL),B
6FDE 80             ADD	A,B
6FDF 98             SBC	A,B
6FE0 08             EX	AF,AF'
6FE1 60             LD	H,B
6FE2 63             LD	H,E
6FE3 96             SUB	(HL)
6FE4 63             LD	H,E
- 
6FE5 00             NOP
6FE6 99             SBC	A,C
6FE7 30 28          JR	NC,7011
6FE9 70             LD	(HL),B
6FEA FF             RST	38
6FEB FE 7B          CP	7B
6FED 00             NOP
6FEE 00             NOP
6FEF 09             ADD	HL,BC
6FF0 FA 7B 09       JP	M,097B
6FF3 00             NOP
6FF4 02             LD	(BC),A
6FF5 06 FA          LD	B,FA
6FF7 7B             LD	A,E
6FF8 0B             DEC	BC
6FF9 04             INC	B
6FFA 02             LD	(BC),A
6FFB 02             LD	(BC),A
6FFC FB             EI
6FFD 00             NOP
- 
6FFE 01 09 FA       LD	BC,FA09
7001 7B             LD	A,E
7002 01 03 03       LD	BC,0303
7005 02             LD	(BC),A
7006 FD 7B          LD	A,E
7008 00             NOP
7009 03             INC	BC
700A 1D             DEC	E
700B FE 7B          CP	7B
700D 01 1F 13       LD	BC,131F
7010 FD 7B          LD	A,E
7012 13             INC	DE
7013 00             NOP
7014 1F             RRA
7015 FA 7B 10       JP	M,107B
7018 00             NOP
7019 03             INC	BC
701A 02             LD	(BC),A
701B FB             EI
701C 10 02          DJNZ	7020
- 
701E 03             INC	BC
701F FA 7B 11       JP	M,117B
7022 0B             DEC	BC
7023 02             LD	(BC),A
7024 02             LD	(BC),A
7025 FA 3C 06       JP	M,063C
7028 16 02          LD	D,02
702A 02             LD	(BC),A
702B FA 3C 08       JP	M,083C
702E 14             INC	D
702F 03             INC	BC
7030 04             INC	B
7031 FB             EI
7032 0B             DEC	BC
7033 18 05          JR	703A
7035 FA 3C 0B       JP	M,0B3C
7038 1A             LD	A,(DE)
7039 03             INC	BC
703A 03             INC	BC
703B FA 7B 0E       JP	M,0E7B
- 
703E 1D             DEC	E
703F 02             LD	(BC),A
7040 02             LD	(BC),A
7041 FD 08          EX	AF,AF'
7043 10 15          DJNZ	705A
7045 06 FD          LD	B,FD
7047 3C             INC	A
7048 0C             INC	C
7049 0B             DEC	BC
704A 02             LD	(BC),A
704B 00             NOP
704C 00             NOP
704D 00             NOP
704E 00             NOP
704F 00             NOP
7050 00             NOP
7051 00             NOP
7052 00             NOP
7053 00             NOP
7054 00             NOP
- 
7055 00             NOP
7056 00             NOP
7057 00             NOP
7058 00             NOP
7059 00             NOP
705A 00             NOP
705B 00             NOP
705C 00             NOP
705D 00             NOP
705E 00             NOP
705F 00             NOP
7060 00             NOP
7061 00             NOP
7062 00             NOP
7063 00             NOP
7064 00             NOP
7065 00             NOP
7066 00             NOP
7067 00             NOP
7068 00             NOP
- 
7069 00             NOP
706A 00             NOP
706B 00             NOP
706C 00             NOP
706D 00             NOP
706E 00             NOP
706F 00             NOP
7070 00             NOP
7071 00             NOP
7072 00             NOP
7073 00             NOP
7074 00             NOP
7075 00             NOP
7076 00             NOP
7077 00             NOP
7078 00             NOP
7079 00             NOP
707A 00             NOP
707B 00             NOP
707C 00             NOP
- 
707D 00             NOP
707E 00             NOP
707F 00             NOP
7080 2F             CPL
7081 BD             CP	L
7082 0C             INC	C
7083 97             SUB	A
7084 F6 88          OR	88
7086 FB             EI
7087 0C             INC	C
7088 34             INC	(HL)
7089 D4 17 99       CALL	NC,9917
708C EA 5E F5       JP	PE,F55E
708F 44             LD	B,H
7090 BC             CP	H
7091 15             DEC	D
7092 82             ADD	A,D
7093 EE 4A          XOR	4A
7095 A1             AND	C
7096 DC 5E B8       CALL	C,B85E
- 
7099 12             LD	(DE),A
709A 90             SUB	B
709B 10 8B          DJNZ	7028
709D 08             EX	AF,AF'
709E 80             ADD	A,B
709F F9             LD	SP,HL
70A0 62             LD	H,D
70A1 A7             AND	A
70A2 DD 49          LD	C,C
70A4 DA 78 D0       JP	C,D078
70A7 21 92 33       LD	HL,3392
70AA C7             RST	00
70AB 44             LD	B,H
70AC 96             SUB	(HL)
70AD 0E 6E          LD	C,6E
70AF D8             RET	C
70B0 36 91          LD	(HL),91
70B2 32 A5 3E       LD	(3EA5),A
70B5 D0             RET	NC
70B6 61             LD	H,C
- 
70B7 DD 58          LD	E,B
70B9 DA 21 B7       JP	C,B721
70BC 3E 5E          LD	A,5E
70BE F4 94 FF       CALL	P,FF94
70C1 A0             AND	B
70C2 35             DEC	(HL)
70C3 CB 53          BIT	2,E
70C5 E5             PUSH	HL
70C6 92             SUB	D
70C7 1D             DEC	E
70C8 9D             SBC	A,L
70C9 2B             DEC	HL
70CA 82             ADD	A,D
70CB 02             LD	(BC),A
70CC 9F             SBC	A,A
70CD 33             INC	SP
70CE E3             EX	(SP),HL
70CF 45             LD	B,L
70D0 A1             AND	C
70D1 1A             LD	A,(DE)
- 
70D2 AB             XOR	E
70D3 03             INC	BC
70D4 89             ADC	A,C
70D5 2A CE 49       LD	HL,(49CE)
70D8 62             LD	H,D
70D9 75             LD	(HL),L
70DA 74             LD	(HL),H
70DB 20 65          JR	NZ,7142
70DD 76             HALT
70DE 65             LD	H,L
70DF 72             LD	(HL),D
70E0 79             LD	A,C
70E1 62             LD	H,D
70E2 6F             LD	L,A
70E3 64             LD	H,H
70E4 79             LD	A,C
70E5 20 6C          JR	NZ,7153
70E7 69             LD	L,C
70E8 6B             LD	L,E
70E9 65             LD	H,L
- 
70EA 73             LD	(HL),E
70EB 20 74          JR	NZ,7161
70ED 6F             LD	L,A
70EE 20 61          JR	NZ,7151
70F0 72             LD	(HL),D
70F1 72             LD	(HL),D
70F2 69             LD	L,C
70F3 76             HALT
70F4 65             LD	H,L
70F5 20 66          JR	NZ,715D
70F7 61             LD	H,C
70F8 73             LD	(HL),E
70F9 68             LD	L,B
70FA 69             LD	L,C
70FB 6F             LD	L,A
70FC 6E             LD	L,(HL)
70FD 61             LD	H,C
70FE 62             LD	H,D
70FF 6C             LD	L,H
7100 00             NOP
- 
7101 00             NOP
7102 00             NOP
7103 00             NOP
7104 00             NOP
7105 00             NOP
7106 00             NOP
7107 00             NOP
7108 00             NOP
7109 00             NOP
710A 00             NOP
710B FF             RST	38
710C FF             RST	38
710D FF             RST	38
710E FF             RST	38
710F FF             RST	38
7110 FF             RST	38
7111 FF             RST	38
7112 FF             RST	38
7113 FF             RST	38
7114 FF             RST	38
- 
7115 FF             RST	38
7116 FF             RST	38
7117 FF             RST	38
7118 FF             RST	38
7119 FF             RST	38
711A FF             RST	38
711B FF             RST	38
711C FF             RST	38
711D FF             RST	38
711E FF             RST	38
711F FF             RST	38
7120 00             NOP
7121 00             NOP
7122 00             NOP
7123 00             NOP
7124 00             NOP
7125 00             NOP
7126 00             NOP
7127 00             NOP
7128 00             NOP
- 
7129 00             NOP
712A 00             NOP
712B 00             NOP
712C 00             NOP
712D FF             RST	38
712E FF             RST	38
712F FF             RST	38
7130 FF             RST	38
7131 FF             RST	38
7132 FF             RST	38
7133 FF             RST	38
7134 FF             RST	38
7135 FF             RST	38
7136 FF             RST	38
7137 FF             RST	38
7138 FF             RST	38
7139 FF             RST	38
713A FF             RST	38
713B FF             RST	38
713C FF             RST	38
- 
713D FF             RST	38
713E FF             RST	38
713F FF             RST	38
7140 00             NOP
7141 00             NOP
7142 00             NOP
7143 00             NOP
7144 00             NOP
7145 00             NOP
7146 00             NOP
7147 00             NOP
7148 00             NOP
7149 00             NOP
714A 00             NOP
714B 00             NOP
714C 00             NOP
714D 00             NOP
714E 00             NOP
714F 00             NOP
7150 00             NOP
- 
7151 00             NOP
7152 00             NOP
7153 00             NOP
7154 00             NOP
7155 00             NOP
7156 00             NOP
7157 00             NOP
7158 00             NOP
7159 00             NOP
715A 00             NOP
715B 00             NOP
715C 00             NOP
715D 00             NOP
715E 00             NOP
715F 00             NOP
7160 00             NOP
7161 00             NOP
7162 00             NOP
7163 00             NOP
7164 00             NOP
- 
7165 00             NOP
7166 00             NOP
7167 00             NOP
7168 00             NOP
7169 00             NOP
716A 00             NOP
716B 00             NOP
716C 00             NOP
716D 00             NOP
716E 00             NOP
716F 00             NOP
7170 00             NOP
7171 00             NOP
7172 00             NOP
7173 00             NOP
7174 00             NOP
7175 00             NOP
7176 00             NOP
7177 00             NOP
7178 00             NOP
- 
7179 00             NOP
717A 00             NOP
717B 00             NOP
717C 00             NOP
717D 00             NOP
717E 00             NOP
717F 00             NOP
7180 C1             POP	BC
7181 C1             POP	BC
7182 C2 C2 C2       JP	NZ,C2C2
7185 C3 C3 C4       JP	C4C3
7188 C4 C6 C7       CALL	NZ,C7C6
718B C7             RST	00
718C C7             RST	00
718D C8             RET	Z
718E C8             RET	Z
718F C9             RET
7190 C9             RET
7191 CA CA CA       JP	Z,CACA
7194 CB CB          SET	1,E
- 
7196 CB CC          SET	1,H
7198 CC CD CD       CALL	Z,CDCD
719B CE CE          ADC	A,CE
719D CF             RST	08
719E CF             RST	08
719F CF             RST	08
71A0 D0             RET	NC
71A1 D0             RET	NC
71A2 D0             RET	NC
71A3 D1             POP	DE
71A4 D1             POP	DE
71A5 D2 D2 D3       JP	NC,D3D2
71A8 D3 D4          OUT	(D4),A
71AA D4 D5 D5       CALL	NC,D5D5
71AD D6 D6          SUB	D6
71AF D6 D7          SUB	D7
71B1 D7             RST	10
71B2 D8             RET	C
71B3 D8             RET	C
71B4 D9             EXX
- 
71B5 D9             EXX
71B6 DA DA DB       JP	C,DBDA
71B9 DB DC          IN A,(DC)
71BB DC DD DD       CALL	C,DDDD
71BE DD DE DE       SBC	A,DE
71C1 DF             RST	18
71C2 E0             RET	PO
71C3 E0             RET	PO
71C4 E1             POP	HL
71C5 E1             POP	HL
71C6 E2 E3 E3       JP	PO,E3E3
71C9 E4 E4 E5       CALL	PO,E5E4
71CC E5             PUSH	HL
71CD E6 E6          AND	E6
71CF E7             RST	20
71D0 E7             RST	20
71D1 E8             RET	PE
71D2 E8             RET	PE
71D3 E9             JP	(HL)
71D4 E9             JP	(HL)
- 
71D5 EA EA EB       JP	PE,EBEA
71D8 6D             LD	L,L
71D9 75             LD	(HL),L
71DA 73             LD	(HL),E
71DB 69             LD	L,C
71DC 63             LD	H,E
71DD 20 73          JR	NZ,7252
71DF 6F             LD	L,A
71E0 20 69          JR	NZ,724B
71E2 66             LD	H,(HL)
71E3 20 79          JR	NZ,725E
71E5 6F             LD	L,A
71E6 75             LD	(HL),L
71E7 20 68          JR	NZ,7251
71E9 61             LD	H,C
71EA 76             HALT
71EB 65             LD	H,L
71EC 20 61          JR	NZ,724F
71EE 6E             LD	L,(HL)
71EF 79             LD	A,C
- 
71F0 20 73          JR	NZ,7265
71F2 6F             LD	L,A
71F3 6E             LD	L,(HL)
71F4 67             LD	H,A
71F5 20 72          JR	NZ,7269
71F7 65             LD	H,L
71F8 71             LD	(HL),C
71F9 75             LD	(HL),L
71FA 65             LD	H,L
71FB 73             LD	(HL),E
71FC 74             LD	(HL),H
71FD 73             LD	(HL),E
71FE 20 6C          JR	NZ,726C
7200 00             NOP
7201 00             NOP
7202 00             NOP
7203 00             NOP
7204 00             NOP
7205 00             NOP
7206 00             NOP
- 
7207 00             NOP
7208 00             NOP
7209 00             NOP
720A 00             NOP
720B FF             RST	38
720C FF             RST	38
720D FF             RST	38
720E FF             RST	38
720F FF             RST	38
7210 FF             RST	38
7211 FF             RST	38
7212 FF             RST	38
7213 FF             RST	38
7214 FF             RST	38
7215 FF             RST	38
7216 FF             RST	38
7217 FF             RST	38
7218 FF             RST	38
7219 FF             RST	38
721A FF             RST	38
- 
721B FF             RST	38
721C FF             RST	38
721D FF             RST	38
721E FF             RST	38
721F FF             RST	38
7220 00             NOP
7221 00             NOP
7222 00             NOP
7223 00             NOP
7224 00             NOP
7225 00             NOP
7226 00             NOP
7227 00             NOP
7228 00             NOP
7229 00             NOP
722A 00             NOP
722B 00             NOP
722C 00             NOP
722D FF             RST	38
722E FF             RST	38
- 
722F FF             RST	38
7230 FF             RST	38
7231 FF             RST	38
7232 FF             RST	38
7233 FF             RST	38
7234 FF             RST	38
7235 FF             RST	38
7236 FF             RST	38
7237 FF             RST	38
7238 FF             RST	38
7239 FF             RST	38
723A FF             RST	38
723B FF             RST	38
723C FF             RST	38
723D FF             RST	38
723E FF             RST	38
723F FF             RST	38
7240 00             NOP
7241 00             NOP
7242 00             NOP
- 
7243 00             NOP
7244 00             NOP
7245 00             NOP
7246 00             NOP
7247 00             NOP
7248 00             NOP
7249 00             NOP
724A 00             NOP
724B 00             NOP
724C 00             NOP
724D 00             NOP
724E 00             NOP
724F 00             NOP
7250 00             NOP
7251 00             NOP
7252 00             NOP
7253 00             NOP
7254 00             NOP
7255 00             NOP
7256 00             NOP
- 
7257 00             NOP
7258 00             NOP
7259 00             NOP
725A 00             NOP
725B 00             NOP
725C 00             NOP
725D 00             NOP
725E 00             NOP
725F 00             NOP
7260 00             NOP
7261 00             NOP
7262 00             NOP
7263 00             NOP
7264 00             NOP
7265 00             NOP
7266 00             NOP
7267 00             NOP
7268 00             NOP
7269 00             NOP
726A 00             NOP
- 
726B 00             NOP
726C 00             NOP
726D 00             NOP
726E 00             NOP
726F 00             NOP
7270 00             NOP
7271 00             NOP
7272 00             NOP
7273 00             NOP
7274 00             NOP
7275 00             NOP
7276 00             NOP
7277 00             NOP
7278 00             NOP
7279 00             NOP
727A 00             NOP
727B 00             NOP
727C 00             NOP
727D 00             NOP
727E 00             NOP
- 
727F 00             NOP
7280 00             NOP
7281 00             NOP
7282 00             NOP
7283 00             NOP
7284 00             NOP
7285 00             NOP
7286 00             NOP
7287 00             NOP
7288 00             NOP
7289 00             NOP
728A 00             NOP
728B 00             NOP
728C 00             NOP
728D 00             NOP
728E 00             NOP
728F 00             NOP
7290 00             NOP
7291 00             NOP
7292 00             NOP
- 
7293 00             NOP
7294 00             NOP
7295 00             NOP
7296 00             NOP
7297 00             NOP
7298 00             NOP
7299 00             NOP
729A 00             NOP
729B 00             NOP
729C 00             NOP
729D 00             NOP
729E 00             NOP
729F 00             NOP
72A0 00             NOP
72A1 00             NOP
72A2 00             NOP
72A3 00             NOP
72A4 00             NOP
72A5 00             NOP
72A6 00             NOP
- 
72A7 00             NOP
72A8 38 00          JR 	C,72AA
72AA FF             RST	38
72AB C3 F0 3F       JP	3FF0
72AE 1E 7B          LD	E,7B
72B0 FF             RST	38
72B1 1F             RRA
72B2 C7             RST	00
72B3 F8             RET	M
72B4 00             NOP
72B5 FE 00          CP	00
72B7 FF             RST	38
72B8 CF             RST	08
72B9 FC FF DE       CALL	M,DEFF
72BC 7B             LD	A,E
72BD FF             RST	38
72BE 1F             RRA
72BF C7             RST	00
72C0 FC 01 FF       CALL	M,FF01
72C3 00             NOP
- 
72C4 F8             RET	M
72C5 0F             RRCA
72C6 3C             INC	A
72C7 F3             DI
72C8 DE 7B          SBC	A,7B
72CA C0             RET	NZ
72CB 1F             RRA
72CC C7             RST	00
72CD FE 71          CP	71
72CF 75             LD	(HL),L
72D0 69             LD	L,C
72D1 63             LD	H,E
72D2 6B             LD	L,E
72D3 6C             LD	L,H
72D4 79             LD	A,C
72D5 20 61          JR	NZ,7338
72D7 73             LD	(HL),E
72D8 20 69          JR	NZ,7343
72DA 74             LD	(HL),H
72DB 27             DAA
- 
72DC 73             LD	(HL),E
72DD 20 71          JR	NZ,7350
72DF 75             LD	(HL),L
72E0 69             LD	L,C
72E1 74             LD	(HL),H
72E2 65             LD	H,L
72E3 20 73          JR	NZ,7358
72E5 74             LD	(HL),H
72E6 72             LD	(HL),D
72E7 6F             LD	L,A
72E8 6E             LD	L,(HL)
72E9 67             LD	H,A
72EA 20 61          JR	NZ,734D
72EC 6E             LD	L,(HL)
72ED 64             LD	H,H
72EE 2E 2E          LD	L,2E
72F0 2E 20          LD	L,20
72F2 6F             LD	L,A
72F3 68             LD	L,B
72F4 2C             INC	L
- 
72F5 20 79          JR	NZ,7370
72F7 6F             LD	L,A
72F8 75             LD	(HL),L
72F9 20 65          JR	NZ,7360
72FB 6E             LD	L,(HL)
72FC 6A             LD	L,D
72FD 6F             LD	L,A
72FE 79             LD	A,C
72FF 65             LD	H,L
7300 00             NOP
7301 00             NOP
7302 00             NOP
7303 00             NOP
7304 00             NOP
7305 00             NOP
7306 00             NOP
7307 00             NOP
7308 00             NOP
7309 00             NOP
730A 00             NOP
- 
730B FF             RST	38
730C FF             RST	38
730D FF             RST	38
730E FF             RST	38
730F FF             RST	38
7310 FF             RST	38
7311 FF             RST	38
7312 FF             RST	38
7313 FF             RST	38
7314 FF             RST	38
7315 FF             RST	38
7316 FF             RST	38
7317 FF             RST	38
7318 FF             RST	38
7319 FF             RST	38
731A FF             RST	38
731B FF             RST	38
731C FF             RST	38
731D FF             RST	38
731E FF             RST	38
- 
731F FF             RST	38
7320 00             NOP
7321 00             NOP
7322 00             NOP
7323 00             NOP
7324 00             NOP
7325 00             NOP
7326 00             NOP
7327 00             NOP
7328 00             NOP
7329 00             NOP
732A 00             NOP
732B 00             NOP
732C 00             NOP
732D FF             RST	38
732E FF             RST	38
732F FF             RST	38
7330 FF             RST	38
7331 FF             RST	38
7332 FF             RST	38
- 
7333 FF             RST	38
7334 FF             RST	38
7335 FF             RST	38
7336 FF             RST	38
7337 FF             RST	38
7338 FF             RST	38
7339 FF             RST	38
733A FF             RST	38
733B FF             RST	38
733C FF             RST	38
733D FF             RST	38
733E FF             RST	38
733F FF             RST	38
7340 00             NOP
7341 00             NOP
7342 00             NOP
7343 00             NOP
7344 00             NOP
7345 00             NOP
7346 00             NOP
- 
7347 00             NOP
7348 00             NOP
7349 00             NOP
734A 00             NOP
734B 00             NOP
734C 00             NOP
734D 00             NOP
734E 00             NOP
734F 00             NOP
7350 00             NOP
7351 00             NOP
7352 00             NOP
7353 00             NOP
7354 00             NOP
7355 00             NOP
7356 00             NOP
7357 00             NOP
7358 00             NOP
7359 00             NOP
735A 00             NOP
- 
735B 00             NOP
735C 00             NOP
735D 00             NOP
735E 00             NOP
735F 00             NOP
7360 00             NOP
7361 00             NOP
7362 00             NOP
7363 00             NOP
7364 00             NOP
7365 00             NOP
7366 00             NOP
7367 00             NOP
7368 00             NOP
7369 00             NOP
736A 00             NOP
736B 00             NOP
736C 00             NOP
736D 00             NOP
736E 00             NOP
- 
736F 00             NOP
7370 00             NOP
7371 00             NOP
7372 00             NOP
7373 00             NOP
7374 00             NOP
7375 00             NOP
7376 00             NOP
7377 00             NOP
7378 00             NOP
7379 00             NOP
737A 00             NOP
737B 00             NOP
737C 00             NOP
737D 00             NOP
737E 00             NOP
737F 00             NOP
7380 03             INC	BC
7381 FF             RST	38
7382 80             ADD	A,B
- 
7383 F8             RET	M
7384 1E 01          LD	E,01
7386 E0             RET	PO
7387 1E 7B          LD	E,7B
7389 C0             RET	NZ
738A 1F             RRA
738B C7             RST	00
738C 9E             SBC	A,(HL)
738D 03             INC	BC
738E 39             ADD	HL,SP
738F 84             ADD	A,H
7390 FF             RST	38
7391 1E 01          LD	E,01
7393 E0             RET	PO
7394 1E 7B          LD	E,7B
7396 FC 3D E7       CALL	M,E73D
7399 8F             ADC	A,A
739A 06 D6          LD	B,D6
739C D6 FF          SUB	FF
739E 1E FD          LD	E,FD
- 
73A0 EF             RST	28
73A1 DF             RST	18
73A2 FB             EI
73A3 FC 3D E7       CALL	M,E73D
73A6 8F             ADC	A,A
73A7 06 92          LD	B,92
73A9 DE F8          SBC	A,F8
73AB 1E FD          LD	E,FD
73AD EF             RST	28
73AE DF             RST	18
73AF FB             EI
73B0 C0             RET	NZ
73B1 3D             DEC	A
73B2 E7             RST	20
73B3 8F             ADC	A,A
73B4 0E 10          LD	C,10
73B6 EC F8 1E       CALL	PE,1EF8
73B9 3D             DEC	A
73BA E3             EX	(SP),HL
73BB DE 7B          SBC	A,7B
- 
73BD C0             RET	NZ
73BE 3D             DEC	A
73BF E7             RST	20
73C0 8F             ADC	A,A
73C1 0E 10          LD	C,10
73C3 E8             RET	PE
73C4 F8             RET	M
73C5 1E 3D          LD	E,3D
73C7 E3             EX	(SP),HL
73C8 DE 7B          SBC	A,7B
73CA C0             RET	NZ
73CB 7F             LD	A,A
73CC F7             RST	30
73CD 9E             SBC	A,(HL)
73CE 6E             LD	L,(HL)
73CF 64             LD	H,H
73D0 20 6F          JR	NZ,7441
73D2 66             LD	H,(HL)
73D3 20 61          JR	NZ,7436
73D5 20 64          JR	NZ,743B
- 
73D7 72             LD	(HL),D
73D8 6F             LD	L,A
73D9 70             LD	(HL),B
73DA 20 6F          JR	NZ,744B
73DC 72             LD	(HL),D
73DD 20 74          JR	NZ,7453
73DF 77             LD	(HL),A
73E0 6F             LD	L,A
73E1 2E 20          LD	L,20
73E3 20 4D          JR	NZ,7432
73E5 6F             LD	L,A
73E6 73             LD	(HL),E
73E7 74             LD	(HL),H
73E8 20 70          JR	NZ,745A
73EA 65             LD	H,L
73EB 6F             LD	L,A
73EC 70             LD	(HL),B
73ED 6C             LD	L,H
73EE 65             LD	H,L
73EF 20 74          JR	NZ,7465
- 
73F1 65             LD	H,L
73F2 6E             LD	L,(HL)
73F3 64             LD	H,H
73F4 20 74          JR	NZ,746A
73F6 6F             LD	L,A
73F7 20 70          JR	NZ,7469
73F9 61             LD	H,C
73FA 73             LD	(HL),E
73FB 73             LD	(HL),E
73FC 20 6F          JR	NZ,746D
73FE 75             LD	(HL),L
73FF 74             LD	(HL),H
7400 00             NOP
7401 00             NOP
7402 00             NOP
7403 00             NOP
7404 00             NOP
7405 00             NOP
7406 00             NOP
7407 00             NOP
- 
7408 00             NOP
7409 00             NOP
740A 00             NOP
740B FF             RST	38
740C FF             RST	38
740D FF             RST	38
740E FF             RST	38
740F FF             RST	38
7410 FF             RST	38
7411 FF             RST	38
7412 FF             RST	38
7413 FF             RST	38
7414 FF             RST	38
7415 FF             RST	38
7416 FF             RST	38
7417 FF             RST	38
7418 FF             RST	38
7419 FF             RST	38
741A FF             RST	38
741B FF             RST	38
- 
741C FF             RST	38
741D FF             RST	38
741E FF             RST	38
741F FF             RST	38
7420 00             NOP
7421 00             NOP
7422 00             NOP
7423 00             NOP
7424 00             NOP
7425 00             NOP
7426 00             NOP
7427 00             NOP
7428 00             NOP
7429 00             NOP
742A 00             NOP
742B 00             NOP
742C 00             NOP
742D FF             RST	38
742E FF             RST	38
742F FF             RST	38
- 
7430 FF             RST	38
7431 FF             RST	38
7432 FF             RST	38
7433 FF             RST	38
7434 FF             RST	38
7435 FF             RST	38
7436 FF             RST	38
7437 FF             RST	38
7438 FF             RST	38
7439 FF             RST	38
743A FF             RST	38
743B FF             RST	38
743C FF             RST	38
743D FF             RST	38
743E FF             RST	38
743F FF             RST	38
7440 00             NOP
7441 00             NOP
7442 00             NOP
7443 00             NOP
- 
7444 00             NOP
7445 00             NOP
7446 00             NOP
7447 00             NOP
7448 00             NOP
7449 00             NOP
744A 00             NOP
744B 00             NOP
744C 00             NOP
744D 00             NOP
744E 00             NOP
744F 00             NOP
7450 00             NOP
7451 00             NOP
7452 00             NOP
7453 00             NOP
7454 00             NOP
7455 00             NOP
7456 00             NOP
7457 00             NOP
- 
7458 00             NOP
7459 00             NOP
745A 00             NOP
745B 00             NOP
745C 00             NOP
745D 00             NOP
745E 00             NOP
745F 00             NOP
7460 00             NOP
7461 00             NOP
7462 00             NOP
7463 00             NOP
7464 00             NOP
7465 00             NOP
7466 00             NOP
7467 00             NOP
7468 00             NOP
7469 00             NOP
746A 00             NOP
746B 00             NOP
- 
746C 00             NOP
746D 00             NOP
746E 00             NOP
746F 00             NOP
7470 00             NOP
7471 00             NOP
7472 00             NOP
7473 00             NOP
7474 00             NOP
7475 00             NOP
7476 00             NOP
7477 00             NOP
7478 00             NOP
7479 00             NOP
747A 00             NOP
747B 00             NOP
747C 00             NOP
747D 00             NOP
747E 00             NOP
747F 00             NOP
- 
7480 0F             RRCA
7481 39             ADD	HL,SP
7482 E0             RET	PO
7483 F8             RET	M
7484 0F             RRCA
7485 3C             INC	A
7486 F3             DI
7487 DE 7B          SBC	A,7B
7489 C0             RET	NZ
748A 7F             LD	A,A
748B F7             RST	30
748C FE 0F          CP	0F
748E EF             RST	28
748F E0             RET	PO
7490 FF             RST	38
7491 CF             RST	08
7492 FC FF DE       CALL	M,DEFF
7495 7B             LD	A,E
7496 FF             RST	38
7497 78             LD	A,B
- 
7498 F7             RST	30
7499 FC 2E FE       CALL	M,FE2E
749C E0             RET	PO
749D FF             RST	38
749E C3 FC 3F       JP	3FFC
74A1 DE 7B          SBC	A,7B
74A3 FF             RST	38
74A4 78             LD	A,B
74A5 F7             RST	30
74A6 F8             RET	M
74A7 67             LD	H,A
74A8 01 C0 00       LD	BC,00C0
74AB 00             NOP
74AC 00             NOP
74AD 00             NOP
74AE 00             NOP
74AF 00             NOP
74B0 00             NOP
74B1 00             NOP
74B2 00             NOP
- 
74B3 00             NOP
74B4 57             LD	D,A
74B5 C7             RST	00
74B6 C0             RET	NZ
74B7 00             NOP
74B8 00             NOP
74B9 00             NOP
74BA 00             NOP
74BB 00             NOP
74BC 00             NOP
74BD 00             NOP
74BE 00             NOP
74BF 00             NOP
74C0 00             NOP
74C1 43             LD	B,E
74C2 FF             RST	38
74C3 80             ADD	A,B
74C4 1C             INC	E
74C5 38 7C          JR 	C,7543
74C7 F0             RET	P
- 
74C8 7E             LD	A,(HL)
74C9 70             LD	(HL),B
74CA 3F             CCF
74CB 38 4C          JR 	C,7519
74CD 4C             LD	C,H
74CE 70             LD	(HL),B
74CF 20 74          JR	NZ,7545
74D1 68             LD	L,B
74D2 65             LD	H,L
74D3 20 6D          JR	NZ,7542
74D5 65             LD	H,L
74D6 73             LD	(HL),E
74D7 73             LD	(HL),E
74D8 20 62          JR	NZ,753C
74DA 6C             LD	L,H
74DB 61             LD	H,C
74DC 68             LD	L,B
74DD 20 62          JR	NZ,7541
74DF 6C             LD	L,H
74E0 61             LD	H,C
- 
74E1 68             LD	L,B
74E2 2E 20          LD	L,20
74E4 20 42          JR	NZ,7528
74E6 6C             LD	L,H
74E7 61             LD	H,C
74E8 68             LD	L,B
74E9 20 62          JR	NZ,754D
74EB 6C             LD	L,H
74EC 61             LD	H,C
74ED 68             LD	L,B
74EE 20 6C          JR	NZ,755C
74F0 69             LD	L,C
74F1 65             LD	H,L
74F2 20 64          JR	NZ,7558
74F4 6F             LD	L,A
74F5 77             LD	(HL),A
74F6 6E             LD	L,(HL)
74F7 20 74          JR	NZ,756D
74F9 68             LD	L,B
74FA 65             LD	H,L
- 
74FB 72             LD	(HL),D
74FC 65             LD	H,L
74FD 20 61          JR	NZ,7560
74FF 6E             LD	L,(HL)
7500 00             NOP
7501 00             NOP
7502 00             NOP
7503 00             NOP
7504 00             NOP
7505 00             NOP
7506 00             NOP
7507 00             NOP
7508 00             NOP
7509 00             NOP
750A 00             NOP
750B FF             RST	38
750C FF             RST	38
750D FF             RST	38
750E FF             RST	38
750F FF             RST	38
- 
7510 FF             RST	38
7511 FF             RST	38
7512 FF             RST	38
7513 FF             RST	38
7514 FF             RST	38
7515 FF             RST	38
7516 FF             RST	38
7517 FF             RST	38
7518 FF             RST	38
7519 FF             RST	38
751A FF             RST	38
751B FF             RST	38
751C FF             RST	38
751D FF             RST	38
751E FF             RST	38
751F FF             RST	38
7520 00             NOP
7521 00             NOP
7522 00             NOP
7523 00             NOP
- 
7524 00             NOP
7525 00             NOP
7526 00             NOP
7527 00             NOP
7528 00             NOP
7529 00             NOP
752A 00             NOP
752B 00             NOP
752C 00             NOP
752D FF             RST	38
752E FF             RST	38
752F FF             RST	38
7530 FF             RST	38
7531 FF             RST	38
7532 FF             RST	38
7533 FF             RST	38
7534 FF             RST	38
7535 FF             RST	38
7536 FF             RST	38
7537 FF             RST	38
- 
7538 FF             RST	38
7539 FF             RST	38
753A FF             RST	38
753B FF             RST	38
753C FF             RST	38
753D FF             RST	38
753E FF             RST	38
753F FF             RST	38
7540 00             NOP
7541 00             NOP
7542 00             NOP
7543 00             NOP
7544 00             NOP
7545 00             NOP
7546 00             NOP
7547 00             NOP
7548 00             NOP
7549 00             NOP
754A 00             NOP
754B 00             NOP
- 
754C 00             NOP
754D 00             NOP
754E 00             NOP
754F 00             NOP
7550 00             NOP
7551 00             NOP
7552 00             NOP
7553 00             NOP
7554 00             NOP
7555 00             NOP
7556 00             NOP
7557 00             NOP
7558 00             NOP
7559 00             NOP
755A 00             NOP
755B 00             NOP
755C 00             NOP
755D 00             NOP
755E 00             NOP
755F 00             NOP
- 
7560 00             NOP
7561 00             NOP
7562 00             NOP
7563 00             NOP
7564 00             NOP
7565 00             NOP
7566 00             NOP
7567 00             NOP
7568 00             NOP
7569 00             NOP
756A 00             NOP
756B 00             NOP
756C 00             NOP
756D 00             NOP
756E 00             NOP
756F 00             NOP
7570 00             NOP
7571 00             NOP
7572 00             NOP
7573 00             NOP
- 
7574 00             NOP
7575 00             NOP
7576 00             NOP
7577 00             NOP
7578 00             NOP
7579 00             NOP
757A 00             NOP
757B 00             NOP
757C 00             NOP
757D 00             NOP
757E 00             NOP
757F 00             NOP
7580 01 FF 00       LD	BC,00FF
7583 30 6C          JR	NC,75F1
7585 C1             POP	BC
7586 80             ADD	A,B
7587 18 D8          JR	7561
7589 0C             INC	C
758A 6C             LD	L,H
758B CC EC 00       CALL	Z,00EC
- 
758E 7C             LD	A,H
758F 00             NOP
7590 60             LD	H,B
7591 CD E1 E0       CALL	E0E1
7594 31 98 18       LD	SP,1898
7597 CD 8D BC       CALL	BC8D
759A 00             NOP
759B 00             NOP
759C 00             NOP
759D 6E             LD	L,(HL)
759E CD 80 30       CALL	3080
75A1 31 98 18       LD	SP,1898
75A4 CD AD 98       CALL	98AD
75A7 00             NOP
75A8 6E             LD	L,(HL)
75A9 00             NOP
75AA 66             LD	H,(HL)
75AB CD 83 30       CALL	3083
75AE 31 98 18       LD	SP,1898
75B1 CD AD 98       CALL	98AD
- 
75B4 03             INC	BC
75B5 EF             RST	28
75B6 00             NOP
75B7 3C             INC	A
75B8 79             LD	A,C
75B9 F9             LD	SP,HL
75BA E0             RET	PO
75BB 30 F0          JR	NC,75AD
75BD 18 78          JR	7637
75BF D9             EXX
75C0 88             ADC	A,B
75C1 00             NOP
75C2 00             NOP
75C3 00             NOP
75C4 00             NOP
75C5 00             NOP
75C6 00             NOP
75C7 00             NOP
75C8 00             NOP
75C9 00             NOP
- 
75CA 00             NOP
75CB 00             NOP
75CC 00             NOP
75CD 00             NOP
75CE 61             LD	H,C
75CF 68             LD	L,B
75D0 20 62          JR	NZ,7634
75D2 6C             LD	L,H
75D3 61             LD	H,C
75D4 68             LD	L,B
75D5 20 62          JR	NZ,7639
75D7 6C             LD	L,H
75D8 61             LD	H,C
75D9 68             LD	L,B
75DA 20 62          JR	NZ,763E
75DC 6C             LD	L,H
75DD 61             LD	H,C
75DE 68             LD	L,B
75DF 2E 20          LD	L,20
75E1 20 42          JR	NZ,7625
- 
75E3 6C             LD	L,H
75E4 61             LD	H,C
75E5 68             LD	L,B
75E6 20 62          JR	NZ,764A
75E8 6C             LD	L,H
75E9 61             LD	H,C
75EA 68             LD	L,B
75EB 2E 20          LD	L,20
75ED 20 42          JR	NZ,7631
75EF 6C             LD	L,H
75F0 61             LD	H,C
75F1 68             LD	L,B
75F2 20 62          JR	NZ,7656
75F4 6C             LD	L,H
75F5 61             LD	H,C
75F6 68             LD	L,B
75F7 20 73          JR	NZ,766C
75F9 74             LD	(HL),H
75FA 6F             LD	L,A
75FB 6D             LD	L,L
- 
75FC 61             LD	H,C
75FD 63             LD	H,E
75FE 68             LD	L,B
75FF 20 00          JR	NZ,7601
7601 00             NOP
7602 00             NOP
7603 00             NOP
7604 00             NOP
7605 00             NOP
7606 00             NOP
7607 00             NOP
7608 00             NOP
7609 00             NOP
760A 00             NOP
760B FF             RST	38
760C FF             RST	38
760D FF             RST	38
760E FF             RST	38
760F FF             RST	38
7610 FF             RST	38
- 
7611 FF             RST	38
7612 FF             RST	38
7613 FF             RST	38
7614 FF             RST	38
7615 FF             RST	38
7616 FF             RST	38
7617 FF             RST	38
7618 FF             RST	38
7619 FF             RST	38
761A FF             RST	38
761B FF             RST	38
761C FF             RST	38
761D FF             RST	38
761E FF             RST	38
761F FF             RST	38
7620 00             NOP
7621 00             NOP
7622 00             NOP
7623 00             NOP
7624 00             NOP
- 
7625 00             NOP
7626 00             NOP
7627 00             NOP
7628 00             NOP
7629 00             NOP
762A 00             NOP
762B 00             NOP
762C 00             NOP
762D FF             RST	38
762E FF             RST	38
762F FF             RST	38
7630 FF             RST	38
7631 FF             RST	38
7632 FF             RST	38
7633 FF             RST	38
7634 FF             RST	38
7635 FF             RST	38
7636 FF             RST	38
7637 FF             RST	38
7638 FF             RST	38
- 
7639 FF             RST	38
763A FF             RST	38
763B FF             RST	38
763C FF             RST	38
763D FF             RST	38
763E FF             RST	38
763F FF             RST	38
7640 00             NOP
7641 00             NOP
7642 00             NOP
7643 00             NOP
7644 00             NOP
7645 00             NOP
7646 00             NOP
7647 00             NOP
7648 00             NOP
7649 00             NOP
764A 00             NOP
764B 00             NOP
764C 00             NOP
- 
764D 00             NOP
764E 00             NOP
764F 00             NOP
7650 00             NOP
7651 00             NOP
7652 00             NOP
7653 00             NOP
7654 00             NOP
7655 00             NOP
7656 00             NOP
7657 00             NOP
7658 00             NOP
7659 00             NOP
765A 00             NOP
765B 00             NOP
765C 00             NOP
765D 00             NOP
765E 00             NOP
765F 00             NOP
7660 00             NOP
- 
7661 00             NOP
7662 00             NOP
7663 00             NOP
7664 00             NOP
7665 00             NOP
7666 00             NOP
7667 00             NOP
7668 00             NOP
7669 00             NOP
766A 00             NOP
766B 00             NOP
766C 00             NOP
766D 00             NOP
766E 00             NOP
766F 00             NOP
7670 00             NOP
7671 00             NOP
7672 00             NOP
7673 00             NOP
7674 00             NOP
- 
7675 00             NOP
7676 00             NOP
7677 00             NOP
7678 00             NOP
7679 00             NOP
767A 00             NOP
767B 00             NOP
767C 00             NOP
767D 00             NOP
767E 00             NOP
767F 00             NOP
7680 72             LD	(HL),D
7681 20 59          JR	NZ,76DC
7683 65             LD	H,L
7684 72             LD	(HL),D
7685 7A             LD	A,D
7686 6D             LD	L,L
7687 79             LD	A,C
7688 65             LD	H,L
7689 79             LD	A,C
- 
768A 2E 20          LD	L,20
768C 20 47          JR	NZ,76D5
768E 6F             LD	L,A
768F 6F             LD	L,A
7690 64             LD	H,H
7691 20 6C          JR	NZ,76FF
7693 75             LD	(HL),L
7694 63             LD	H,E
7695 6B             LD	L,E
7696 20 66          JR	NZ,76FE
7698 69             LD	L,C
7699 6E             LD	L,(HL)
769A 64             LD	H,H
769B 69             LD	L,C
769C 6E             LD	L,(HL)
769D 67             LD	H,A
769E 20 69          JR	NZ,7709
76A0 74             LD	(HL),H
76A1 21 00 00       LD	HL,0000 ; LD	HL,START
76A4 00             NOP
- 
76A5 00             NOP
76A6 00             NOP
76A7 00             NOP
76A8 00             NOP
76A9 00             NOP
76AA 00             NOP
76AB 00             NOP
76AC 00             NOP
76AD 00             NOP
76AE 00             NOP
76AF 00             NOP
76B0 00             NOP
76B1 00             NOP
76B2 00             NOP
76B3 00             NOP
76B4 00             NOP
76B5 00             NOP
76B6 00             NOP
76B7 00             NOP
76B8 00             NOP
- 
76B9 00             NOP
76BA 00             NOP
76BB 00             NOP
76BC 00             NOP
76BD 00             NOP
76BE 00             NOP
76BF 00             NOP
76C0 00             NOP
76C1 00             NOP
76C2 00             NOP
76C3 00             NOP
76C4 00             NOP
76C5 00             NOP
76C6 00             NOP
76C7 00             NOP
76C8 00             NOP
76C9 00             NOP
76CA 00             NOP
76CB 00             NOP
76CC 00             NOP
- 
76CD 00             NOP
76CE 00             NOP
76CF 00             NOP
76D0 00             NOP
76D1 00             NOP
76D2 00             NOP
76D3 00             NOP
76D4 00             NOP
76D5 00             NOP
76D6 00             NOP
76D7 00             NOP
76D8 00             NOP
76D9 00             NOP
76DA 00             NOP
76DB 00             NOP
76DC 00             NOP
76DD 00             NOP
76DE 00             NOP
76DF 00             NOP
76E0 00             NOP
- 
76E1 00             NOP
76E2 00             NOP
76E3 00             NOP
76E4 00             NOP
76E5 00             NOP
76E6 00             NOP
76E7 00             NOP
76E8 00             NOP
76E9 00             NOP
76EA 00             NOP
76EB 00             NOP
76EC 00             NOP
76ED 00             NOP
76EE 00             NOP
76EF 00             NOP
76F0 00             NOP
76F1 00             NOP
76F2 00             NOP
76F3 00             NOP
76F4 00             NOP
- 
76F5 00             NOP
76F6 00             NOP
76F7 00             NOP
76F8 00             NOP
76F9 00             NOP
76FA 00             NOP
76FB 00             NOP
76FC 00             NOP
76FD 00             NOP
76FE 00             NOP
76FF 00             NOP
7700 00             NOP
7701 00             NOP
7702 00             NOP
7703 00             NOP
7704 00             NOP
7705 00             NOP
7706 00             NOP
7707 00             NOP
7708 00             NOP
- 
7709 00             NOP
770A 00             NOP
770B FF             RST	38
770C FF             RST	38
770D FF             RST	38
770E FF             RST	38
770F FF             RST	38
7710 FF             RST	38
7711 FF             RST	38
7712 FF             RST	38
7713 FF             RST	38
7714 FF             RST	38
7715 FF             RST	38
7716 FF             RST	38
7717 FF             RST	38
7718 FF             RST	38
7719 FF             RST	38
771A FF             RST	38
771B FF             RST	38
771C FF             RST	38
- 
771D FF             RST	38
771E FF             RST	38
771F FF             RST	38
7720 00             NOP
7721 00             NOP
7722 00             NOP
7723 00             NOP
7724 00             NOP
7725 00             NOP
7726 00             NOP
7727 00             NOP
7728 00             NOP
7729 00             NOP
772A 00             NOP
772B 00             NOP
772C 00             NOP
772D FF             RST	38
772E FF             RST	38
772F FF             RST	38
7730 FF             RST	38
- 
7731 FF             RST	38
7732 FF             RST	38
7733 FF             RST	38
7734 FF             RST	38
7735 FF             RST	38
7736 FF             RST	38
7737 FF             RST	38
7738 FF             RST	38
7739 FF             RST	38
773A FF             RST	38
773B FF             RST	38
773C FF             RST	38
773D FF             RST	38
773E FF             RST	38
773F FF             RST	38
7740 00             NOP
7741 00             NOP
7742 00             NOP
7743 00             NOP
7744 00             NOP
- 
7745 00             NOP
7746 00             NOP
7747 00             NOP
7748 00             NOP
7749 00             NOP
774A 00             NOP
774B 00             NOP
774C 00             NOP
774D 00             NOP
774E 00             NOP
774F 00             NOP
7750 00             NOP
7751 00             NOP
7752 00             NOP
7753 00             NOP
7754 00             NOP
7755 00             NOP
7756 00             NOP
7757 00             NOP
7758 00             NOP
- 
7759 00             NOP
775A 00             NOP
775B 00             NOP
775C 00             NOP
775D 00             NOP
775E 00             NOP
775F 00             NOP
7760 00             NOP
7761 00             NOP
7762 00             NOP
7763 00             NOP
7764 00             NOP
7765 00             NOP
7766 00             NOP
7767 00             NOP
7768 00             NOP
7769 00             NOP
776A 00             NOP
776B 00             NOP
776C 00             NOP
- 
776D 00             NOP
776E 00             NOP
776F 00             NOP
7770 00             NOP
7771 00             NOP
7772 00             NOP
7773 00             NOP
7774 00             NOP
7775 00             NOP
7776 00             NOP
7777 00             NOP
7778 00             NOP
7779 00             NOP
777A 00             NOP
777B 00             NOP
777C 00             NOP
777D 00             NOP
777E 00             NOP
777F 00             NOP
7780 00             NOP
- 
7781 00             NOP
7782 00             NOP
7783 00             NOP
7784 00             NOP
7785 00             NOP
7786 00             NOP
7787 00             NOP
7788 00             NOP
7789 00             NOP
778A 00             NOP
778B 00             NOP
778C 00             NOP
778D 00             NOP
778E 00             NOP
778F 00             NOP
7790 00             NOP
7791 00             NOP
7792 00             NOP
7793 00             NOP
7794 00             NOP
- 
7795 00             NOP
7796 00             NOP
7797 00             NOP
7798 00             NOP
7799 00             NOP
779A 00             NOP
779B 00             NOP
779C 00             NOP
779D 00             NOP
779E 00             NOP
779F 00             NOP
77A0 00             NOP
77A1 00             NOP
77A2 00             NOP
77A3 00             NOP
77A4 00             NOP
77A5 00             NOP
77A6 00             NOP
77A7 00             NOP
77A8 00             NOP
- 
77A9 00             NOP
77AA 00             NOP
77AB 00             NOP
77AC 00             NOP
77AD 00             NOP
77AE 00             NOP
77AF 00             NOP
77B0 00             NOP
77B1 00             NOP
77B2 00             NOP
77B3 00             NOP
77B4 00             NOP
77B5 00             NOP
77B6 00             NOP
77B7 00             NOP
77B8 00             NOP
77B9 00             NOP
77BA 00             NOP
77BB 00             NOP
77BC 00             NOP
- 
77BD 00             NOP
77BE 00             NOP
77BF 00             NOP
77C0 00             NOP
77C1 00             NOP
77C2 00             NOP
77C3 00             NOP
77C4 00             NOP
77C5 00             NOP
77C6 00             NOP
77C7 00             NOP
77C8 00             NOP
77C9 00             NOP
77CA 00             NOP
77CB 00             NOP
77CC 00             NOP
77CD 00             NOP
77CE 00             NOP
77CF 00             NOP
77D0 00             NOP
- 
77D1 00             NOP
77D2 00             NOP
77D3 00             NOP
77D4 00             NOP
77D5 00             NOP
77D6 00             NOP
77D7 00             NOP
77D8 00             NOP
77D9 00             NOP
77DA 00             NOP
77DB 00             NOP
77DC 00             NOP
77DD 00             NOP
77DE 00             NOP
77DF 00             NOP
77E0 00             NOP
77E1 00             NOP
77E2 00             NOP
77E3 00             NOP
77E4 00             NOP
- 
77E5 00             NOP
77E6 00             NOP
77E7 00             NOP
77E8 00             NOP
77E9 00             NOP
77EA 00             NOP
77EB 00             NOP
77EC 00             NOP
77ED 00             NOP
77EE 00             NOP
77EF 00             NOP
77F0 00             NOP
77F1 10 00          DJNZ	77F3
77F3 00             NOP
77F4 00             NOP
77F5 00             NOP
77F6 00             NOP
77F7 00             NOP
77F8 00             NOP
77F9 00             NOP
- 
77FA 00             NOP
77FB 00             NOP
77FC 00             NOP
77FD 00             NOP
77FE 4B             LD	C,E
77FF C8             RET	Z
7800 02             LD	(BC),A
7801 02             LD	(BC),A
7802 02             LD	(BC),A
7803 02             LD	(BC),A
7804 02             LD	(BC),A
7805 02             LD	(BC),A
7806 02             LD	(BC),A
7807 02             LD	(BC),A
7808 02             LD	(BC),A
7809 02             LD	(BC),A
780A 02             LD	(BC),A
780B 02             LD	(BC),A
780C 02             LD	(BC),A
780D 02             LD	(BC),A
- 
780E 02             LD	(BC),A
780F 02             LD	(BC),A
7810 02             LD	(BC),A
7811 02             LD	(BC),A
7812 02             LD	(BC),A
7813 02             LD	(BC),A
7814 02             LD	(BC),A
7815 02             LD	(BC),A
7816 02             LD	(BC),A
7817 02             LD	(BC),A
7818 02             LD	(BC),A
7819 02             LD	(BC),A
781A 02             LD	(BC),A
781B 02             LD	(BC),A
781C 02             LD	(BC),A
781D 02             LD	(BC),A
781E 00             NOP
781F 00             NOP
7820 02             LD	(BC),A
7821 02             LD	(BC),A
- 
7822 02             LD	(BC),A
7823 02             LD	(BC),A
7824 02             LD	(BC),A
7825 02             LD	(BC),A
7826 02             LD	(BC),A
7827 02             LD	(BC),A
7828 02             LD	(BC),A
7829 00             NOP
782A 00             NOP
782B 02             LD	(BC),A
782C 02             LD	(BC),A
782D 02             LD	(BC),A
782E 02             LD	(BC),A
782F 02             LD	(BC),A
7830 02             LD	(BC),A
7831 02             LD	(BC),A
7832 02             LD	(BC),A
7833 00             NOP
7834 00             NOP
7835 02             LD	(BC),A
- 
7836 02             LD	(BC),A
7837 02             LD	(BC),A
7838 02             LD	(BC),A
7839 02             LD	(BC),A
783A 02             LD	(BC),A
783B 02             LD	(BC),A
783C 02             LD	(BC),A
783D 02             LD	(BC),A
783E 02             LD	(BC),A
783F 00             NOP
7840 02             LD	(BC),A
7841 00             NOP
7842 00             NOP
7843 00             NOP
7844 00             NOP
7845 00             NOP
7846 00             NOP
7847 00             NOP
7848 00             NOP
7849 00             NOP
- 
784A 00             NOP
784B 00             NOP
784C 00             NOP
784D 00             NOP
784E 00             NOP
784F 00             NOP
7850 00             NOP
7851 00             NOP
7852 00             NOP
7853 00             NOP
7854 00             NOP
7855 00             NOP
7856 00             NOP
7857 00             NOP
7858 00             NOP
7859 00             NOP
785A 02             LD	(BC),A
785B 02             LD	(BC),A
785C 02             LD	(BC),A
785D 00             NOP
- 
785E 00             NOP
785F 00             NOP
7860 02             LD	(BC),A
7861 00             NOP
7862 00             NOP
7863 00             NOP
7864 00             NOP
7865 00             NOP
7866 00             NOP
7867 00             NOP
7868 00             NOP
7869 00             NOP
786A 00             NOP
786B 00             NOP
786C 00             NOP
786D 00             NOP
786E 00             NOP
786F 00             NOP
7870 00             NOP
7871 00             NOP
- 
7872 00             NOP
7873 00             NOP
7874 00             NOP
7875 00             NOP
7876 00             NOP
7877 00             NOP
7878 00             NOP
7879 00             NOP
787A 02             LD	(BC),A
787B 02             LD	(BC),A
787C 02             LD	(BC),A
787D 00             NOP
787E 00             NOP
787F 00             NOP
7880 02             LD	(BC),A
7881 00             NOP
7882 00             NOP
7883 00             NOP
7884 00             NOP
7885 00             NOP
- 
7886 00             NOP
7887 00             NOP
7888 00             NOP
7889 00             NOP
788A 00             NOP
788B 00             NOP
788C 00             NOP
788D 00             NOP
788E 00             NOP
788F 00             NOP
7890 00             NOP
7891 00             NOP
7892 00             NOP
7893 00             NOP
7894 00             NOP
7895 00             NOP
7896 00             NOP
7897 00             NOP
7898 00             NOP
7899 00             NOP
- 
789A 02             LD	(BC),A
789B 02             LD	(BC),A
789C 02             LD	(BC),A
789D 00             NOP
789E 00             NOP
789F 00             NOP
78A0 02             LD	(BC),A
78A1 00             NOP
78A2 00             NOP
78A3 00             NOP
78A4 00             NOP
78A5 00             NOP
78A6 00             NOP
78A7 00             NOP
78A8 00             NOP
78A9 00             NOP
78AA 00             NOP
78AB 00             NOP
78AC 00             NOP
78AD 00             NOP
- 
78AE 00             NOP
78AF 00             NOP
78B0 00             NOP
78B1 00             NOP
78B2 00             NOP
78B3 00             NOP
78B4 00             NOP
78B5 00             NOP
78B6 00             NOP
78B7 00             NOP
78B8 00             NOP
78B9 00             NOP
78BA 02             LD	(BC),A
78BB 02             LD	(BC),A
78BC 02             LD	(BC),A
78BD 00             NOP
78BE 00             NOP
78BF 00             NOP
78C0 02             LD	(BC),A
78C1 00             NOP
- 
78C2 00             NOP
78C3 00             NOP
78C4 00             NOP
78C5 00             NOP
78C6 00             NOP
78C7 00             NOP
78C8 00             NOP
78C9 00             NOP
78CA 00             NOP
78CB 00             NOP
78CC 01 01 01       LD	BC,0101
78CF 01 01 01       LD	BC,0101
78D2 00             NOP
78D3 00             NOP
78D4 00             NOP
78D5 00             NOP
78D6 01 01 01       LD	BC,0101
78D9 01 02 02       LD	BC,0202
78DC 02             LD	(BC),A
78DD 00             NOP
- 
78DE 00             NOP
78DF 00             NOP
78E0 02             LD	(BC),A
78E1 00             NOP
78E2 00             NOP
78E3 00             NOP
78E4 00             NOP
78E5 00             NOP
78E6 00             NOP
78E7 00             NOP
78E8 00             NOP
78E9 00             NOP
78EA 00             NOP
78EB 00             NOP
78EC 00             NOP
78ED 00             NOP
78EE 00             NOP
78EF 00             NOP
78F0 00             NOP
78F1 00             NOP
- 
78F2 00             NOP
78F3 00             NOP
78F4 00             NOP
78F5 00             NOP
78F6 00             NOP
78F7 00             NOP
78F8 00             NOP
78F9 00             NOP
78FA 02             LD	(BC),A
78FB 02             LD	(BC),A
78FC 02             LD	(BC),A
78FD 00             NOP
78FE 00             NOP
78FF 00             NOP
7900 02             LD	(BC),A
7901 00             NOP
7902 00             NOP
7903 00             NOP
7904 00             NOP
7905 00             NOP
- 
7906 00             NOP
7907 00             NOP
7908 00             NOP
7909 00             NOP
790A 00             NOP
790B 00             NOP
790C 00             NOP
790D 00             NOP
790E 00             NOP
790F 00             NOP
7910 00             NOP
7911 00             NOP
7912 00             NOP
7913 00             NOP
7914 00             NOP
7915 00             NOP
7916 00             NOP
7917 00             NOP
7918 00             NOP
7919 00             NOP
- 
791A 02             LD	(BC),A
791B 02             LD	(BC),A
791C 02             LD	(BC),A
791D 00             NOP
791E 00             NOP
791F 00             NOP
7920 02             LD	(BC),A
7921 02             LD	(BC),A
7922 02             LD	(BC),A
7923 02             LD	(BC),A
7924 02             LD	(BC),A
7925 02             LD	(BC),A
7926 02             LD	(BC),A
7927 02             LD	(BC),A
7928 00             NOP
7929 00             NOP
792A 00             NOP
792B 00             NOP
792C 00             NOP
792D 00             NOP
- 
792E 00             NOP
792F 00             NOP
7930 00             NOP
7931 00             NOP
7932 00             NOP
7933 00             NOP
7934 00             NOP
7935 00             NOP
7936 00             NOP
7937 00             NOP
7938 00             NOP
7939 00             NOP
793A 02             LD	(BC),A
793B 02             LD	(BC),A
793C 02             LD	(BC),A
793D 00             NOP
793E 00             NOP
793F 00             NOP
7940 00             NOP
7941 00             NOP
- 
7942 00             NOP
7943 00             NOP
7944 00             NOP
7945 00             NOP
7946 00             NOP
7947 00             NOP
7948 00             NOP
7949 00             NOP
794A 00             NOP
794B 00             NOP
794C 01 01 01       LD	BC,0101
794F 01 01 01       LD	BC,0101
7952 00             NOP
7953 00             NOP
7954 00             NOP
7955 00             NOP
7956 02             LD	(BC),A
7957 02             LD	(BC),A
7958 04             INC	B
7959 04             INC	B
- 
795A 02             LD	(BC),A
795B 02             LD	(BC),A
795C 02             LD	(BC),A
795D 00             NOP
795E 00             NOP
795F 00             NOP
7960 00             NOP
7961 00             NOP
7962 00             NOP
7963 00             NOP
7964 00             NOP
7965 00             NOP
7966 00             NOP
7967 00             NOP
7968 00             NOP
7969 00             NOP
796A 00             NOP
796B 00             NOP
796C 00             NOP
796D 00             NOP
- 
796E 00             NOP
796F 00             NOP
7970 00             NOP
7971 00             NOP
7972 00             NOP
7973 00             NOP
7974 00             NOP
7975 00             NOP
7976 00             NOP
7977 00             NOP
7978 04             INC	B
7979 04             INC	B
797A 02             LD	(BC),A
797B 02             LD	(BC),A
797C 02             LD	(BC),A
797D 00             NOP
797E 00             NOP
797F 00             NOP
7980 00             NOP
7981 00             NOP
- 
7982 00             NOP
7983 00             NOP
7984 00             NOP
7985 00             NOP
7986 00             NOP
7987 00             NOP
7988 00             NOP
7989 00             NOP
798A 00             NOP
798B 00             NOP
798C 00             NOP
798D 00             NOP
798E 00             NOP
798F 00             NOP
7990 00             NOP
7991 00             NOP
7992 00             NOP
7993 00             NOP
7994 00             NOP
7995 00             NOP
- 
7996 00             NOP
7997 00             NOP
7998 04             INC	B
7999 04             INC	B
799A 02             LD	(BC),A
799B 02             LD	(BC),A
799C 02             LD	(BC),A
799D 00             NOP
799E 00             NOP
799F 00             NOP
79A0 02             LD	(BC),A
79A1 02             LD	(BC),A
79A2 02             LD	(BC),A
79A3 02             LD	(BC),A
79A4 02             LD	(BC),A
79A5 00             NOP
79A6 00             NOP
79A7 00             NOP
79A8 00             NOP
79A9 00             NOP
- 
79AA 00             NOP
79AB 00             NOP
79AC 00             NOP
79AD 00             NOP
79AE 00             NOP
79AF 00             NOP
79B0 00             NOP
79B1 00             NOP
79B2 00             NOP
79B3 00             NOP
79B4 00             NOP
79B5 00             NOP
79B6 00             NOP
79B7 00             NOP
79B8 04             INC	B
79B9 04             INC	B
79BA 02             LD	(BC),A
79BB 02             LD	(BC),A
79BC 02             LD	(BC),A
79BD 00             NOP
- 
79BE 00             NOP
79BF 00             NOP
79C0 02             LD	(BC),A
79C1 02             LD	(BC),A
79C2 02             LD	(BC),A
79C3 02             LD	(BC),A
79C4 02             LD	(BC),A
79C5 02             LD	(BC),A
79C6 02             LD	(BC),A
79C7 00             NOP
79C8 00             NOP
79C9 00             NOP
79CA 00             NOP
79CB 00             NOP
79CC 00             NOP
79CD 00             NOP
79CE 00             NOP
79CF 01 01 01       LD	BC,0101
79D2 01 01 01       LD	BC,0101
79D5 01 01 01       LD	BC,0101
- 
79D8 01 01 02       LD	BC,0201
79DB 02             LD	(BC),A
79DC 02             LD	(BC),A
79DD 00             NOP
79DE 00             NOP
79DF 00             NOP
79E0 02             LD	(BC),A
79E1 02             LD	(BC),A
79E2 02             LD	(BC),A
79E3 02             LD	(BC),A
79E4 02             LD	(BC),A
79E5 02             LD	(BC),A
79E6 02             LD	(BC),A
79E7 02             LD	(BC),A
79E8 02             LD	(BC),A
79E9 00             NOP
79EA 00             NOP
79EB 00             NOP
79EC 00             NOP
79ED 00             NOP
- 
79EE 00             NOP
79EF 00             NOP
79F0 00             NOP
79F1 00             NOP
79F2 00             NOP
79F3 00             NOP
79F4 00             NOP
79F5 00             NOP
79F6 00             NOP
79F7 00             NOP
79F8 00             NOP
79F9 00             NOP
79FA 00             NOP
79FB 00             NOP
79FC 00             NOP
79FD 00             NOP
79FE 00             NOP
79FF 00             NOP
7A00 02             LD	(BC),A
7A01 02             LD	(BC),A
- 
7A02 02             LD	(BC),A
7A03 02             LD	(BC),A
7A04 02             LD	(BC),A
7A05 02             LD	(BC),A
7A06 02             LD	(BC),A
7A07 02             LD	(BC),A
7A08 02             LD	(BC),A
7A09 02             LD	(BC),A
7A0A 02             LD	(BC),A
7A0B 00             NOP
7A0C 00             NOP
7A0D 00             NOP
7A0E 00             NOP
7A0F 00             NOP
7A10 00             NOP
7A11 00             NOP
7A12 00             NOP
7A13 00             NOP
7A14 00             NOP
7A15 00             NOP
- 
7A16 00             NOP
7A17 00             NOP
7A18 00             NOP
7A19 00             NOP
7A1A 00             NOP
7A1B 00             NOP
7A1C 00             NOP
7A1D 00             NOP
7A1E 00             NOP
7A1F 00             NOP
7A20 02             LD	(BC),A
7A21 02             LD	(BC),A
7A22 02             LD	(BC),A
7A23 02             LD	(BC),A
7A24 02             LD	(BC),A
7A25 02             LD	(BC),A
7A26 02             LD	(BC),A
7A27 02             LD	(BC),A
7A28 02             LD	(BC),A
7A29 02             LD	(BC),A
- 
7A2A 02             LD	(BC),A
7A2B 02             LD	(BC),A
7A2C 02             LD	(BC),A
7A2D 00             NOP
7A2E 00             NOP
7A2F 00             NOP
7A30 00             NOP
7A31 00             NOP
7A32 00             NOP
7A33 00             NOP
7A34 00             NOP
7A35 00             NOP
7A36 00             NOP
7A37 00             NOP
7A38 00             NOP
7A39 00             NOP
7A3A 00             NOP
7A3B 00             NOP
7A3C 00             NOP
7A3D 00             NOP
- 
7A3E 00             NOP
7A3F 00             NOP
7A40 02             LD	(BC),A
7A41 02             LD	(BC),A
7A42 02             LD	(BC),A
7A43 02             LD	(BC),A
7A44 02             LD	(BC),A
7A45 02             LD	(BC),A
7A46 02             LD	(BC),A
7A47 02             LD	(BC),A
7A48 02             LD	(BC),A
7A49 02             LD	(BC),A
7A4A 02             LD	(BC),A
7A4B 02             LD	(BC),A
7A4C 02             LD	(BC),A
7A4D 02             LD	(BC),A
7A4E 02             LD	(BC),A
7A4F 02             LD	(BC),A
7A50 02             LD	(BC),A
7A51 02             LD	(BC),A
- 
7A52 02             LD	(BC),A
7A53 02             LD	(BC),A
7A54 02             LD	(BC),A
7A55 02             LD	(BC),A
7A56 02             LD	(BC),A
7A57 02             LD	(BC),A
7A58 02             LD	(BC),A
7A59 02             LD	(BC),A
7A5A 02             LD	(BC),A
7A5B 02             LD	(BC),A
7A5C 02             LD	(BC),A
7A5D 02             LD	(BC),A
7A5E 02             LD	(BC),A
7A5F 02             LD	(BC),A
7A60 02             LD	(BC),A
7A61 02             LD	(BC),A
7A62 02             LD	(BC),A
7A63 02             LD	(BC),A
7A64 02             LD	(BC),A
7A65 02             LD	(BC),A
- 
7A66 02             LD	(BC),A
7A67 02             LD	(BC),A
7A68 02             LD	(BC),A
7A69 02             LD	(BC),A
7A6A 02             LD	(BC),A
7A6B 02             LD	(BC),A
7A6C 02             LD	(BC),A
7A6D 02             LD	(BC),A
7A6E 02             LD	(BC),A
7A6F 02             LD	(BC),A
7A70 02             LD	(BC),A
7A71 02             LD	(BC),A
7A72 02             LD	(BC),A
7A73 02             LD	(BC),A
7A74 02             LD	(BC),A
7A75 02             LD	(BC),A
7A76 02             LD	(BC),A
7A77 02             LD	(BC),A
7A78 02             LD	(BC),A
7A79 02             LD	(BC),A
- 
7A7A 02             LD	(BC),A
7A7B 02             LD	(BC),A
7A7C 02             LD	(BC),A
7A7D 02             LD	(BC),A
7A7E 02             LD	(BC),A
7A7F 02             LD	(BC),A
7A80 02             LD	(BC),A
7A81 02             LD	(BC),A
7A82 02             LD	(BC),A
7A83 02             LD	(BC),A
7A84 02             LD	(BC),A
7A85 02             LD	(BC),A
7A86 02             LD	(BC),A
7A87 02             LD	(BC),A
7A88 02             LD	(BC),A
7A89 02             LD	(BC),A
7A8A 02             LD	(BC),A
7A8B 02             LD	(BC),A
7A8C 02             LD	(BC),A
7A8D 02             LD	(BC),A
- 
7A8E 02             LD	(BC),A
7A8F 02             LD	(BC),A
7A90 02             LD	(BC),A
7A91 02             LD	(BC),A
7A92 02             LD	(BC),A
7A93 02             LD	(BC),A
7A94 02             LD	(BC),A
7A95 02             LD	(BC),A
7A96 02             LD	(BC),A
7A97 02             LD	(BC),A
7A98 02             LD	(BC),A
7A99 02             LD	(BC),A
7A9A 02             LD	(BC),A
7A9B 02             LD	(BC),A
7A9C 02             LD	(BC),A
7A9D 02             LD	(BC),A
7A9E 02             LD	(BC),A
7A9F 02             LD	(BC),A
7AA0 FD 21 00 00    LD	IY,0000 ; LD	IY,START
7AA4 FD BE 00       CP	(IY+00)
- 
7AA7 C8             RET	Z
7AA8 FD 23          INC	IY
7AAA 18 F8          JR	7AA4
7AAC 3E 14          LD	A,14
7AAE 01 FD 1F       LD	BC,1FFD
7AB1 ED 79          OUT	(C),A
7AB3 CD BB 7A       CALL	7ABB
7AB6 C9             RET
7AB7 3E 14          LD	A,14
7AB9 18 06          JR	7AC1
7ABB C9             RET
7ABC 10 18          DJNZ	7AD6
7ABE 02             LD	(BC),A
7ABF C9             RET
7AC0 11 01 FD       LD	DE,FD01
7AC3 7F             LD	A,A
7AC4 ED 79          OUT	(C),A
7AC6 C9             RET
7AC7 21 F3 8E       LD	HL,8EF3
7ACA 22 14 8E       LD	(8E14),HL
- 
7ACD 21 30 30       LD	HL,3030
7AD0 22 9B FF       LD	(FF9B),HL
7AD3 21 4C B0       LD	HL,B04C
7AD6 06 66          LD	B,66
7AD8 11 03 00       LD	DE,0003
7ADB CB BE          RES	7,(HL)
7ADD 19             ADD	HL,DE
7ADE 10 FB          DJNZ	7ADB
7AE0 21 24 8D       LD	HL,8D24
7AE3 11 25 8D       LD	DE,8D25
7AE6 01 53 00       LD	BC,0053 ; LD	BC,ERROR_2
7AE9 36 FF          LD	(HL),FF
7AEB ED B0          LDIR
7AED 11 4E 8D       LD	DE,8D4E
7AF0 21 F4 5F       LD	HL,5FF4
7AF3 01 07 00       LD	BC,0007
7AF6 ED B0          LDIR
7AF8 3E 5D          LD	A,5D
7AFA 32 02 8E       LD	(8E02),A
7AFD 3E 47          LD	A,47
- 
7AFF 32 5F AF       LD	(AF5F),A
7B02 2A 50 8D       LD	HL,(8D50)
7B05 22 26 8D       LD	(8D26),HL
7B08 3A 4E 8D       LD	A,(8D4E)
7B0B 32 25 8D       LD	(8D25),A
7B0E AF             XOR	A
7B0F 32 6E A9       LD	(A96E),A
7B12 32 6F A9       LD	(A96F),A
7B15 32 70 A9       LD	(A970),A
7B18 32 26 A4       LD	(A426),A
7B1B 32 71 A9       LD	(A971),A
7B1E 3E 02          LD	A,02
7B20 32 D3 BC       LD	(BCD3),A
7B23 CD 4F AD       CALL	AD4F
7B26 CD 45 7D       CALL	7D45
7B29 CD B3 8E       CALL	8EB3
7B2C 3E 05          LD	A,05
7B2E 32 24 8B       LD	(8B24),A
7B31 32 01 8E       LD	(8E01),A
7B34 CD 92 8E       CALL	8E92
- 
7B37 21 06 8E       LD	HL,8E06
7B3A 11 07 8E       LD	DE,8E07
7B3D 36 30          LD	(HL),30
7B3F 01 05 00       LD	BC,0005
7B42 ED B0          LDIR
7B44 CD A0 8E       CALL	8EA0
7B47 3E FA          LD	A,FA
7B49 32 79 5C       LD	(5C79),A
7B4C 21 F0 77       LD	HL,77F0
7B4F 11 F1 77       LD	DE,77F1
7B52 01 0D 00       LD	BC,000D
7B55 70             LD	(HL),B
7B56 ED B0          LDIR
7B58 C3 34 7F       JP	7F34
7B5B 3A 37 A7       LD	A,(A737)
7B5E CD 15 A7       CALL	A715
7B61 D8             RET	C
7B62 3A 37 A7       LD	A,(A737)
7B65 CD 15 A7       CALL	A715
7B68 30 F8          JR	NC,7B62
- 
7B6A 3A 31 A7       LD	A,(A731)
7B6D FE 1C          CP	1C
7B6F 20 0B          JR	NZ,7B7C
7B71 3A F6 7F       LD	A,(7FF6)
7B74 FE 3C          CP	3C
7B76 20 04          JR	NZ,7B7C
7B78 3E 01          LD	A,01
7B7A D3 FE          OUT	(FE),A
7B7C 3A 37 A7       LD	A,(A737)
7B7F CD 15 A7       CALL	A715
7B82 38 E6          JR 	C,7B6A
7B84 3A 37 A7       LD	A,(A737)
7B87 CD 15 A7       CALL	A715
7B8A 30 F8          JR	NC,7B84
7B8C C9             RET
7B8D 62             LD	H,D
7B8E 03             INC	BC
7B8F 09             ADD	HL,BC
7B90 61             LD	H,C
7B91 04             INC	B
- 
7B92 50             LD	D,B
7B93 52             LD	D,D
7B94 45             LD	B,L
7B95 53             LD	D,E
7B96 53             LD	D,E
7B97 40             LD	B,B
7B98 4B             LD	C,E
7B99 45             LD	B,L
7B9A 59             LD	E,C
7B9B 40             LD	B,B
7B9C 46             LD	B,(HL)
7B9D 4F             LD	C,A
7B9E 52             LD	D,D
7B9F 3A 62 06       LD	A,(0662)
7BA2 07             RLCA
7BA3 61             LD	H,C
7BA4 06 55          LD	B,55
7BA6 50             LD	D,B
7BA7 62             LD	H,D
7BA8 06 18          LD	B,18
- 
7BAA 63             LD	H,E
7BAB 62             LD	H,D
7BAC 08             EX	AF,AF'
7BAD 07             RLCA
7BAE 44             LD	B,H
7BAF 4F             LD	C,A
7BB0 57             LD	D,A
7BB1 4E             LD	C,(HL)
7BB2 62             LD	H,D
7BB3 08             EX	AF,AF'
7BB4 18 63          JR	7C19
7BB6 62             LD	H,D
7BB7 0A             LD	A,(BC)
7BB8 07             RLCA
7BB9 4C             LD	C,H
7BBA 45             LD	B,L
7BBB 46             LD	B,(HL)
7BBC 54             LD	D,H
7BBD 62             LD	H,D
7BBE 0A             LD	A,(BC)
- 
7BBF 18 63          JR	7C24
7BC1 62             LD	H,D
7BC2 0C             INC	C
7BC3 07             RLCA
7BC4 52             LD	D,D
7BC5 49             LD	C,C
7BC6 47             LD	B,A
7BC7 48             LD	C,B
7BC8 54             LD	D,H
7BC9 62             LD	H,D
7BCA 0C             INC	C
7BCB 18 63          JR	7C30
7BCD 62             LD	H,D
7BCE 0E 07          LD	C,07
7BD0 4A             LD	C,D
7BD1 55             LD	D,L
7BD2 4D             LD	C,L
7BD3 50             LD	D,B
7BD4 62             LD	H,D
7BD5 0E 18          LD	C,18
- 
7BD7 63             LD	H,E
7BD8 62             LD	H,D
7BD9 12             LD	(DE),A
7BDA 07             RLCA
7BDB 50             LD	D,B
7BDC 41             LD	B,C
7BDD 55             LD	D,L
7BDE 53             LD	D,E
7BDF 45             LD	B,L
7BE0 62             LD	H,D
7BE1 12             LD	(DE),A
7BE2 18 63          JR	7C47
7BE4 42             LD	B,D
7BE5 48             LD	C,B
7BE6 59             LD	E,C
7BE7 36 35          LD	(HL),35
7BE9 54             LD	D,H
7BEA 47             LD	B,A
7BEB 56             LD	D,(HL)
7BEC 4E             LD	C,(HL)
- 
7BED 4A             LD	C,D
7BEE 55             LD	D,L
7BEF 37             SCF
7BF0 34             INC	(HL)
7BF1 52             LD	D,D
7BF2 46             LD	B,(HL)
7BF3 43             LD	B,E
7BF4 4D             LD	C,L
7BF5 4B             LD	C,E
7BF6 49             LD	C,C
7BF7 38 33          JR 	C,7C2C
7BF9 45             LD	B,L
7BFA 44             LD	B,H
7BFB 58             LD	E,B
7BFC 2E 4C          LD	L,4C
7BFE 4F             LD	C,A
7BFF 39             ADD	HL,SP
7C00 32 57 53       LD	(5357),A
7C03 5A             LD	E,D
7C04 40             LD	B,B
- 
7C05 40             LD	B,B
7C06 50             LD	D,B
7C07 30 31          JR	NC,7C3A
7C09 51             LD	D,C
7C0A 41             LD	B,C
7C0B 40             LD	B,B
7C0C 21 1F 7E       LD	HL,7E1F
7C0F 36 3E          LD	(HL),3E
7C11 23             INC	HL
7C12 36 04          LD	(HL),04
7C14 C9             RET
7C15 CD 8E 02       CALL	028E ; CALL	KEY_SCAN
7C18 7B             LD	A,E
7C19 FE FF          CP	FF
7C1B 28 F8          JR	Z,7C15
7C1D 21 31 A7       LD	HL,A731
7C20 BE             CP	(HL)
7C21 28 F2          JR	Z,7C15
7C23 23             INC	HL
7C24 BE             CP	(HL)
- 
7C25 28 EE          JR	Z,7C15
7C27 23             INC	HL
7C28 BE             CP	(HL)
7C29 28 EA          JR	Z,7C15
7C2B 23             INC	HL
7C2C BE             CP	(HL)
7C2D 28 E6          JR	Z,7C15
7C2F 23             INC	HL
7C30 BE             CP	(HL)
7C31 28 E2          JR	Z,7C15
7C33 23             INC	HL
7C34 BE             CP	(HL)
7C35 28 DE          JR	Z,7C15
7C37 D5             PUSH	DE
7C38 21 E4 7B       LD	HL,7BE4
7C3B 16 00          LD	D,00
7C3D 19             ADD	HL,DE
7C3E 7E             LD	A,(HL)
7C3F CD 17 AC       CALL	AC17
7C42 3E 05          LD	A,05
- 
7C44 32 2D 7B       LD	(7B2D),A
7C47 D1             POP	DE
7C48 C9             RET
7C49 CD 8E 02       CALL	028E ; CALL	KEY_SCAN
7C4C 7B             LD	A,E
7C4D 3C             INC	A
7C4E 20 F9          JR	NZ,7C49
7C50 CD 65 AD       CALL	AD65
7C53 21 31 A7       LD	HL,A731
7C56 11 32 A7       LD	DE,A732
7C59 01 06 00       LD	BC,0006
7C5C 36 FF          LD	(HL),FF
7C5E ED B0          LDIR
7C60 21 8D 7B       LD	HL,7B8D
7C63 CD 0D AC       CALL	AC0D
7C66 CD 15 7C       CALL	7C15
7C69 7B             LD	A,E
7C6A 32 31 A7       LD	(A731),A
7C6D 21 AB 7B       LD	HL,7BAB
7C70 CD 0D AC       CALL	AC0D
- 
7C73 CD 15 7C       CALL	7C15
7C76 7B             LD	A,E
7C77 32 32 A7       LD	(A732),A
7C7A 21 B6 7B       LD	HL,7BB6
7C7D CD 0D AC       CALL	AC0D
7C80 CD 15 7C       CALL	7C15
7C83 7B             LD	A,E
7C84 32 33 A7       LD	(A733),A
7C87 21 C1 7B       LD	HL,7BC1
7C8A CD 0D AC       CALL	AC0D
7C8D CD 15 7C       CALL	7C15
7C90 7B             LD	A,E
7C91 32 34 A7       LD	(A734),A
7C94 21 CD 7B       LD	HL,7BCD
7C97 CD 0D AC       CALL	AC0D
7C9A CD 15 7C       CALL	7C15
7C9D 7B             LD	A,E
7C9E 32 35 A7       LD	(A735),A
7CA1 21 D8 7B       LD	HL,7BD8
7CA4 CD 0D AC       CALL	AC0D
- 
7CA7 CD 15 7C       CALL	7C15
7CAA 7B             LD	A,E
7CAB 32 37 A7       LD	(A737),A
7CAE 06 32          LD	B,32
7CB0 CD B6 7C       CALL	7CB6
7CB3 C3 EC F7       JP	F7EC
7CB6 C5             PUSH	BC
7CB7 76             HALT
7CB8 C1             POP	BC
7CB9 10 FB          DJNZ	7CB6
7CBB C9             RET
7CBC F3             DI
7CBD 21 B4 FD       LD	HL,FDB4
7CC0 22 FE FD       LD	(FDFE),HL
7CC3 CD B7 7A       CALL	7AB7
7CC6 21 00 C0       LD	HL,C000
7CC9 11 00 60       LD	DE,6000
7CCC 01 4A 10       LD	BC,104A
7CCF ED B0          LDIR
7CD1 CD BB 7A       CALL	7ABB
- 
7CD4 21 00 60       LD	HL,6000
7CD7 11 00 C0       LD	DE,C000
7CDA 01 4A 10       LD	BC,104A
7CDD ED B0          LDIR
7CDF CD B7 7A       CALL	7AB7
7CE2 21 4A D0       LD	HL,D04A
7CE5 11 00 60       LD	DE,6000
7CE8 01 4B 10       LD	BC,104B
7CEB ED B0          LDIR
7CED CD BB 7A       CALL	7ABB
7CF0 21 00 60       LD	HL,6000
7CF3 11 4A D0       LD	DE,D04A
7CF6 01 4B 10       LD	BC,104B
7CF9 ED B0          LDIR
7CFB CD 81 F8       CALL	F881
7CFE FB             EI
7CFF C9             RET
7D00 F3             DI
7D01 CD 81 F8       CALL	F881
7D04 F3             DI
- 
7D05 21 CB FD       LD	HL,FDCB
7D08 22 FE FD       LD	(FDFE),HL
7D0B CD BF 7A       CALL	7ABF
7D0E 21 00 C0       LD	HL,C000
7D11 11 00 60       LD	DE,6000
7D14 01 4A 10       LD	BC,104A
7D17 ED B0          LDIR
7D19 CD BB 7A       CALL	7ABB
7D1C 21 00 60       LD	HL,6000
7D1F 11 00 C0       LD	DE,C000
7D22 01 4A 10       LD	BC,104A
7D25 ED B0          LDIR
7D27 CD BF 7A       CALL	7ABF
7D2A 21 4A D0       LD	HL,D04A
7D2D 11 00 60       LD	DE,6000
7D30 01 4B 10       LD	BC,104B
7D33 ED B0          LDIR
7D35 CD BB 7A       CALL	7ABB
7D38 21 00 60       LD	HL,6000
7D3B 11 4A D0       LD	DE,D04A
- 
7D3E 01 4B 10       LD	BC,104B
7D41 ED B0          LDIR
7D43 FB             EI
7D44 C9             RET
7D45 21 A0 5A       LD	HL,5AA0
7D48 0E 03          LD	C,03
7D4A 11 13 00       LD	DE,0013
7D4D 06 0D          LD	B,0D
7D4F 36 46          LD	(HL),46
7D51 2C             INC	L
7D52 10 FB          DJNZ	7D4F
7D54 19             ADD	HL,DE
7D55 0D             DEC	C
7D56 20 F5          JR	NZ,7D4D
7D58 11 80 72       LD	DE,7280
7D5B 21 A0 50       LD	HL,50A0
7D5E CD 70 7D       CALL	7D70
7D61 11 80 73       LD	DE,7380
7D64 CD 70 7D       CALL	7D70
7D67 11 80 74       LD	DE,7480
- 
7D6A CD 70 7D       CALL	7D70
7D6D 11 80 75       LD	DE,7580
7D70 06 06          LD	B,06
7D72 C5             PUSH	BC
7D73 06 0D          LD	B,0D
7D75 4D             LD	C,L
7D76 1A             LD	A,(DE)
7D77 77             LD	(HL),A
7D78 1C             INC	E
7D79 2C             INC	L
7D7A 10 FA          DJNZ	7D76
7D7C 69             LD	L,C
7D7D CD 14 90       CALL	9014
7D80 C1             POP	BC
7D81 10 EF          DJNZ	7D72
7D83 C9             RET
7D84 21 0B 58       LD	HL,580B
7D87 0E 03          LD	C,03
7D89 11 16 00       LD	DE,0016
7D8C 06 0A          LD	B,0A
- 
7D8E 36 05          LD	(HL),05
7D90 2C             INC	L
7D91 10 FB          DJNZ	7D8E
7D93 19             ADD	HL,DE
7D94 0D             DEC	C
7D95 20 F5          JR	NZ,7D8C
7D97 11 83 72       LD	DE,7283
7D9A 21 0B 40       LD	HL,400B
7D9D CD AF 7D       CALL	7DAF
7DA0 11 83 73       LD	DE,7383
7DA3 CD AF 7D       CALL	7DAF
7DA6 11 83 74       LD	DE,7483
7DA9 CD AF 7D       CALL	7DAF
7DAC 11 83 75       LD	DE,7583
7DAF 06 06          LD	B,06
7DB1 C5             PUSH	BC
7DB2 06 0A          LD	B,0A
7DB4 4D             LD	C,L
7DB5 1A             LD	A,(DE)
7DB6 77             LD	(HL),A
- 
7DB7 1C             INC	E
7DB8 2C             INC	L
7DB9 10 FA          DJNZ	7DB5
7DBB 1C             INC	E
7DBC 1C             INC	E
7DBD 1C             INC	E
7DBE 69             LD	L,C
7DBF CD 14 90       CALL	9014
7DC2 C1             POP	BC
7DC3 10 EC          DJNZ	7DB1
7DC5 C9             RET
7DC6 CD D0 8E       CALL	8ED0
7DC9 2A FE 77       LD	HL,(77FE)
7DCC DD 21 55 8D    LD	IX,8D55
7DD0 7E             LD	A,(HL)
7DD1 FE FF          CP	FF
7DD3 C8             RET	Z
7DD4 FE 64          CP	64
7DD6 38 75          JR 	C,7E4D
7DD8 FE 94          CP	94
- 
7DDA 38 3D          JR 	C,7E19
7DDC FE 94          CP	94
7DDE CA 1E 7F       JP	Z,7F1E
7DE1 FE 96          CP	96
7DE3 CA 74 7E       JP	Z,7E74
7DE6 FE 97          CP	97
7DE8 CA 85 7E       JP	Z,7E85
7DEB FE 98          CP	98
7DED CA A6 7E       JP	Z,7EA6
7DF0 FE 99          CP	99
7DF2 CA CE 7E       JP	Z,7ECE
7DF5 FE 9A          CP	9A
7DF7 CA F4 7E       JP	Z,7EF4
7DFA FE 9B          CP	9B
7DFC CA 0D 7F       JP	Z,7F0D
7DFF FE 95          CP	95
7E01 CA 05 7E       JP	Z,7E05
7E04 C9             RET
7E05 23             INC	HL
7E06 7E             LD	A,(HL)
- 
7E07 32 E4 83       LD	(83E4),A
7E0A 23             INC	HL
7E0B 5E             LD	E,(HL)
7E0C 23             INC	HL
7E0D 56             LD	D,(HL)
7E0E ED 53 E6 83    LD	(83E6),DE
7E12 23             INC	HL
7E13 AF             XOR	A
7E14 32 E5 83       LD	(83E5),A
7E17 18 B7          JR	7DD0
7E19 DD 77 00       LD	(IX+00),A
7E1C 23             INC	HL
7E1D 7E             LD	A,(HL)
7E1E 47             LD	B,A
7E1F E6 7F          AND	7F
7E21 DD 77 01       LD	(IX+01),A
7E24 23             INC	HL
7E25 7E             LD	A,(HL)
7E26 DD 77 03       LD	(IX+03),A
7E29 23             INC	HL
- 
7E2A 7E             LD	A,(HL)
7E2B DD 77 02       LD	(IX+02),A
7E2E DD 77 04       LD	(IX+04),A
7E31 23             INC	HL
7E32 7E             LD	A,(HL)
7E33 DD 77 05       LD	(IX+05),A
7E36 CB 10          RL	B
7E38 30 03          JR	NC,7E3D
7E3A DD 77 02       LD	(IX+02),A
7E3D 23             INC	HL
7E3E 7E             LD	A,(HL)
7E3F DD 77 06       LD	(IX+06),A
7E42 23             INC	HL
7E43 11 07 00       LD	DE,0007
7E46 DD 19          ADD	IX,DE
7E48 C3 D0 7D       JP	7DD0
7E4B 18 15          JR	7E62
7E4D DD 77 00       LD	(IX+00),A
7E50 23             INC	HL
7E51 7E             LD	A,(HL)
- 
7E52 47             LD	B,A
7E53 E6 7F          AND	7F
7E55 DD 77 01       LD	(IX+01),A
7E58 23             INC	HL
7E59 7E             LD	A,(HL)
7E5A DD 77 02       LD	(IX+02),A
7E5D 23             INC	HL
7E5E 7E             LD	A,(HL)
7E5F DD 77 03       LD	(IX+03),A
7E62 DD 77 04       LD	(IX+04),A
7E65 23             INC	HL
7E66 7E             LD	A,(HL)
7E67 DD 77 05       LD	(IX+05),A
7E6A CB 10          RL	B
7E6C 30 CF          JR	NC,7E3D
7E6E DD 77 03       LD	(IX+03),A
7E71 C3 3D 7E       JP	7E3D
7E74 23             INC	HL
7E75 5E             LD	E,(HL)
7E76 23             INC	HL
- 
7E77 56             LD	D,(HL)
7E78 ED 53 E9 83    LD	(83E9),DE
7E7C 23             INC	HL
7E7D 3E 01          LD	A,01
7E7F 32 E8 83       LD	(83E8),A
7E82 C3 D0 7D       JP	7DD0
7E85 23             INC	HL
7E86 5E             LD	E,(HL)
7E87 23             INC	HL
7E88 56             LD	D,(HL)
7E89 ED 53 EE 83    LD	(83EE),DE
7E8D ED 53 F0 83    LD	(83F0),DE
7E91 23             INC	HL
7E92 3E F0          LD	A,F0
7E94 32 C6 5D       LD	(5DC6),A
7E97 32 ED 83       LD	(83ED),A
7E9A E5             PUSH	HL
7E9B ED 53 27 90    LD	(9027),DE
7E9F CD A7 87       CALL	87A7
7EA2 E1             POP	HL
- 
7EA3 C3 D0 7D       JP	7DD0
7EA6 23             INC	HL
7EA7 5E             LD	E,(HL)
7EA8 23             INC	HL
7EA9 56             LD	D,(HL)
7EAA ED 53 F5 83    LD	(83F5),DE
7EAE ED 53 F7 83    LD	(83F7),DE
7EB2 23             INC	HL
7EB3 7E             LD	A,(HL)
7EB4 23             INC	HL
7EB5 32 F3 83       LD	(83F3),A
7EB8 32 F2 83       LD	(83F2),A
7EBB AF             XOR	A
7EBC 32 F9 83       LD	(83F9),A
7EBF 32 F4 83       LD	(83F4),A
7EC2 E5             PUSH	HL
7EC3 ED 53 27 90    LD	(9027),DE
7EC7 CD 38 86       CALL	8638
7ECA E1             POP	HL
7ECB C3 D0 7D       JP	7DD0
- 
7ECE 23             INC	HL
7ECF 56             LD	D,(HL)
7ED0 23             INC	HL
7ED1 7E             LD	A,(HL)
7ED2 32 FD 83       LD	(83FD),A
7ED5 23             INC	HL
7ED6 7E             LD	A,(HL)
7ED7 32 FE 83       LD	(83FE),A
7EDA 32 FF 83       LD	(83FF),A
7EDD 5F             LD	E,A
7EDE ED 53 FB 83    LD	(83FB),DE
7EE2 23             INC	HL
7EE3 3E FF          LD	A,FF
7EE5 32 FA 83       LD	(83FA),A
7EE8 E5             PUSH	HL
7EE9 ED 53 27 90    LD	(9027),DE
7EED CD 75 86       CALL	8675
7EF0 E1             POP	HL
7EF1 C3 D0 7D       JP	7DD0
7EF4 23             INC	HL
- 
7EF5 5E             LD	E,(HL)
7EF6 23             INC	HL
7EF7 56             LD	D,(HL)
7EF8 ED 53 02 84    LD	(8402),DE
7EFC AF             XOR	A
7EFD 32 01 84       LD	(8401),A
7F00 3C             INC	A
7F01 32 00 84       LD	(8400),A
7F04 23             INC	HL
7F05 E5             PUSH	HL
7F06 CD 7D 86       CALL	867D
7F09 E1             POP	HL
7F0A C3 D0 7D       JP	7DD0
7F0D 23             INC	HL
7F0E 5E             LD	E,(HL)
7F0F 23             INC	HL
7F10 56             LD	D,(HL)
7F11 ED 53 0B 84    LD	(840B),DE
7F15 23             INC	HL
7F16 3E 01          LD	A,01
- 
7F18 32 0A 84       LD	(840A),A
7F1B C3 D0 7D       JP	7DD0
7F1E DD 77 00       LD	(IX+00),A
7F21 23             INC	HL
7F22 7E             LD	A,(HL)
7F23 47             LD	B,A
7F24 DD 77 01       LD	(IX+01),A
7F27 23             INC	HL
7F28 7E             LD	A,(HL)
7F29 DD 77 02       LD	(IX+02),A
7F2C 23             INC	HL
7F2D 7E             LD	A,(HL)
7F2E DD 77 03       LD	(IX+03),A
7F31 C3 3D 7E       JP	7E3D
7F34 AF             XOR	A
7F35 32 08 8F       LD	(8F08),A
7F38 32 09 8F       LD	(8F09),A
7F3B 32 08 84       LD	(8408),A
7F3E 3A 0C 8F       LD	A,(8F0C)
7F41 FE 02          CP	02
- 
7F43 28 03          JR	Z,7F48
7F45 2F             CPL
7F46 18 01          JR	7F49
7F48 AF             XOR	A
7F49 32 07 8F       LD	(8F07),A
7F4C CD 5C AC       CALL	AC5C
7F4F 21 01 8E       LD	HL,8E01
7F52 3A 79 5C       LD	A,(5C79)
7F55 2F             CPL
7F56 BE             CP	(HL)
7F57 CA 62 7F       JP	Z,7F62
7F5A 21 F6 7F       LD	HL,7FF6
7F5D 36 3C          LD	(HL),3C
7F5F C3 62 7F       JP	7F62
7F62 CD EF A2       CALL	A2EF
7F65 CD 36 89       CALL	8936
7F68 CD 31 8F       CALL	8F31
7F6B 21 4E 8D       LD	HL,8D4E
7F6E 11 24 8D       LD	DE,8D24
7F71 01 2A 00       LD	BC,002A
- 
7F74 ED B0          LDIR
7F76 CD E8 A7       CALL	A7E8
7F79 3A 01 8E       LD	A,(8E01)
7F7C FE 09          CP	09
7F7E DC 4C A8       CALL	C,A84C
7F81 CD 5B 7B       CALL	7B5B
7F84 CD D4 83       CALL	83D4
7F87 CD DA EE       CALL	EEDA
7F8A CD F5 8B       CALL	8BF5
7F8D CD 6A A6       CALL	A66A
7F90 3A 09 8F       LD	A,(8F09)
7F93 47             LD	B,A
7F94 A7             AND	A
7F95 C2 78 8D       JP	NZ,8D78
7F98 3A 5E AF       LD	A,(AF5E)
7F9B FE 0E          CP	0E
7F9D CA C6 80       JP	Z,80C6
7FA0 C4 03 81       CALL	NZ,8103
7FA3 3A FA 83       LD	A,(83FA)
7FA6 A7             AND	A
- 
7FA7 C4 21 84       CALL	NZ,8421
7FAA 3A 00 84       LD	A,(8400)
7FAD A7             AND	A
7FAE C4 A2 86       CALL	NZ,86A2
7FB1 21 C6 5D       LD	HL,5DC6
7FB4 34             INC	(HL)
7FB5 3A E4 83       LD	A,(83E4)
7FB8 A7             AND	A
7FB9 C4 A2 84       CALL	NZ,84A2
7FBC 3A E4 83       LD	A,(83E4)
7FBF A7             AND	A
7FC0 C4 10 85       CALL	NZ,8510
7FC3 3A E8 83       LD	A,(83E8)
7FC6 A7             AND	A
7FC7 C4 78 85       CALL	NZ,8578
7FCA 3A 0A 84       LD	A,(840A)
7FCD A7             AND	A
7FCE C4 DD 85       CALL	NZ,85DD
7FD1 3A ED 83       LD	A,(83ED)
7FD4 A7             AND	A
- 
7FD5 C4 C7 87       CALL	NZ,87C7
7FD8 3A F2 83       LD	A,(83F2)
7FDB A7             AND	A
7FDC C4 1B 88       CALL	NZ,881B
7FDF CD B3 88       CALL	88B3
7FE2 ED 5F          LD	A,R
7FE4 07             RLCA
7FE5 32 79 5C       LD	(5C79),A
7FE8 3A C6 5D       LD	A,(5DC6)
7FEB E6 03          AND	03
7FED CC FA 88       CALL	Z,88FA
7FF0 CD 22 A9       CALL	A922
7FF3 3A 02 8E       LD	A,(8E02)
7FF6 A7             AND	A
7FF7 C2 62 7F       JP	NZ,7F62
7FFA 11 7F 09       LD	DE,097F
7FFD CD 68 80       CALL	8068
8000 21 0A F7       LD	HL,F70A
8003 CD 0D AC       CALL	AC0D
8006 06 96          LD	B,96
- 
8008 CD B6 7C       CALL	7CB6
800B 11 7F 1B       LD	DE,1B7F
800E CD 68 80       CALL	8068
8011 21 26 F7       LD	HL,F726
8014 CD 0D AC       CALL	AC0D
8017 06 96          LD	B,96
8019 CD B6 7C       CALL	7CB6
801C 06 0F          LD	B,0F
801E C5             PUSH	BC
801F CD 16 8E       CALL	8E16
8022 C1             POP	BC
8023 10 F9          DJNZ	801E
8025 06 32          LD	B,32
8027 CD B6 7C       CALL	7CB6
802A 11 7F 00       LD	DE,007F
802D CD 68 80       CALL	8068
8030 CD 4F AD       CALL	AD4F
8033 21 A8 F6       LD	HL,F6A8
8036 CD 0D AC       CALL	AC0D
8039 CD 02 FF       CALL	FF02
- 
803C 06 C8          LD	B,C8
803E CD B6 7C       CALL	7CB6
8041 CD 4F AD       CALL	AD4F
8044 CD 4A 80       CALL	804A
8047 C3 D7 F7       JP	F7D7
804A 21 0D 8E       LD	HL,8E0D
804D 11 06 8E       LD	DE,8E06
8050 06 06          LD	B,06
8052 1A             LD	A,(DE)
8053 BE             CP	(HL)
8054 D8             RET	C
8055 20 05          JR	NZ,805C
8057 23             INC	HL
8058 13             INC	DE
8059 10 F7          DJNZ	8052
805B C9             RET
805C 21 06 8E       LD	HL,8E06
805F 11 0D 8E       LD	DE,8E0D
8062 01 06 00       LD	BC,0006
8065 ED B0          LDIR
- 
8067 C9             RET
8068 06 20          LD	B,20
806A 21 00 58       LD	HL,5800
806D C5             PUSH	BC
806E 4B             LD	C,E
806F CD 7C 80       CALL	807C
8072 76             HALT
8073 4A             LD	C,D
8074 CD 7C 80       CALL	807C
8077 23             INC	HL
8078 C1             POP	BC
8079 10 F2          DJNZ	806D
807B C9             RET
807C 06 14          LD	B,14
807E D5             PUSH	DE
807F 11 20 00       LD	DE,0020 ; LD	DE,NEXT_CHAR
8082 E5             PUSH	HL
8083 71             LD	(HL),C
8084 19             ADD	HL,DE
8085 10 FC          DJNZ	8083
- 
8087 E1             POP	HL
8088 D1             POP	DE
8089 C9             RET
808A 3A 4E 8D       LD	A,(8D4E)
808D E6 08          AND	08
808F 47             LD	B,A
8090 3A 04 84       LD	A,(8404)
8093 D6 07          SUB	07
8095 32 50 8D       LD	(8D50),A
8098 3A 05 84       LD	A,(8405)
809B D6 06          SUB	06
809D E6 FE          AND	FE
809F 32 51 8D       LD	(8D51),A
80A2 1F             RRA
80A3 E6 07          AND	07
80A5 80             ADD	A,B
80A6 32 4E 8D       LD	(8D4E),A
80A9 3A 38 A7       LD	A,(A738)
80AC E6 10          AND	10
80AE 20 03          JR	NZ,80B3
- 
80B0 C3 65 82       JP	8265
80B3 AF             XOR	A
80B4 32 08 84       LD	(8408),A
80B7 3E 0F          LD	A,0F
80B9 32 09 84       LD	(8409),A
80BC 32 07 8F       LD	(8F07),A
80BF 21 EC 8E       LD	HL,8EEC
80C2 22 14 8E       LD	(8E14),HL
80C5 C9             RET
80C6 CD 9C A8       CALL	A89C
80C9 3A 70 A9       LD	A,(A970)
80CC A7             AND	A
80CD 28 2A          JR	Z,80F9
80CF CD 65 82       CALL	8265
80D2 3A 4E 8D       LD	A,(8D4E)
80D5 FE 10          CP	10
80D7 DC F3 80       CALL	C,80F3
80DA 3A 38 A7       LD	A,(A738)
80DD E6 18          AND	18
80DF 20 05          JR	NZ,80E6
- 
80E1 CD 40 A4       CALL	A440
80E4 18 0A          JR	80F0
80E6 CD 34 A4       CALL	A434
80E9 21 6F A9       LD	HL,A96F
80EC 35             DEC	(HL)
80ED CC FE 80       CALL	Z,80FE
80F0 C3 A3 7F       JP	7FA3
80F3 C6 14          ADD	A,14
80F5 32 4E 8D       LD	(8D4E),A
80F8 C9             RET
80F9 CD 03 81       CALL	8103
80FC 18 F2          JR	80F0
80FE AF             XOR	A
80FF 32 70 A9       LD	(A970),A
8102 C9             RET
8103 3A 08 84       LD	A,(8408)
8106 A7             AND	A
8107 C2 8A 80       JP	NZ,808A
810A 3A 07 8F       LD	A,(8F07)
810D B0             OR	B
- 
810E A7             AND	A
810F 20 66          JR	NZ,8177
8111 3A 38 A7       LD	A,(A738)
8114 E6 08          AND	08
8116 C4 88 A4       CALL	NZ,A488
8119 3A 38 A7       LD	A,(A738)
811C E6 04          AND	04
811E C4 BA A4       CALL	NZ,A4BA
8121 3A 38 A7       LD	A,(A738)
8124 E6 10          AND	10
8126 C2 13 A5       JP	NZ,A513
8129 3A 27 8D       LD	A,(8D27)
812C E6 06          AND	06
812E CC 75 82       CALL	Z,8275
8131 2A 26 8D       LD	HL,(8D26)
8134 22 27 90       LD	(9027),HL
8137 3A 27 90       LD	A,(9027)
813A C6 0F          ADD	A,0F
813C 32 27 90       LD	(9027),A
813F CD 83 A7       CALL	A783
- 
8142 E6 04          AND	04
8144 C2 5A 82       JP	NZ,825A
8147 3A 27 90       LD	A,(9027)
814A 3C             INC	A
814B 32 27 90       LD	(9027),A
814E CD 83 A7       CALL	A783
8151 E6 04          AND	04
8153 C2 5A 82       JP	NZ,825A
8156 CD 50 A7       CALL	A750
8159 FE 00          CP	00
815B C2 5A 82       JP	NZ,825A
815E 23             INC	HL
815F CD 53 A7       CALL	A753
8162 FE 00          CP	00
8164 C2 5A 82       JP	NZ,825A
8167 3A 28 90       LD	A,(9028)
816A E6 07          AND	07
816C 28 09          JR	Z,8177
816E 23             INC	HL
816F CD 53 A7       CALL	A753
- 
8172 FE 00          CP	00
8174 C2 5A 82       JP	NZ,825A
8177 3A 07 8F       LD	A,(8F07)
817A A7             AND	A
817B 20 0A          JR	NZ,8187
817D 21 F3 8E       LD	HL,8EF3
8180 22 14 8E       LD	(8E14),HL
8183 3C             INC	A
8184 32 07 8F       LD	(8F07),A
8187 2A 14 8E       LD	HL,(8E14)
818A 7E             LD	A,(HL)
818B FE 80          CP	80
818D 20 05          JR	NZ,8194
818F 32 08 8F       LD	(8F08),A
8192 2B             DEC	HL
8193 7E             LD	A,(HL)
8194 23             INC	HL
8195 22 14 8E       LD	(8E14),HL
8198 FE 00          CP	00
819A CA 65 82       JP	Z,8265
- 
819D FE 80          CP	80
819F 30 43          JR	NC,81E4
81A1 47             LD	B,A
81A2 C5             PUSH	BC
81A3 CD 3C A7       CALL	A73C
81A6 21 27 90       LD	HL,9027
81A9 7E             LD	A,(HL)
81AA 35             DEC	(HL)
81AB A7             AND	A
81AC CA 4B A6       JP	Z,A64B
81AF CD 4B A7       CALL	A74B
81B2 E6 02          AND	02
81B4 20 24          JR	NZ,81DA
81B6 23             INC	HL
81B7 CD 59 A7       CALL	A759
81BA E6 02          AND	02
81BC 20 1C          JR	NZ,81DA
81BE 3A 28 90       LD	A,(9028)
81C1 E6 07          AND	07
81C3 28 08          JR	Z,81CD
- 
81C5 23             INC	HL
81C6 CD 59 A7       CALL	A759
81C9 E6 02          AND	02
81CB 20 0D          JR	NZ,81DA
81CD 2A 50 8D       LD	HL,(8D50)
81D0 21 50 8D       LD	HL,8D50
81D3 35             DEC	(HL)
81D4 C1             POP	BC
81D5 10 CB          DJNZ	81A2
81D7 C3 65 82       JP	8265
81DA C1             POP	BC
81DB 21 F3 8E       LD	HL,8EF3
81DE 22 14 8E       LD	(8E14),HL
81E1 C3 65 82       JP	8265
81E4 ED 44          NEG
81E6 F5             PUSH	AF
81E7 CD 3C A7       CALL	A73C
81EA 3A 50 8D       LD	A,(8D50)
81ED C6 10          ADD	A,10
81EF 32 27 90       LD	(9027),A
- 
81F2 3A 27 90       LD	A,(9027)
81F5 E6 07          AND	07
81F7 20 3E          JR	NZ,8237
81F9 CD 83 A7       CALL	A783
81FC FE 80          CP	80
81FE CC 77 A7       CALL	Z,A777
8201 E6 04          AND	04
8203 20 47          JR	NZ,824C
8205 CD 50 A7       CALL	A750
8208 FE 00          CP	00
820A 20 40          JR	NZ,824C
820C 23             INC	HL
820D 7E             LD	A,(HL)
820E FE 80          CP	80
8210 CC 77 A7       CALL	Z,A777
8213 E6 04          AND	04
8215 20 35          JR	NZ,824C
8217 CD 53 A7       CALL	A753
821A FE 00          CP	00
821C 20 2E          JR	NZ,824C
- 
821E 3A 28 90       LD	A,(9028)
8221 E6 07          AND	07
8223 28 12          JR	Z,8237
8225 23             INC	HL
8226 7E             LD	A,(HL)
8227 FE 80          CP	80
8229 CC 77 A7       CALL	Z,A777
822C E6 04          AND	04
822E 20 1C          JR	NZ,824C
8230 CD 53 A7       CALL	A753
8233 FE 00          CP	00
8235 20 15          JR	NZ,824C
8237 2A 50 8D       LD	HL,(8D50)
823A 21 50 8D       LD	HL,8D50
823D 34             INC	(HL)
823E 7E             LD	A,(HL)
823F FE 91          CP	91
8241 D2 65 A6       JP	NC,A665
8244 F1             POP	AF
8245 3D             DEC	A
- 
8246 C2 E6 81       JP	NZ,81E6
8249 C3 65 82       JP	8265
824C C1             POP	BC
824D AF             XOR	A
824E 21 08 8F       LD	HL,8F08
8251 7E             LD	A,(HL)
8252 36 00          LD	(HL),00
8254 A7             AND	A
8255 28 03          JR	Z,825A
8257 CD 02 8F       CALL	8F02
825A 3A 07 8F       LD	A,(8F07)
825D FE 00          CP	00
825F 28 04          JR	Z,8265
8261 AF             XOR	A
8262 32 07 8F       LD	(8F07),A
8265 3A 38 A7       LD	A,(A738)
8268 1F             RRA
8269 DC 69 A5       CALL	C,A569
826C 3A 38 A7       LD	A,(A738)
826F E6 02          AND	02
- 
8271 C4 2D A5       CALL	NZ,A52D
8274 C9             RET
8275 CD 3C A7       CALL	A73C
8278 CD 83 A7       CALL	A783
827B FE 08          CP	08
827D C0             RET	NZ
827E 23             INC	HL
827F 7E             LD	A,(HL)
8280 FE 08          CP	08
8282 C0             RET	NZ
8283 11 FA 05       LD	DE,05FA
8286 CD AE 83       CALL	83AE
8289 CD E2 A9       CALL	A9E2
828C 21 B8 F6       LD	HL,F6B8
828F CD 0D AC       CALL	AC0D
8292 21 CA 5D       LD	HL,5DCA
8295 CD 0D AC       CALL	AC0D
8298 3E 0B          LD	A,0B
829A 32 27 90       LD	(9027),A
829D 06 06          LD	B,06
- 
829F C5             PUSH	BC
82A0 3A 27 90       LD	A,(9027)
82A3 D6 0B          SUB	0B
82A5 21 0F 84       LD	HL,840F
82A8 CD 72 AD       CALL	AD72
82AB 7E             LD	A,(HL)
82AC 21 36 5F       LD	HL,5F36
82AF CD 72 AD       CALL	AD72
82B2 3A 5E AF       LD	A,(AF5E)
82B5 BE             CP	(HL)
82B6 CC 57 83       CALL	Z,8357
82B9 7E             LD	A,(HL)
82BA CD 1C AD       CALL	AD1C
82BD 3E 04          LD	A,04
82BF 32 28 90       LD	(9028),A
82C2 21 CA 5D       LD	HL,5DCA
82C5 CD 0D AC       CALL	AC0D
82C8 21 27 90       LD	HL,9027
82CB 34             INC	(HL)
82CC C1             POP	BC
- 
82CD 10 D0          DJNZ	829F
82CF 11 32 01       LD	DE,0132
82D2 CD AE 83       CALL	83AE
82D5 0E 4F          LD	C,4F
82D7 CD 60 83       CALL	8360
82DA CD 6A A6       CALL	A66A
82DD E6 08          AND	08
82DF C4 36 83       CALL	NZ,8336
82E2 3A 38 A7       LD	A,(A738)
82E5 E6 04          AND	04
82E7 C4 25 83       CALL	NZ,8325
82EA 3A 38 A7       LD	A,(A738)
82ED E6 10          AND	10
82EF 28 E9          JR	Z,82DA
82F1 3A 5E AF       LD	A,(AF5E)
82F4 21 0F 84       LD	HL,840F
82F7 CD 72 AD       CALL	AD72
82FA 7E             LD	A,(HL)
82FB 32 5F AF       LD	(AF5F),A
82FE 21 15 84       LD	HL,8415
- 
8301 3A 5E AF       LD	A,(AF5E)
8304 CD 77 AD       CALL	AD77
8307 11 50 8D       LD	DE,8D50
830A ED A0          LDI
830C ED A0          LDI
830E 2A 50 8D       LD	HL,(8D50)
8311 22 26 8D       LD	(8D26),HL
8314 21 EA F6       LD	HL,F6EA
8317 CD 0D AC       CALL	AC0D
831A CD 78 83       CALL	8378
831D CD 5C AC       CALL	AC5C
8320 AF             XOR	A
8321 32 38 A7       LD	(A738),A
8324 C9             RET
8325 3A 5E AF       LD	A,(AF5E)
8328 FE 05          CP	05
832A C8             RET	Z
832B 0E 03          LD	C,03
832D CD 60 83       CALL	8360
8330 21 5E AF       LD	HL,AF5E
- 
8333 34             INC	(HL)
8334 18 0E          JR	8344
8336 3A 5E AF       LD	A,(AF5E)
8339 A7             AND	A
833A C8             RET	Z
833B 0E 03          LD	C,03
833D CD 60 83       CALL	8360
8340 21 5E AF       LD	HL,AF5E
8343 35             DEC	(HL)
8344 0E 4F          LD	C,4F
8346 CD 60 83       CALL	8360
8349 11 E6 01       LD	DE,01E6
834C CD AE 83       CALL	83AE
834F CD 6A A6       CALL	A66A
8352 E6 0C          AND	0C
8354 20 F9          JR	NZ,834F
8356 C9             RET
8357 3A 27 90       LD	A,(9027)
835A D6 0B          SUB	0B
835C 32 5E AF       LD	(AF5E),A
- 
835F C9             RET
8360 3A 5E AF       LD	A,(AF5E)
8363 C6 0B          ADD	A,0B
8365 32 27 90       LD	(9027),A
8368 3E 04          LD	A,04
836A 32 28 90       LD	(9028),A
836D CD 36 B0       CALL	B036
8370 EB             EX	DE,HL
8371 06 18          LD	B,18
8373 71             LD	(HL),C
8374 2C             INC	L
8375 10 FC          DJNZ	8373
8377 C9             RET
8378 06 0E          LD	B,0E
837A 21 0B 00       LD	HL,000B
837D C5             PUSH	BC
837E E5             PUSH	HL
837F CD A0 83       CALL	83A0
8382 CD C6 83       CALL	83C6
8385 E1             POP	HL
- 
8386 11 04 00       LD	DE,0004
8389 19             ADD	HL,DE
838A C1             POP	BC
838B 10 F0          DJNZ	837D
838D 06 09          LD	B,09
838F C5             PUSH	BC
8390 E5             PUSH	HL
8391 CD A0 83       CALL	83A0
8394 CD C6 83       CALL	83C6
8397 E1             POP	HL
8398 11 F9 FF       LD	DE,FFF9
839B 19             ADD	HL,DE
839C C1             POP	BC
839D 10 F0          DJNZ	838F
839F C9             RET
83A0 11 00 00       LD	DE,0000 ; LD	DE,START
83A3 06 27          LD	B,27
83A5 C5             PUSH	BC
83A6 CD 98 A3       CALL	A398
83A9 C1             POP	BC
- 
83AA 23             INC	HL
83AB 10 F8          DJNZ	83A5
83AD C9             RET
83AE 43             LD	B,E
83AF C5             PUSH	BC
83B0 CD 9E A7       CALL	A79E
83B3 E6 F8          AND	F8
83B5 01 FE 00       LD	BC,00FE
83B8 ED 79          OUT	(C),A
83BA 42             LD	B,D
83BB 7B             LD	A,E
83BC 2F             CPL
83BD 3D             DEC	A
83BE 20 FD          JR	NZ,83BD
83C0 10 F9          DJNZ	83BB
83C2 C1             POP	BC
83C3 10 EA          DJNZ	83AF
83C5 C9             RET
83C6 21 C6 58       LD	HL,58C6
83C9 06 14          LD	B,14
- 
83CB ED 5F          LD	A,R
83CD E6 47          AND	47
83CF 77             LD	(HL),A
83D0 2C             INC	L
83D1 10 F8          DJNZ	83CB
83D3 C9             RET
83D4 3A B9 AF       LD	A,(AFB9)
83D7 A7             AND	A
83D8 C8             RET	Z
83D9 2A BA AF       LD	HL,(AFBA)
83DC 47             LD	B,A
83DD ED 5F          LD	A,R
83DF 77             LD	(HL),A
83E0 2C             INC	L
83E1 10 FA          DJNZ	83DD
83E3 C9             RET
83E4 00             NOP
83E5 00             NOP
83E6 0A             LD	A,(BC)
83E7 0A             LD	A,(BC)
- 
83E8 00             NOP
83E9 80             ADD	A,B
83EA 00             NOP
83EB 80             ADD	A,B
83EC 80             ADD	A,B
83ED 00             NOP
83EE 00             NOP
83EF 00             NOP
83F0 00             NOP
83F1 00             NOP
83F2 00             NOP
83F3 00             NOP
83F4 00             NOP
83F5 00             NOP
83F6 00             NOP
83F7 00             NOP
83F8 00             NOP
83F9 00             NOP
83FA 00             NOP
83FB 00             NOP
- 
83FC 00             NOP
83FD 00             NOP
83FE 00             NOP
83FF 00             NOP
8400 00             NOP
8401 00             NOP
8402 00             NOP
8403 00             NOP
8404 00             NOP
8405 00             NOP
8406 00             NOP
8407 00             NOP
8408 00             NOP
8409 00             NOP
840A 00             NOP
840B 80             ADD	A,B
840C 00             NOP
840D 80             ADD	A,B
840E 80             ADD	A,B
840F 22 7B 4C       LD	(4C7B),HL
- 
8412 86             ADD	A,(HL)
8413 51             LD	D,C
8414 5E             LD	E,(HL)
8415 68             LD	L,B
8416 60             LD	H,B
8417 88             ADC	A,B
8418 78             LD	A,B
8419 58             LD	E,B
841A 60             LD	H,B
841B 48             LD	C,B
841C 18 88          JR	83A6
841E 18 58          JR	8478
8420 58             LD	E,B
8421 21 FB 83       LD	HL,83FB
8424 3A FD 83       LD	A,(83FD)
8427 BE             CP	(HL)
8428 30 2D          JR	NC,8457
842A 3A FE 83       LD	A,(83FE)
842D BE             CP	(HL)
842E 28 2E          JR	Z,845E
- 
8430 3A FA 83       LD	A,(83FA)
8433 86             ADD	A,(HL)
8434 77             LD	(HL),A
8435 3A FF 83       LD	A,(83FF)
8438 BE             CP	(HL)
8439 38 01          JR 	C,843C
843B 7E             LD	A,(HL)
843C 32 27 90       LD	(9027),A
843F 3A FC 83       LD	A,(83FC)
8442 32 28 90       LD	(9028),A
8445 06 09          LD	B,09
8447 11 A3 AA       LD	DE,AAA3
844A CD AC 87       CALL	87AC
844D CD 65 84       CALL	8465
8450 3A FB 83       LD	A,(83FB)
8453 32 FF 83       LD	(83FF),A
8456 C9             RET
8457 3E 01          LD	A,01
8459 32 FA 83       LD	(83FA),A
845C 18 D2          JR	8430
- 
845E 3E FF          LD	A,FF
8460 32 FA 83       LD	(83FA),A
8463 18 CB          JR	8430
8465 3A FC 83       LD	A,(83FC)
8468 C6 0F          ADD	A,0F
846A 21 51 8D       LD	HL,8D51
846D 96             SUB	(HL)
846E FE 1F          CP	1F
8470 D0             RET	NC
8471 3A 26 8D       LD	A,(8D26)
8474 C6 0F          ADD	A,0F
8476 21 FF 83       LD	HL,83FF
8479 BE             CP	(HL)
847A D0             RET	NC
847B 21 50 8D       LD	HL,8D50
847E 3A FB 83       LD	A,(83FB)
8481 D6 10          SUB	10
8483 BE             CP	(HL)
8484 D0             RET	NC
8485 3A FB 83       LD	A,(83FB)
- 
8488 D6 10          SUB	10
848A 32 50 8D       LD	(8D50),A
848D 21 F3 8E       LD	HL,8EF3
8490 22 14 8E       LD	(8E14),HL
8493 AF             XOR	A
8494 32 07 8F       LD	(8F07),A
8497 21 08 8F       LD	HL,8F08
849A 7E             LD	A,(HL)
849B 36 00          LD	(HL),00
849D A7             AND	A
849E C8             RET	Z
849F C3 02 8F       JP	8F02
84A2 3A E5 83       LD	A,(83E5)
84A5 CD AF 84       CALL	84AF
84A8 3A E5 83       LD	A,(83E5)
84AB 3C             INC	A
84AC 32 E5 83       LD	(83E5),A
84AF 47             LD	B,A
84B0 E6 20          AND	20
84B2 C8             RET	Z
- 
84B3 2A E6 83       LD	HL,(83E6)
84B6 22 27 90       LD	(9027),HL
84B9 3A E4 83       LD	A,(83E4)
84BC 47             LD	B,A
84BD C5             PUSH	BC
84BE 3A E5 83       LD	A,(83E5)
84C1 17             RLA
84C2 17             RLA
84C3 17             RLA
84C4 E6 38          AND	38
84C6 21 07 AA       LD	HL,AA07
84C9 5F             LD	E,A
84CA 16 00          LD	D,00
84CC 19             ADD	HL,DE
84CD CD 20 B0       CALL	B020
84D0 EB             EX	DE,HL
84D1 06 08          LD	B,08
84D3 1A             LD	A,(DE)
84D4 AE             XOR	(HL)
84D5 77             LD	(HL),A
- 
84D6 13             INC	DE
84D7 24             INC	H
84D8 10 F9          DJNZ	84D3
84DA 21 27 90       LD	HL,9027
84DD 34             INC	(HL)
84DE C1             POP	BC
84DF 10 DC          DJNZ	84BD
84E1 3A E6 83       LD	A,(83E6)
84E4 32 27 90       LD	(9027),A
84E7 0E 46          LD	C,46
84E9 3A E5 83       LD	A,(83E5)
84EC E6 1F          AND	1F
84EE FE 1F          CP	1F
84F0 28 09          JR	Z,84FB
84F2 3A E5 83       LD	A,(83E5)
84F5 17             RLA
84F6 E6 02          AND	02
84F8 C6 45          ADD	A,45
84FA 4F             LD	C,A
84FB CD 36 B0       CALL	B036
- 
84FE EB             EX	DE,HL
84FF 11 20 00       LD	DE,0020 ; LD	DE,NEXT_CHAR
8502 3A E4 83       LD	A,(83E4)
8505 47             LD	B,A
8506 71             LD	(HL),C
8507 19             ADD	HL,DE
8508 10 FC          DJNZ	8506
850A 3E 02          LD	A,02
850C 32 26 A4       LD	(A426),A
850F C9             RET
8510 CD 3C A7       CALL	A73C
8513 3A E6 83       LD	A,(83E6)
8516 07             RLCA
8517 07             RLCA
8518 07             RLCA
8519 47             LD	B,A
851A 3A 27 90       LD	A,(9027)
851D B8             CP	B
851E D8             RET	C
851F 3A E4 83       LD	A,(83E4)
- 
8522 07             RLCA
8523 07             RLCA
8524 07             RLCA
8525 80             ADD	A,B
8526 47             LD	B,A
8527 3A 27 90       LD	A,(9027)
852A B8             CP	B
852B D0             RET	NC
852C 3A E7 83       LD	A,(83E7)
852F 07             RLCA
8530 07             RLCA
8531 07             RLCA
8532 47             LD	B,A
8533 3A 28 90       LD	A,(9028)
8536 C6 0F          ADD	A,0F
8538 90             SUB	B
8539 FE 16          CP	16
853B 38 01          JR 	C,853E
853D C9             RET
853E 3A E5 83       LD	A,(83E5)
- 
8541 E6 20          AND	20
8543 C8             RET	Z
8544 C3 02 8F       JP	8F02
8547 2A EB 83       LD	HL,(83EB)
854A 22 27 90       LD	(9027),HL
854D 7C             LD	A,H
854E E6 04          AND	04
8550 5F             LD	E,A
8551 1F             RRA
8552 83             ADD	A,E
8553 5F             LD	E,A
8554 16 00          LD	D,00
8556 21 47 AA       LD	HL,AA47
8559 19             ADD	HL,DE
855A EB             EX	DE,HL
855B CD CE 8F       CALL	8FCE
855E 06 03          LD	B,03
8560 1A             LD	A,(DE)
8561 CB EC          SET	5,H
8563 A6             AND	(HL)
- 
8564 CB AC          RES	5,H
8566 AE             XOR	(HL)
8567 77             LD	(HL),A
8568 2C             INC	L
8569 13             INC	DE
856A 1A             LD	A,(DE)
856B CB EC          SET	5,H
856D A6             AND	(HL)
856E CB AC          RES	5,H
8570 AE             XOR	(HL)
8571 77             LD	(HL),A
8572 2D             DEC	L
8573 24             INC	H
8574 13             INC	DE
8575 10 E9          DJNZ	8560
8577 C9             RET
8578 3A E8 83       LD	A,(83E8)
857B FE 80          CP	80
857D 30 0D          JR	NC,858C
857F 3C             INC	A
- 
8580 32 E8 83       LD	(83E8),A
8583 FE 70          CP	70
8585 C0             RET	NZ
8586 3E 01          LD	A,01
8588 32 26 A4       LD	(A426),A
858B C9             RET
858C 28 23          JR	Z,85B1
858E CD 47 85       CALL	8547
8591 3A EC 83       LD	A,(83EC)
8594 C6 04          ADD	A,04
8596 32 EC 83       LD	(83EC),A
8599 CD 47 85       CALL	8547
859C CD 83 A7       CALL	A783
859F FE 02          CP	02
85A1 20 1A          JR	NZ,85BD
85A3 CD 47 85       CALL	8547
85A6 3E C8          LD	A,C8
85A8 32 EB 83       LD	(83EB),A
85AB 3E 01          LD	A,01
85AD 32 E8 83       LD	(83E8),A
- 
85B0 C9             RET
85B1 2A E9 83       LD	HL,(83E9)
85B4 22 EB 83       LD	(83EB),HL
85B7 CD 7F 85       CALL	857F
85BA C3 47 85       JP	8547
85BD 2A 50 8D       LD	HL,(8D50)
85C0 3A EB 83       LD	A,(83EB)
85C3 3C             INC	A
85C4 95             SUB	L
85C5 FE 10          CP	10
85C7 D0             RET	NC
85C8 3A EC 83       LD	A,(83EC)
85CB C6 08          ADD	A,08
85CD 94             SUB	H
85CE FE 18          CP	18
85D0 D0             RET	NC
85D1 C3 02 8F       JP	8F02
85D4 2A 0D 84       LD	HL,(840D)
85D7 22 27 90       LD	(9027),HL
85DA C3 B3 A7       JP	A7B3
- 
85DD 3A 0A 84       LD	A,(840A)
85E0 FE 48          CP	48
85E2 30 0D          JR	NC,85F1
85E4 3C             INC	A
85E5 32 0A 84       LD	(840A),A
85E8 FE 48          CP	48
85EA C0             RET	NZ
85EB 3E 05          LD	A,05
85ED 32 26 A4       LD	(A426),A
85F0 C9             RET
85F1 28 23          JR	Z,8616
85F3 CD D4 85       CALL	85D4
85F6 3A 0E 84       LD	A,(840E)
85F9 D6 04          SUB	04
85FB 32 0E 84       LD	(840E),A
85FE CD D4 85       CALL	85D4
8601 CD 83 A7       CALL	A783
8604 FE 02          CP	02
8606 20 1A          JR	NZ,8622
8608 CD D4 85       CALL	85D4
- 
860B 3E C8          LD	A,C8
860D 32 0D 84       LD	(840D),A
8610 3E 01          LD	A,01
8612 32 0A 84       LD	(840A),A
8615 C9             RET
8616 2A 0B 84       LD	HL,(840B)
8619 22 0D 84       LD	(840D),HL
861C CD E4 85       CALL	85E4
861F C3 D4 85       JP	85D4
8622 2A 50 8D       LD	HL,(8D50)
8625 3A 0D 84       LD	A,(840D)
8628 3C             INC	A
8629 95             SUB	L
862A FE 11          CP	11
862C D0             RET	NC
862D 3A 0E 84       LD	A,(840E)
8630 3C             INC	A
8631 94             SUB	H
8632 FE 11          CP	11
8634 D0             RET	NC
- 
8635 C3 02 8F       JP	8F02
8638 CD C8 A9       CALL	A9C8
863B 36 42          LD	(HL),42
863D 2C             INC	L
863E 36 03          LD	(HL),03
8640 11 93 AA       LD	DE,AA93
8643 06 08          LD	B,08
8645 C3 AC 87       JP	87AC
8648 CD C8 A9       CALL	A9C8
864B 36 47          LD	(HL),47
864D 2C             INC	L
864E 36 05          LD	(HL),05
8650 11 1F 00       LD	DE,001F
8653 19             ADD	HL,DE
8654 36 42          LD	(HL),42
8656 2C             INC	L
8657 36 03          LD	(HL),03
8659 11 83 AA       LD	DE,AA83
865C 06 10          LD	B,10
865E C3 AC 87       JP	87AC
- 
8661 CD C8 A9       CALL	A9C8
8664 11 1F 00       LD	DE,001F
8667 36 42          LD	(HL),42
8669 2C             INC	L
866A 36 03          LD	(HL),03
866C 19             ADD	HL,DE
866D 36 46          LD	(HL),46
866F 2C             INC	L
8670 36 46          LD	(HL),46
8672 C3 59 86       JP	8659
8675 11 B5 AA       LD	DE,AAB5
8678 06 08          LD	B,08
867A C3 AC 87       JP	87AC
867D 2A 02 84       LD	HL,(8402)
8680 22 27 90       LD	(9027),HL
8683 21 07 EC       LD	HL,EC07
8686 06 10          LD	B,10
8688 E5             PUSH	HL
8689 CD 93 87       CALL	8793
868C 3A 27 90       LD	A,(9027)
- 
868F 83             ADD	A,E
8690 32 27 90       LD	(9027),A
8693 3A 28 90       LD	A,(9028)
8696 82             ADD	A,D
8697 32 28 90       LD	(9028),A
869A CD B3 A7       CALL	A7B3
869D E1             POP	HL
869E 23             INC	HL
869F 10 E7          DJNZ	8688
86A1 C9             RET
86A2 2A 02 84       LD	HL,(8402)
86A5 22 27 90       LD	(9027),HL
86A8 22 29 90       LD	(9029),HL
86AB 3A 01 84       LD	A,(8401)
86AE 21 07 EC       LD	HL,EC07
86B1 CD 80 AD       CALL	AD80
86B4 D9             EXX
86B5 3A 00 84       LD	A,(8400)
86B8 21 01 84       LD	HL,8401
86BB 86             ADD	A,(HL)
- 
86BC 77             LD	(HL),A
86BD FE 23          CP	23
86BF CA 88 87       JP	Z,8788
86C2 A7             AND	A
86C3 CA 88 87       JP	Z,8788
86C6 3A 01 84       LD	A,(8401)
86C9 21 07 EC       LD	HL,EC07
86CC CD 80 AD       CALL	AD80
86CF 06 10          LD	B,10
86D1 CD 93 87       CALL	8793
86D4 3A 27 90       LD	A,(9027)
86D7 83             ADD	A,E
86D8 32 27 90       LD	(9027),A
86DB 3A 28 90       LD	A,(9028)
86DE 82             ADD	A,D
86DF 32 28 90       LD	(9028),A
86E2 D9             EXX
86E3 CD 93 87       CALL	8793
86E6 3A 29 90       LD	A,(9029)
86E9 83             ADD	A,E
- 
86EA 32 29 90       LD	(9029),A
86ED 3A 2A 90       LD	A,(902A)
86F0 82             ADD	A,D
86F1 32 2A 90       LD	(902A),A
86F4 23             INC	HL
86F5 D9             EXX
86F6 E5             PUSH	HL
86F7 2A 27 90       LD	HL,(9027)
86FA E5             PUSH	HL
86FB 2A 29 90       LD	HL,(9029)
86FE 22 27 90       LD	(9027),HL
8701 CD B3 A7       CALL	A7B3
8704 E1             POP	HL
8705 22 27 90       LD	(9027),HL
8708 CD B3 A7       CALL	A7B3
870B E1             POP	HL
870C 23             INC	HL
870D 10 C2          DJNZ	86D1
870F 2A 27 90       LD	HL,(9027)
8712 22 04 84       LD	(8404),HL
- 
8715 2A 02 84       LD	HL,(8402)
8718 22 06 84       LD	(8406),HL
871B 3A 01 84       LD	A,(8401)
871E 21 07 EC       LD	HL,EC07
8721 CD 80 AD       CALL	AD80
8724 06 0B          LD	B,0B
8726 CD 93 87       CALL	8793
8729 3A 06 84       LD	A,(8406)
872C 83             ADD	A,E
872D 32 06 84       LD	(8406),A
8730 3A 07 84       LD	A,(8407)
8733 82             ADD	A,D
8734 32 07 84       LD	(8407),A
8737 23             INC	HL
8738 10 EC          DJNZ	8726
873A 3A 08 84       LD	A,(8408)
873D A7             AND	A
873E C0             RET	NZ
873F 21 09 84       LD	HL,8409
8742 7E             LD	A,(HL)
- 
8743 A7             AND	A
8744 20 40          JR	NZ,8786
8746 3A 50 8D       LD	A,(8D50)
8749 C6 10          ADD	A,10
874B 21 04 84       LD	HL,8404
874E 96             SUB	(HL)
874F FE 10          CP	10
8751 30 0D          JR	NC,8760
8753 23             INC	HL
8754 3A 51 8D       LD	A,(8D51)
8757 C6 10          ADD	A,10
8759 96             SUB	(HL)
875A FE 10          CP	10
875C 30 02          JR	NC,8760
875E 18 19          JR	8779
8760 21 06 84       LD	HL,8406
8763 3A 50 8D       LD	A,(8D50)
8766 C6 10          ADD	A,10
8768 21 06 84       LD	HL,8406
876B 96             SUB	(HL)
- 
876C FE 10          CP	10
876E D0             RET	NC
876F 3A 51 8D       LD	A,(8D51)
8772 C6 10          ADD	A,10
8774 23             INC	HL
8775 96             SUB	(HL)
8776 FE 10          CP	10
8778 D0             RET	NC
8779 21 08 84       LD	HL,8408
877C 74             LD	(HL),H
877D AF             XOR	A
877E 32 08 8F       LD	(8F08),A
8781 3E 06          LD	A,06
8783 C3 CA EE       JP	EECA
8786 35             DEC	(HL)
8787 C9             RET
8788 3A 00 84       LD	A,(8400)
878B ED 44          NEG
878D 32 00 84       LD	(8400),A
8790 C3 C6 86       JP	86C6
- 
8793 7E             LD	A,(HL)
8794 1F             RRA
8795 1F             RRA
8796 1F             RRA
8797 1F             RRA
8798 E6 07          AND	07
879A 5F             LD	E,A
879B 7E             LD	A,(HL)
879C E6 07          AND	07
879E 57             LD	D,A
879F 7E             LD	A,(HL)
87A0 E6 08          AND	08
87A2 C8             RET	Z
87A3 AF             XOR	A
87A4 92             SUB	D
87A5 57             LD	D,A
87A6 C9             RET
87A7 11 63 AA       LD	DE,AA63
87AA 06 10          LD	B,10
87AC CD CE 8F       CALL	8FCE
- 
87AF CB EC          SET	5,H
87B1 1A             LD	A,(DE)
87B2 13             INC	DE
87B3 A6             AND	(HL)
87B4 4F             LD	C,A
87B5 2C             INC	L
87B6 1A             LD	A,(DE)
87B7 13             INC	DE
87B8 A6             AND	(HL)
87B9 CB AC          RES	5,H
87BB AE             XOR	(HL)
87BC 77             LD	(HL),A
87BD 2D             DEC	L
87BE 79             LD	A,C
87BF AE             XOR	(HL)
87C0 77             LD	(HL),A
87C1 CD 14 90       CALL	9014
87C4 10 E9          DJNZ	87AF
87C6 C9             RET
87C7 2A F0 83       LD	HL,(83F0)
- 
87CA ED 4B 26 8D    LD	BC,(8D26)
87CE CD A5 88       CALL	88A5
87D1 DC 02 8F       CALL	C,8F02
87D4 3A C6 5D       LD	A,(5DC6)
87D7 FE 44          CP	44
87D9 D8             RET	C
87DA FE 4C          CP	4C
87DC 38 19          JR 	C,87F7
87DE FE CC          CP	CC
87E0 D8             RET	C
87E1 FE D4          CP	D4
87E3 D0             RET	NC
87E4 2A F0 83       LD	HL,(83F0)
87E7 22 27 90       LD	(9027),HL
87EA CD A7 87       CALL	87A7
87ED 3A C6 5D       LD	A,(5DC6)
87F0 D6 D3          SUB	D3
87F2 ED 44          NEG
87F4 C3 05 88       JP	8805
87F7 2A F0 83       LD	HL,(83F0)
- 
87FA 22 27 90       LD	(9027),HL
87FD CD A7 87       CALL	87A7
8800 3A C6 5D       LD	A,(5DC6)
8803 D6 43          SUB	43
8805 21 EE 83       LD	HL,83EE
8808 86             ADD	A,(HL)
8809 32 F0 83       LD	(83F0),A
880C 2A F0 83       LD	HL,(83F0)
880F 22 27 90       LD	(9027),HL
8812 CD A7 87       CALL	87A7
8815 3E 03          LD	A,03
8817 32 26 A4       LD	(A426),A
881A C9             RET
881B 21 F9 83       LD	HL,83F9
881E 34             INC	(HL)
881F 3A F4 83       LD	A,(83F4)
8822 A7             AND	A
8823 20 0B          JR	NZ,8830
8825 7E             LD	A,(HL)
8826 21 F3 83       LD	HL,83F3
- 
8829 BE             CP	(HL)
882A C0             RET	NZ
882B 21 F4 83       LD	HL,83F4
882E 34             INC	(HL)
882F C9             RET
8830 3D             DEC	A
8831 20 32          JR	NZ,8865
8833 3E 05          LD	A,05
8835 32 26 A4       LD	(A426),A
8838 2A F7 83       LD	HL,(83F7)
883B 22 27 90       LD	(9027),HL
883E CD 48 86       CALL	8648
8841 2A F7 83       LD	HL,(83F7)
8844 3E 08          LD	A,08
8846 85             ADD	A,L
8847 6F             LD	L,A
8848 22 F7 83       LD	(83F7),HL
884B 22 27 90       LD	(9027),HL
884E CD 8C 88       CALL	888C
8851 CD 83 A7       CALL	A783
- 
8854 11 20 00       LD	DE,0020 ; LD	DE,NEXT_CHAR
8857 19             ADD	HL,DE
8858 7E             LD	A,(HL)
8859 A7             AND	A
885A C8             RET	Z
885B 21 F4 83       LD	HL,83F4
885E 34             INC	(HL)
885F 3E 06          LD	A,06
8861 32 26 A4       LD	(A426),A
8864 C9             RET
8865 2A F7 83       LD	HL,(83F7)
8868 3E F8          LD	A,F8
886A 85             ADD	A,L
886B 6F             LD	L,A
886C 22 F7 83       LD	(83F7),HL
886F 22 27 90       LD	(9027),HL
8872 3E 05          LD	A,05
8874 32 26 A4       LD	(A426),A
8877 CD 61 86       CALL	8661
887A CD 83 A7       CALL	A783
- 
887D 11 E0 FF       LD	DE,FFE0
8880 19             ADD	HL,DE
8881 7E             LD	A,(HL)
8882 A7             AND	A
8883 C8             RET	Z
8884 AF             XOR	A
8885 32 F4 83       LD	(83F4),A
8888 32 F9 83       LD	(83F9),A
888B C9             RET
888C 3A F7 83       LD	A,(83F7)
888F C6 07          ADD	A,07
8891 21 50 8D       LD	HL,8D50
8894 96             SUB	(HL)
8895 FE 10          CP	10
8897 D0             RET	NC
8898 23             INC	HL
8899 3A F8 83       LD	A,(83F8)
889C C6 0F          ADD	A,0F
889E 96             SUB	(HL)
889F FE 1E          CP	1E
- 
88A1 D0             RET	NC
88A2 C3 02 8F       JP	8F02
88A5 7D             LD	A,L
88A6 91             SUB	C
88A7 C6 0F          ADD	A,0F
88A9 FE 1F          CP	1F
88AB D0             RET	NC
88AC 7C             LD	A,H
88AD 90             SUB	B
88AE C6 0F          ADD	A,0F
88B0 FE 1F          CP	1F
88B2 C9             RET
88B3 11 00 78       LD	DE,7800
88B6 21 00 40       LD	HL,4000
88B9 06 00          LD	B,00
88BB CD C9 88       CALL	88C9
88BE 26 48          LD	H,48
88C0 06 00          LD	B,00
88C2 CD C9 88       CALL	88C9
88C5 26 50          LD	H,50
- 
88C7 06 80          LD	B,80
88C9 1A             LD	A,(DE)
88CA E6 60          AND	60
88CC C4 D4 88       CALL	NZ,88D4
88CF 13             INC	DE
88D0 2C             INC	L
88D1 10 F6          DJNZ	88C9
88D3 C9             RET
88D4 FE 40          CP	40
88D6 20 16          JR	NZ,88EE
88D8 C5             PUSH	BC
88D9 4E             LD	C,(HL)
88DA 06 07          LD	B,07
88DC 24             INC	H
88DD 7E             LD	A,(HL)
88DE 71             LD	(HL),C
88DF 4F             LD	C,A
88E0 10 FA          DJNZ	88DC
88E2 7C             LD	A,H
88E3 D6 07          SUB	07
- 
88E5 67             LD	H,A
88E6 71             LD	(HL),C
88E7 C1             POP	BC
88E8 3E 03          LD	A,03
88EA 32 26 A4       LD	(A426),A
88ED C9             RET
88EE 3E 08          LD	A,08
88F0 4C             LD	C,H
88F1 CB 0E          RRC	(HL)
88F3 24             INC	H
88F4 3D             DEC	A
88F5 C2 F1 88       JP	NZ,88F1
88F8 61             LD	H,C
88F9 C9             RET
88FA 3A C6 5D       LD	A,(5DC6)
88FD 1F             RRA
88FE 1F             RRA
88FF E6 03          AND	03
8901 C6 44          ADD	A,44
8903 21 84 5A       LD	HL,5A84
- 
8906 77             LD	(HL),A
8907 2C             INC	L
8908 77             LD	(HL),A
8909 2C             INC	L
890A 77             LD	(HL),A
890B 2C             INC	L
890C 77             LD	(HL),A
890D 2C             INC	L
890E 77             LD	(HL),A
890F 2C             INC	L
8910 77             LD	(HL),A
8911 2C             INC	L
8912 77             LD	(HL),A
8913 2C             INC	L
8914 77             LD	(HL),A
8915 2C             INC	L
8916 77             LD	(HL),A
8917 2C             INC	L
8918 77             LD	(HL),A
8919 2C             INC	L
- 
891A 77             LD	(HL),A
891B 2C             INC	L
891C 77             LD	(HL),A
891D 2C             INC	L
891E 77             LD	(HL),A
891F 2C             INC	L
8920 77             LD	(HL),A
8921 2C             INC	L
8922 77             LD	(HL),A
8923 2C             INC	L
8924 77             LD	(HL),A
8925 2C             INC	L
8926 77             LD	(HL),A
8927 2C             INC	L
8928 77             LD	(HL),A
8929 2C             INC	L
892A 77             LD	(HL),A
892B 2C             INC	L
892C 77             LD	(HL),A
892D 2C             INC	L
- 
892E 77             LD	(HL),A
892F 2C             INC	L
8930 77             LD	(HL),A
8931 2C             INC	L
8932 77             LD	(HL),A
8933 2C             INC	L
8934 77             LD	(HL),A
8935 C9             RET
8936 DD 21 55 8D    LD	IX,8D55
893A 06 05          LD	B,05
893C C5             PUSH	BC
893D DD 7E 00       LD	A,(IX+00)
8940 3C             INC	A
8941 C4 4D 89       CALL	NZ,894D
8944 11 07 00       LD	DE,0007
8947 DD 19          ADD	IX,DE
8949 C1             POP	BC
894A 10 F0          DJNZ	893C
894C C9             RET
894D CD 25 8B       CALL	8B25
- 
8950 DD 7E 00       LD	A,(IX+00)
8953 FE 94          CP	94
8955 D2 CB 8A       JP	NC,8ACB
8958 FE 28          CP	28
895A 38 0F          JR 	C,896B
895C FE 2C          CP	2C
895E 38 44          JR 	C,89A4
8960 FE 64          CP	64
8962 DA E8 89       JP	C,89E8
8965 FE 94          CP	94
8967 DA EF 89       JP	C,89EF
896A C9             RET
896B 3A C6 5D       LD	A,(5DC6)
896E 1F             RRA
896F D8             RET	C
8970 2A 26 8D       LD	HL,(8D26)
8973 DD 7E 02       LD	A,(IX+02)
8976 BD             CP	L
8977 28 0A          JR	Z,8983
8979 38 05          JR 	C,8980
- 
897B DD 35 02       DEC	(IX+02)
897E 18 03          JR	8983
8980 DD 34 02       INC	(IX+02)
8983 DD 7E 03       LD	A,(IX+03)
8986 BC             CP	H
8987 28 0A          JR	Z,8993
8989 38 05          JR 	C,8990
898B DD 35 03       DEC	(IX+03)
898E 18 03          JR	8993
8990 DD 34 03       INC	(IX+03)
8993 DD 7E 03       LD	A,(IX+03)
8996 1F             RRA
8997 E6 03          AND	03
8999 47             LD	B,A
899A DD 7E 00       LD	A,(IX+00)
899D E6 FC          AND	FC
899F 80             ADD	A,B
89A0 DD 77 00       LD	(IX+00),A
89A3 C9             RET
89A4 3E 04          LD	A,04
- 
89A6 32 26 A4       LD	(A426),A
89A9 DD 7E 02       LD	A,(IX+02)
89AC FE 50          CP	50
89AE 38 18          JR 	C,89C8
89B0 DD 7E 03       LD	A,(IX+03)
89B3 FE 08          CP	08
89B5 38 28          JR 	C,89DF
89B7 D6 02          SUB	02
89B9 DD 77 03       LD	(IX+03),A
89BC DD 7E 03       LD	A,(IX+03)
89BF 1F             RRA
89C0 E6 03          AND	03
89C2 C6 28          ADD	A,28
89C4 DD 77 00       LD	(IX+00),A
89C7 C9             RET
89C8 DD 7E 03       LD	A,(IX+03)
89CB FE E8          CP	E8
89CD 30 07          JR	NC,89D6
89CF C6 02          ADD	A,02
89D1 DD 77 03       LD	(IX+03),A
- 
89D4 18 E6          JR	89BC
89D6 DD 7E 02       LD	A,(IX+02)
89D9 C6 02          ADD	A,02
89DB DD 77 02       LD	(IX+02),A
89DE C9             RET
89DF DD 36 02 30    LD	(IX+02),30
89E3 DD 36 03 60    LD	(IX+03),60
89E7 C9             RET
89E8 0E 03          LD	C,03
89EA E6 FC          AND	FC
89EC 47             LD	B,A
89ED 18 72          JR	8A61
89EF 0E 03          LD	C,03
89F1 E6 FC          AND	FC
89F3 47             LD	B,A
89F4 DD 7E 01       LD	A,(IX+01)
89F7 5F             LD	E,A
89F8 E6 07          AND	07
89FA 57             LD	D,A
89FB 7B             LD	A,E
- 
89FC E6 80          AND	80
89FE 28 3E          JR	Z,8A3E
8A00 7A             LD	A,D
8A01 FE 05          CP	05
8A03 CC C8 8A       CALL	Z,8AC8
8A06 DD 7E 02       LD	A,(IX+02)
8A09 82             ADD	A,D
8A0A E6 07          AND	07
8A0C CC D2 8C       CALL	Z,8CD2
8A0F DD 7E 02       LD	A,(IX+02)
8A12 82             ADD	A,D
8A13 DD 77 02       LD	(IX+02),A
8A16 DD 7E 05       LD	A,(IX+05)
8A19 3D             DEC	A
8A1A DD BE 02       CP	(IX+02)
8A1D 30 13          JR	NC,8A32
8A1F 3C             INC	A
8A20 DD 77 02       LD	(IX+02),A
8A23 CD 29 8A       CALL	8A29
8A26 C3 32 8A       JP	8A32
- 
8A29 DD 7E 01       LD	A,(IX+01)
8A2C EE 80          XOR	80
8A2E DD 77 01       LD	(IX+01),A
8A31 C9             RET
8A32 DD 7E 02       LD	A,(IX+02)
8A35 1F             RRA
8A36 A1             AND	C
8A37 80             ADD	A,B
8A38 DD 77 00       LD	(IX+00),A
8A3B C3 94 8C       JP	8C94
8A3E 7A             LD	A,D
8A3F FE 05          CP	05
8A41 CC C5 8A       CALL	Z,8AC5
8A44 DD 7E 02       LD	A,(IX+02)
8A47 E6 07          AND	07
8A49 92             SUB	D
8A4A CC DD 8C       CALL	Z,8CDD
8A4D DD 7E 02       LD	A,(IX+02)
8A50 92             SUB	D
8A51 DD 77 02       LD	(IX+02),A
- 
8A54 DD 7E 04       LD	A,(IX+04)
8A57 DD BE 02       CP	(IX+02)
8A5A 38 D6          JR 	C,8A32
8A5C DD 77 02       LD	(IX+02),A
8A5F 18 C8          JR	8A29
8A61 DD 7E 01       LD	A,(IX+01)
8A64 E6 06          AND	06
8A66 57             LD	D,A
8A67 20 07          JR	NZ,8A70
8A69 3A C6 5D       LD	A,(5DC6)
8A6C 1F             RRA
8A6D D8             RET	C
8A6E 16 02          LD	D,02
8A70 DD 7E 01       LD	A,(IX+01)
8A73 E6 80          AND	80
8A75 28 28          JR	Z,8A9F
8A77 DD 7E 03       LD	A,(IX+03)
8A7A 82             ADD	A,D
8A7B E6 07          AND	07
8A7D CC EC 8C       CALL	Z,8CEC
- 
8A80 DD 7E 03       LD	A,(IX+03)
8A83 82             ADD	A,D
8A84 DD 77 03       LD	(IX+03),A
8A87 DD 7E 05       LD	A,(IX+05)
8A8A 3D             DEC	A
8A8B DD BE 03       CP	(IX+03)
8A8E 30 09          JR	NC,8A99
8A90 78             LD	A,B
8A91 FE 44          CP	44
8A93 DC BC 8A       CALL	C,8ABC
8A96 CD 29 8A       CALL	8A29
8A99 DD 7E 03       LD	A,(IX+03)
8A9C C3 35 8A       JP	8A35
8A9F DD 7E 03       LD	A,(IX+03)
8AA2 E6 07          AND	07
8AA4 92             SUB	D
8AA5 CC FA 8C       CALL	Z,8CFA
8AA8 DD 7E 03       LD	A,(IX+03)
8AAB 92             SUB	D
8AAC DD 77 03       LD	(IX+03),A
- 
8AAF DD 7E 04       LD	A,(IX+04)
8AB2 DD BE 03       CP	(IX+03)
8AB5 38 E2          JR 	C,8A99
8AB7 DD 77 03       LD	(IX+03),A
8ABA 18 D4          JR	8A90
8ABC 78             LD	A,B
8ABD D6 2C          SUB	2C
8ABF EE 04          XOR	04
8AC1 C6 2C          ADD	A,2C
8AC3 47             LD	B,A
8AC4 C9             RET
8AC5 16 01          LD	D,01
8AC7 C9             RET
8AC8 16 04          LD	D,04
8ACA C9             RET
8ACB FE 95          CP	95
8ACD 30 23          JR	NC,8AF2
8ACF DD 7E 01       LD	A,(IX+01)
8AD2 DD 86 02       ADD	A,(IX+02)
8AD5 DD 77 02       LD	(IX+02),A
- 
8AD8 FE C0          CP	C0
8ADA D0             RET	NC
8ADB FE 90          CP	90
8ADD 30 13          JR	NC,8AF2
8ADF C6 0E          ADD	A,0E
8AE1 6F             LD	L,A
8AE2 DD 66 03       LD	H,(IX+03)
8AE5 22 27 90       LD	(9027),HL
8AE8 CD 83 A7       CALL	A783
8AEB A7             AND	A
8AEC 20 04          JR	NZ,8AF2
8AEE 23             INC	HL
8AEF 7E             LD	A,(HL)
8AF0 A7             AND	A
8AF1 C8             RET	Z
8AF2 DD 34 00       INC	(IX+00)
8AF5 3E 05          LD	A,05
8AF7 32 26 A4       LD	(A426),A
8AFA DD 7E 00       LD	A,(IX+00)
8AFD FE 9A          CP	9A
- 
8AFF D8             RET	C
8B00 DD 36 00 94    LD	(IX+00),94
8B04 DD 36 02 C0    LD	(IX+02),C0
8B08 3A 23 8B       LD	A,(8B23)
8B0B 5F             LD	E,A
8B0C CD 9E A7       CALL	A79E
8B0F E6 F8          AND	F8
8B11 FE F8          CP	F8
8B13 30 F7          JR	NC,8B0C
8B15 FE 08          CP	08
8B17 38 F3          JR 	C,8B0C
8B19 BB             CP	E
8B1A 28 F0          JR	Z,8B0C
8B1C DD 77 03       LD	(IX+03),A
8B1F 32 23 8B       LD	(8B23),A
8B22 C9             RET
8B23 00             NOP
8B24 00             NOP
8B25 DD 4E 02       LD	C,(IX+02)
8B28 DD 46 03       LD	B,(IX+03)
- 
8B2B 2A 26 8D       LD	HL,(8D26)
8B2E CD 35 8B       CALL	8B35
8B31 DA 02 8F       JP	C,8F02
8B34 C9             RET
8B35 7D             LD	A,L
8B36 91             SUB	C
8B37 5F             LD	E,A
8B38 30 02          JR	NC,8B3C
8B3A ED 44          NEG
8B3C FE 10          CP	10
8B3E D0             RET	NC
8B3F 7C             LD	A,H
8B40 90             SUB	B
8B41 57             LD	D,A
8B42 30 02          JR	NC,8B46
8B44 ED 44          NEG
8B46 FE 10          CP	10
8B48 D0             RET	NC
8B49 CD CD 8B       CALL	8BCD
8B4C CD B2 8B       CALL	8BB2
- 
8B4F E5             PUSH	HL
8B50 C5             PUSH	BC
8B51 DD 7E 03       LD	A,(IX+03)
8B54 32 28 90       LD	(9028),A
8B57 DD 7E 00       LD	A,(IX+00)
8B5A CD 0D 8F       CALL	8F0D
8B5D E1             POP	HL
8B5E 19             ADD	HL,DE
8B5F D1             POP	DE
8B60 3A F1 8B       LD	A,(8BF1)
8B63 ED 44          NEG
8B65 C6 10          ADD	A,10
8B67 08             EX	AF,AF'
8B68 1A             LD	A,(DE)
8B69 A0             AND	B
8B6A A6             AND	(HL)
8B6B 20 1E          JR	NZ,8B8B
8B6D 13             INC	DE
8B6E 23             INC	HL
8B6F 1A             LD	A,(DE)
- 
8B70 A6             AND	(HL)
8B71 20 18          JR	NZ,8B8B
8B73 13             INC	DE
8B74 2B             DEC	HL
8B75 1A             LD	A,(DE)
8B76 A1             AND	C
8B77 A6             AND	(HL)
8B78 20 11          JR	NZ,8B8B
8B7A 23             INC	HL
8B7B 23             INC	HL
8B7C 7B             LD	A,E
8B7D C6 05          ADD	A,05
8B7F D2 83 8B       JP	NC,8B83
8B82 14             INC	D
8B83 5F             LD	E,A
8B84 08             EX	AF,AF'
8B85 3D             DEC	A
8B86 C2 67 8B       JP	NZ,8B67
8B89 A7             AND	A
8B8A C9             RET
- 
8B8B 37             SCF
8B8C C9             RET
8B8D 21 24 8C       LD	HL,8C24
8B90 11 00 40       LD	DE,4000
8B93 06 10          LD	B,10
8B95 C5             PUSH	BC
8B96 ED A0          LDI
8B98 ED A0          LDI
8B9A ED A0          LDI
8B9C ED A0          LDI
8B9E ED A0          LDI
8BA0 ED A0          LDI
8BA2 ED A0          LDI
8BA4 EB             EX	DE,HL
8BA5 01 F9 FF       LD	BC,FFF9
8BA8 09             ADD	HL,BC
8BA9 CD 14 90       CALL	9014
8BAC EB             EX	DE,HL
8BAD C1             POP	BC
8BAE 10 E5          DJNZ	8B95
- 
8BB0 18 FE          JR	8BB0
8BB2 DD 7E 03       LD	A,(IX+03)
8BB5 E6 F8          AND	F8
8BB7 5F             LD	E,A
8BB8 3A 27 8D       LD	A,(8D27)
8BBB E6 F8          AND	F8
8BBD 93             SUB	E
8BBE C8             RET	Z
8BBF 38 06          JR 	C,8BC7
8BC1 2B             DEC	HL
8BC2 D6 08          SUB	08
8BC4 20 FB          JR	NZ,8BC1
8BC6 C9             RET
8BC7 23             INC	HL
8BC8 C6 08          ADD	A,08
8BCA 20 FB          JR	NZ,8BC7
8BCC C9             RET
8BCD 21 26 8C       LD	HL,8C26
8BD0 01 00 00       LD	BC,0000 ; LD	BC,START
8BD3 7B             LD	A,E
- 
8BD4 32 F1 8B       LD	(8BF1),A
8BD7 A7             AND	A
8BD8 C8             RET	Z
8BD9 FE 80          CP	80
8BDB 38 0F          JR 	C,8BEC
8BDD ED 44          NEG
8BDF 5F             LD	E,A
8BE0 32 F1 8B       LD	(8BF1),A
8BE3 07             RLCA
8BE4 07             RLCA
8BE5 07             RLCA
8BE6 93             SUB	E
8BE7 5F             LD	E,A
8BE8 16 00          LD	D,00
8BEA 19             ADD	HL,DE
8BEB C9             RET
8BEC 07             RLCA
8BED 4F             LD	C,A
8BEE 06 00          LD	B,00
8BF0 C9             RET
- 
8BF1 00             NOP
8BF2 00             NOP
8BF3 00             NOP
8BF4 00             NOP
8BF5 3A 27 8D       LD	A,(8D27)
8BF8 32 28 90       LD	(9028),A
8BFB 3A 4E 8D       LD	A,(8D4E)
8BFE CD 0D 8F       CALL	8F0D
8C01 EB             EX	DE,HL
8C02 11 26 8C       LD	DE,8C26
8C05 3E 10          LD	A,10
8C07 08             EX	AF,AF'
8C08 7E             LD	A,(HL)
8C09 A0             AND	B
8C0A 12             LD	(DE),A
8C0B 13             INC	DE
8C0C 23             INC	HL
8C0D 7E             LD	A,(HL)
8C0E 12             LD	(DE),A
8C0F 13             INC	DE
- 
8C10 2B             DEC	HL
8C11 7E             LD	A,(HL)
8C12 A1             AND	C
8C13 12             LD	(DE),A
8C14 23             INC	HL
8C15 23             INC	HL
8C16 7B             LD	A,E
8C17 C6 05          ADD	A,05
8C19 D2 1D 8C       JP	NC,8C1D
8C1C 14             INC	D
8C1D 5F             LD	E,A
8C1E 08             EX	AF,AF'
8C1F 3D             DEC	A
8C20 C2 07 8C       JP	NZ,8C07
8C23 C9             RET
8C24 00             NOP
8C25 00             NOP
8C26 00             NOP
8C27 7C             LD	A,H
8C28 00             NOP
- 
8C29 00             NOP
8C2A 00             NOP
8C2B 00             NOP
8C2C 00             NOP
8C2D 01 FF 00       LD	BC,00FF
8C30 00             NOP
8C31 00             NOP
8C32 00             NOP
8C33 00             NOP
8C34 07             RLCA
8C35 FF             RST	38
8C36 80             ADD	A,B
8C37 00             NOP
8C38 00             NOP
8C39 00             NOP
8C3A 00             NOP
8C3B 0F             RRCA
8C3C F9             LD	SP,HL
8C3D 80             ADD	A,B
8C3E 00             NOP
- 
8C3F 00             NOP
8C40 00             NOP
8C41 00             NOP
8C42 1F             RRA
8C43 F6 80          OR	80
8C45 00             NOP
8C46 00             NOP
8C47 00             NOP
8C48 00             NOP
8C49 1F             RRA
8C4A F2 80 00       JP	P,0080
8C4D 00             NOP
8C4E 00             NOP
8C4F 00             NOP
8C50 3B             DEC 	SP
8C51 F0             RET	P
8C52 80             ADD	A,B
8C53 00             NOP
8C54 00             NOP
8C55 00             NOP
- 
8C56 00             NOP
8C57 37             SCF
8C58 F0             RET	P
8C59 80             ADD	A,B
8C5A 00             NOP
8C5B 00             NOP
8C5C 00             NOP
8C5D 00             NOP
8C5E 34             INC	(HL)
8C5F D9             EXX
8C60 00             NOP
8C61 00             NOP
8C62 00             NOP
8C63 00             NOP
8C64 00             NOP
8C65 13             INC	DE
8C66 6F             LD	L,A
8C67 00             NOP
8C68 00             NOP
8C69 00             NOP
- 
8C6A 00             NOP
8C6B 00             NOP
8C6C 1A             LD	A,(DE)
8C6D F0             RET	P
8C6E 00             NOP
8C6F 00             NOP
8C70 00             NOP
8C71 00             NOP
8C72 00             NOP
8C73 0D             DEC	C
8C74 FE 00          CP	00
8C76 00             NOP
8C77 00             NOP
8C78 00             NOP
8C79 00             NOP
8C7A 07             RLCA
8C7B 98             SBC	A,B
8C7C 00             NOP
8C7D 00             NOP
8C7E 00             NOP
- 
8C7F 00             NOP
8C80 00             NOP
8C81 01 C0 00       LD	BC,00C0
8C84 00             NOP
8C85 00             NOP
8C86 00             NOP
8C87 00             NOP
8C88 00             NOP
8C89 D8             RET	C
8C8A 00             NOP
8C8B 00             NOP
8C8C 00             NOP
8C8D 00             NOP
8C8E 00             NOP
8C8F 01 F8 00       LD	BC,00F8
8C92 00             NOP
8C93 00             NOP
8C94 DD 4E 06       LD	C,(IX+06)
8C97 CD 0A 8D       CALL	8D0A
8C9A DD 7E 03       LD	A,(IX+03)
- 
8C9D E6 07          AND	07
8C9F CA BD 8C       JP	Z,8CBD
8CA2 71             LD	(HL),C
8CA3 2C             INC	L
8CA4 71             LD	(HL),C
8CA5 2C             INC	L
8CA6 71             LD	(HL),C
8CA7 11 1E 00       LD	DE,001E
8CAA 19             ADD	HL,DE
8CAB 71             LD	(HL),C
8CAC 2C             INC	L
8CAD 71             LD	(HL),C
8CAE 2C             INC	L
8CAF 71             LD	(HL),C
8CB0 DD 7E 02       LD	A,(IX+02)
8CB3 E6 07          AND	07
8CB5 C8             RET	Z
8CB6 19             ADD	HL,DE
8CB7 71             LD	(HL),C
8CB8 2C             INC	L
- 
8CB9 71             LD	(HL),C
8CBA 2C             INC	L
8CBB 71             LD	(HL),C
8CBC C9             RET
8CBD 71             LD	(HL),C
8CBE 2C             INC	L
8CBF 71             LD	(HL),C
8CC0 11 1F 00       LD	DE,001F
8CC3 19             ADD	HL,DE
8CC4 71             LD	(HL),C
8CC5 2C             INC	L
8CC6 71             LD	(HL),C
8CC7 DD 7E 02       LD	A,(IX+02)
8CCA E6 07          AND	07
8CCC C8             RET	Z
8CCD 19             ADD	HL,DE
8CCE 71             LD	(HL),C
8CCF 2C             INC	L
8CD0 71             LD	(HL),C
8CD1 C9             RET
- 
8CD2 D9             EXX
8CD3 CD 0A 8D       CALL	8D0A
8CD6 3E 46          LD	A,46
8CD8 77             LD	(HL),A
8CD9 23             INC	HL
8CDA 77             LD	(HL),A
8CDB D9             EXX
8CDC C9             RET
8CDD D9             EXX
8CDE CD 0A 8D       CALL	8D0A
8CE1 01 40 00       LD	BC,0040
8CE4 09             ADD	HL,BC
8CE5 3E 46          LD	A,46
8CE7 77             LD	(HL),A
8CE8 23             INC	HL
8CE9 77             LD	(HL),A
8CEA D9             EXX
8CEB C9             RET
8CEC D9             EXX
8CED CD 0A 8D       CALL	8D0A
- 
8CF0 3E 46          LD	A,46
8CF2 77             LD	(HL),A
8CF3 01 20 00       LD	BC,0020 ; LD	BC,NEXT_CHAR
8CF6 09             ADD	HL,BC
8CF7 77             LD	(HL),A
8CF8 D9             EXX
8CF9 C9             RET
8CFA D9             EXX
8CFB CD 0A 8D       CALL	8D0A
8CFE 23             INC	HL
8CFF 23             INC	HL
8D00 3E 46          LD	A,46
8D02 77             LD	(HL),A
8D03 01 20 00       LD	BC,0020 ; LD	BC,NEXT_CHAR
8D06 09             ADD	HL,BC
8D07 77             LD	(HL),A
8D08 D9             EXX
8D09 C9             RET
8D0A DD 7E 02       LD	A,(IX+02)
8D0D 07             RLCA
- 
8D0E 07             RLCA
8D0F 6F             LD	L,A
8D10 E6 03          AND	03
8D12 C6 58          ADD	A,58
8D14 67             LD	H,A
8D15 7D             LD	A,L
8D16 E6 E0          AND	E0
8D18 6F             LD	L,A
8D19 DD 7E 03       LD	A,(IX+03)
8D1C 1F             RRA
8D1D 1F             RRA
8D1E 1F             RRA
8D1F E6 1F          AND	1F
8D21 85             ADD	A,L
8D22 6F             LD	L,A
8D23 C9             RET
8D24 0D             DEC	C
8D25 00             NOP
8D26 60             LD	H,B
8D27 78             LD	A,B
- 
8D28 00             NOP
8D29 00             NOP
8D2A 00             NOP
8D2B 79             LD	A,C
8D2C 01 5A 48       LD	BC,485A
8D2F 08             EX	AF,AF'
8D30 60             LD	H,B
8D31 43             LD	B,E
8D32 7A             LD	A,D
8D33 81             ADD	A,C
8D34 0D             DEC	C
8D35 98             SBC	A,B
8D36 08             EX	AF,AF'
8D37 60             LD	H,B
8D38 46             LD	B,(HL)
8D39 5A             LD	E,D
8D3A 01 80 C4       LD	BC,C480
8D3D 68             LD	L,B
8D3E F0             RET	P
8D3F 47             LD	B,A
- 
8D40 FF             RST	38
8D41 FF             RST	38
8D42 FF             RST	38
8D43 FF             RST	38
8D44 FF             RST	38
8D45 FF             RST	38
8D46 FF             RST	38
8D47 FF             RST	38
8D48 FF             RST	38
8D49 FF             RST	38
8D4A FF             RST	38
8D4B FF             RST	38
8D4C FF             RST	38
8D4D FF             RST	38
8D4E 00             NOP
8D4F 00             NOP
8D50 60             LD	H,B
8D51 78             LD	A,B
8D52 00             NOP
8D53 00             NOP
- 
8D54 00             NOP
8D55 79             LD	A,C
8D56 01 5A 48       LD	BC,485A
8D59 08             EX	AF,AF'
8D5A 60             LD	H,B
8D5B 43             LD	B,E
8D5C 7A             LD	A,D
8D5D 81             ADD	A,C
8D5E 0D             DEC	C
8D5F 98             SBC	A,B
8D60 08             EX	AF,AF'
8D61 60             LD	H,B
8D62 46             LD	B,(HL)
8D63 5A             LD	E,D
8D64 01 80 C4       LD	BC,C480
8D67 68             LD	L,B
8D68 F0             RET	P
8D69 47             LD	B,A
8D6A FF             RST	38
8D6B FF             RST	38
- 
8D6C FF             RST	38
8D6D FF             RST	38
8D6E FF             RST	38
8D6F FF             RST	38
8D70 FF             RST	38
8D71 FF             RST	38
8D72 FF             RST	38
8D73 FF             RST	38
8D74 FF             RST	38
8D75 FF             RST	38
8D76 FF             RST	38
8D77 FF             RST	38
8D78 FD 7E 00       LD	A,(IY+00)
8D7B C6 0D          ADD	A,0D
8D7D DC 0C 7C       CALL	C,7C0C
8D80 CD A0 7A       CALL	7AA0
8D83 DD 21 24 8D    LD	IX,8D24
8D87 DD 6E 02       LD	L,(IX+02)
8D8A DD 66 03       LD	H,(IX+03)
8D8D 22 27 90       LD	(9027),HL
- 
8D90 DD 7E 00       LD	A,(IX+00)
8D93 CD 0D 8F       CALL	8F0D
8D96 CD CE 8F       CALL	8FCE
8D99 3E 10          LD	A,10
8D9B 08             EX	AF,AF'
8D9C CD F2 8F       CALL	8FF2
8D9F 08             EX	AF,AF'
8DA0 3D             DEC	A
8DA1 20 F8          JR	NZ,8D9B
8DA3 3A 01 8E       LD	A,(8E01)
8DA6 ED 44          NEG
8DA8 32 79 5C       LD	(5C79),A
8DAB CD 9E A7       CALL	A79E
8DAE E6 03          AND	03
8DB0 C6 07          ADD	A,07
8DB2 F5             PUSH	AF
8DB3 CD 16 8E       CALL	8E16
8DB6 F1             POP	AF
8DB7 3D             DEC	A
8DB8 20 F8          JR	NZ,8DB2
- 
8DBA 76             HALT
8DBB 76             HALT
8DBC 76             HALT
8DBD 06 0A          LD	B,0A
8DBF C5             PUSH	BC
8DC0 CD 68 8E       CALL	8E68
8DC3 06 07          LD	B,07
8DC5 CD B6 7C       CALL	7CB6
8DC8 C1             POP	BC
8DC9 10 F4          DJNZ	8DBF
8DCB 06 14          LD	B,14
8DCD CD B6 7C       CALL	7CB6
8DD0 2A 0A 8F       LD	HL,(8F0A)
8DD3 22 26 8D       LD	(8D26),HL
8DD6 22 50 8D       LD	(8D50),HL
8DD9 3A 0C 8F       LD	A,(8F0C)
8DDC 32 25 8D       LD	(8D25),A
8DDF 32 4E 8D       LD	(8D4E),A
8DE2 21 F3 8E       LD	HL,8EF3
8DE5 22 14 8E       LD	(8E14),HL
- 
8DE8 21 24 8B       LD	HL,8B24
8DEB CD 86 87       CALL	8786
8DEE 3A 24 8B       LD	A,(8B24)
8DF1 32 01 8E       LD	(8E01),A
8DF4 A7             AND	A
8DF5 CA 30 80       JP	Z,8030
8DF8 7E             LD	A,(HL)
8DF9 F5             PUSH	AF
8DFA CD 92 8E       CALL	8E92
8DFD F1             POP	AF
8DFE C3 34 7F       JP	7F34
8E01 00             NOP
8E02 5D             LD	E,L
8E03 62             LD	H,D
8E04 17             RLA
8E05 11 30 30       LD	DE,3030
8E08 30 30          JR	NC,8E3A
8E0A 35             DEC	(HL)
8E0B 30 63          JR	NC,8E70
8E0D 30 30          JR	NC,8E3F
- 
8E0F 30 30          JR	NC,8E41
8E11 35             DEC	(HL)
8E12 30 63          JR	NC,8E77
8E14 F3             DI
8E15 8E             ADC	A,(HL)
8E16 CD 9E A7       CALL	A79E
8E19 E6 0F          AND	0F
8E1B 32 27 90       LD	(9027),A
8E1E CD 9E A7       CALL	A79E
8E21 E6 0F          AND	0F
8E23 C6 04          ADD	A,04
8E25 32 28 90       LD	(9028),A
8E28 CD 9E A7       CALL	A79E
8E2B E6 03          AND	03
8E2D 07             RLCA
8E2E 5F             LD	E,A
8E2F 17             RLA
8E30 17             RLA
8E31 83             ADD	A,E
8E32 5F             LD	E,A
- 
8E33 16 00          LD	D,00
8E35 21 C5 AA       LD	HL,AAC5
8E38 19             ADD	HL,DE
8E39 CD 36 B0       CALL	B036
8E3C EB             EX	DE,HL
8E3D E5             PUSH	HL
8E3E CD 4B 8E       CALL	8E4B
8E41 CD 68 8E       CALL	8E68
8E44 CD 68 8E       CALL	8E68
8E47 CD 68 8E       CALL	8E68
8E4A E1             POP	HL
8E4B 06 05          LD	B,05
8E4D C5             PUSH	BC
8E4E 06 08          LD	B,08
8E50 1A             LD	A,(DE)
8E51 17             RLA
8E52 30 02          JR	NC,8E56
8E54 36 76          LD	(HL),76
8E56 23             INC	HL
8E57 10 F8          DJNZ	8E51
- 
8E59 01 18 00       LD	BC,0018 ; LD	BC,GET_CHAR
8E5C 09             ADD	HL,BC
8E5D 13             INC	DE
8E5E ED 5F          LD	A,R
8E60 E6 F8          AND	F8
8E62 D3 FE          OUT	(FE),A
8E64 C1             POP	BC
8E65 10 E6          DJNZ	8E4D
8E67 C9             RET
8E68 06 5A          LD	B,5A
8E6A CD 71 8E       CALL	8E71
8E6D 10 FB          DJNZ	8E6A
8E6F 76             HALT
8E70 C9             RET
8E71 CD 9E A7       CALL	A79E
8E74 E6 0F          AND	0F
8E76 C6 03          ADD	A,03
8E78 32 27 90       LD	(9027),A
8E7B CD 9E A7       CALL	A79E
8E7E E6 1F          AND	1F
- 
8E80 32 28 90       LD	(9028),A
8E83 CD 36 B0       CALL	B036
8E86 EB             EX	DE,HL
8E87 7E             LD	A,(HL)
8E88 FE 76          CP	76
8E8A C0             RET	NZ
8E8B 11 20 00       LD	DE,0020 ; LD	DE,NEXT_CHAR
8E8E 19             ADD	HL,DE
8E8F 36 76          LD	(HL),76
8E91 C9             RET
8E92 21 17 1B       LD	HL,1B17 ; LD	HL,LINE_SCAN
8E95 22 27 90       LD	(9027),HL
8E98 3A 01 8E       LD	A,(8E01)
8E9B C6 30          ADD	A,30
8E9D C3 17 AC       JP	AC17
8EA0 21 03 8E       LD	HL,8E03
8EA3 C3 0D AC       JP	AC0D
8EA6 86             ADD	A,(HL)
8EA7 77             LD	(HL),A
8EA8 FE 3A          CP	3A
- 
8EAA D8             RET	C
8EAB D6 0A          SUB	0A
8EAD 77             LD	(HL),A
8EAE 2B             DEC	HL
8EAF 3E 01          LD	A,01
8EB1 18 F3          JR	8EA6
8EB3 21 96 F6       LD	HL,F696
8EB6 C3 0D AC       JP	AC0D
8EB9 47             LD	B,A
8EBA 1F             RRA
8EBB 1F             RRA
8EBC 1F             RRA
8EBD E6 1F          AND	1F
8EBF 21 F0 77       LD	HL,77F0
8EC2 CD 72 AD       CALL	AD72
8EC5 78             LD	A,B
8EC6 E6 07          AND	07
8EC8 47             LD	B,A
8EC9 3E 01          LD	A,01
8ECB C8             RET	Z
- 
8ECC 07             RLCA
8ECD 10 FD          DJNZ	8ECC
8ECF C9             RET
8ED0 3A 5E AF       LD	A,(AF5E)
8ED3 CD B9 8E       CALL	8EB9
8ED6 47             LD	B,A
8ED7 A6             AND	(HL)
8ED8 C0             RET	NZ
8ED9 78             LD	A,B
8EDA B6             OR	(HL)
8EDB 77             LD	(HL),A
8EDC 21 0A 8E       LD	HL,8E0A
8EDF 3E 05          LD	A,05
8EE1 CD A6 8E       CALL	8EA6
8EE4 C3 A0 8E       JP	8EA0
8EE7 06 05          LD	B,05
8EE9 04             INC	B
8EEA 03             INC	BC
8EEB 02             LD	(BC),A
8EEC 02             LD	(BC),A
- 
8EED 01 01 01       LD	BC,0101
8EF0 00             NOP
8EF1 01 00 FF       LD	BC,FF00
8EF4 00             NOP
8EF5 FF             RST	38
8EF6 FF             RST	38
8EF7 FF             RST	38
8EF8 FE FE          CP	FE
8EFA FD FC FB FA    CALL	M,FAFB
8EFE FA FA FA       JP	M,FAFA
8F01 80             ADD	A,B
8F02 21 09 8F       LD	HL,8F09
8F05 74             LD	(HL),H
8F06 C9             RET
8F07 00             NOP
8F08 00             NOP
8F09 8F             ADC	A,A
8F0A 60             LD	H,B
8F0B 78             LD	A,B
8F0C 00             NOP
- 
8F0D A7             AND	A
8F0E 17             RLA
8F0F 6F             LD	L,A
8F10 3E 5E          LD	A,5E
8F12 CE 00          ADC	A,00
8F14 67             LD	H,A
8F15 5E             LD	E,(HL)
8F16 23             INC	HL
8F17 56             LD	D,(HL)
8F18 21 29 8F       LD	HL,8F29
8F1B 3A 28 90       LD	A,(9028)
8F1E E6 07          AND	07
8F20 4F             LD	C,A
8F21 06 00          LD	B,00
8F23 09             ADD	HL,BC
8F24 7E             LD	A,(HL)
8F25 47             LD	B,A
8F26 2F             CPL
8F27 4F             LD	C,A
8F28 C9             RET
- 
8F29 FF             RST	38
8F2A 7F             LD	A,A
8F2B 3F             CCF
8F2C 1F             RRA
8F2D 0F             RRCA
8F2E 07             RLCA
8F2F 03             INC	BC
8F30 01 DD 21       LD	BC,21DD
8F33 24             INC	H
8F34 8D             ADC	A,L
8F35 06 06          LD	B,06
8F37 C5             PUSH	BC
8F38 DD 7E 00       LD	A,(IX+00)
8F3B 3C             INC	A
8F3C C2 4F 8F       JP	NZ,8F4F
8F3F DD 7E 2A       LD	A,(IX+2A)
8F42 3C             INC	A
8F43 C2 76 8F       JP	NZ,8F76
8F46 11 07 00       LD	DE,0007
8F49 DD 19          ADD	IX,DE
- 
8F4B C1             POP	BC
8F4C 10 E9          DJNZ	8F37
8F4E C9             RET
8F4F DD 7E 2A       LD	A,(IX+2A)
8F52 3C             INC	A
8F53 C2 96 8F       JP	NZ,8F96
8F56 DD 6E 02       LD	L,(IX+02)
8F59 DD 66 03       LD	H,(IX+03)
8F5C 22 27 90       LD	(9027),HL
8F5F DD 7E 00       LD	A,(IX+00)
8F62 CD 0D 8F       CALL	8F0D
8F65 CD CE 8F       CALL	8FCE
8F68 3E 10          LD	A,10
8F6A 08             EX	AF,AF'
8F6B CD F2 8F       CALL	8FF2
8F6E 08             EX	AF,AF'
8F6F 3D             DEC	A
8F70 C2 6A 8F       JP	NZ,8F6A
8F73 C3 46 8F       JP	8F46
8F76 DD 6E 2C       LD	L,(IX+2C)
- 
8F79 DD 66 2D       LD	H,(IX+2D)
8F7C 22 27 90       LD	(9027),HL
8F7F DD 7E 2A       LD	A,(IX+2A)
8F82 CD 0D 8F       CALL	8F0D
8F85 CD CE 8F       CALL	8FCE
8F88 3E 10          LD	A,10
8F8A 08             EX	AF,AF'
8F8B CD F2 8F       CALL	8FF2
8F8E 08             EX	AF,AF'
8F8F 3D             DEC	A
8F90 C2 8A 8F       JP	NZ,8F8A
8F93 C3 46 8F       JP	8F46
8F96 DD 6E 02       LD	L,(IX+02)
8F99 DD 66 03       LD	H,(IX+03)
8F9C 22 27 90       LD	(9027),HL
8F9F DD 7E 00       LD	A,(IX+00)
8FA2 CD 0D 8F       CALL	8F0D
8FA5 CD CE 8F       CALL	8FCE
8FA8 D9             EXX
8FA9 DD 6E 2C       LD	L,(IX+2C)
- 
8FAC DD 66 2D       LD	H,(IX+2D)
8FAF 22 27 90       LD	(9027),HL
8FB2 DD 7E 2A       LD	A,(IX+2A)
8FB5 CD 0D 8F       CALL	8F0D
8FB8 CD CE 8F       CALL	8FCE
8FBB 3E 10          LD	A,10
8FBD 08             EX	AF,AF'
8FBE CD F2 8F       CALL	8FF2
8FC1 D9             EXX
8FC2 CD F2 8F       CALL	8FF2
8FC5 D9             EXX
8FC6 08             EX	AF,AF'
8FC7 3D             DEC	A
8FC8 C2 BD 8F       JP	NZ,8FBD
8FCB C3 46 8F       JP	8F46
8FCE 3A 27 90       LD	A,(9027)
8FD1 C6 40          ADD	A,40
8FD3 6F             LD	L,A
8FD4 E6 07          AND	07
8FD6 C6 38          ADD	A,38
- 
8FD8 67             LD	H,A
8FD9 7D             LD	A,L
8FDA 0F             RRCA
8FDB 0F             RRCA
8FDC 0F             RRCA
8FDD E6 18          AND	18
8FDF 84             ADD	A,H
8FE0 67             LD	H,A
8FE1 7D             LD	A,L
8FE2 07             RLCA
8FE3 07             RLCA
8FE4 E6 E0          AND	E0
8FE6 6F             LD	L,A
8FE7 3A 28 90       LD	A,(9028)
8FEA 0F             RRCA
8FEB 0F             RRCA
8FEC 0F             RRCA
8FED E6 1F          AND	1F
8FEF 85             ADD	A,L
8FF0 6F             LD	L,A
- 
8FF1 C9             RET
8FF2 1A             LD	A,(DE)
8FF3 A0             AND	B
8FF4 CB EC          SET	5,H
8FF6 A6             AND	(HL)
8FF7 CB AC          RES	5,H
8FF9 AE             XOR	(HL)
8FFA 77             LD	(HL),A
8FFB 2C             INC	L
8FFC 13             INC	DE
8FFD 1A             LD	A,(DE)
8FFE CB EC          SET	5,H
9000 A6             AND	(HL)
9001 CB AC          RES	5,H
9003 AE             XOR	(HL)
9004 77             LD	(HL),A
9005 2C             INC	L
9006 1B             DEC	DE
9007 1A             LD	A,(DE)
9008 A1             AND	C
- 
9009 CB EC          SET	5,H
900B A6             AND	(HL)
900C CB AC          RES	5,H
900E AE             XOR	(HL)
900F 77             LD	(HL),A
9010 13             INC	DE
9011 13             INC	DE
9012 2D             DEC	L
9013 2D             DEC	L
9014 24             INC	H
9015 7C             LD	A,H
9016 E6 07          AND	07
9018 C0             RET	NZ
9019 7C             LD	A,H
901A D6 08          SUB	08
901C 67             LD	H,A
901D 7D             LD	A,L
901E C6 20          ADD	A,20
9020 6F             LD	L,A
9021 D0             RET	NC
- 
9022 7C             LD	A,H
9023 C6 08          ADD	A,08
9025 67             LD	H,A
9026 C9             RET
9027 11 16 00       LD	DE,0016
902A 00             NOP
902B 00             NOP
902C 00             NOP
902D 00             NOP
902E 00             NOP
902F 0F             RRCA
9030 80             ADD	A,B
9031 3F             CCF
9032 E0             RET	PO
9033 7F             LD	A,A
9034 F8             RET	M
9035 67             LD	H,A
9036 FC 5B FE       CALL	M,FE5B
9039 53             LD	D,E
903A FE 43          CP	43
- 
903C F7             RST	30
903D 43             LD	B,E
903E FB             EI
903F 26 CB          LD	H,CB
9041 3D             DEC	A
9042 B2             OR	D
9043 03             INC	BC
9044 D6 1F          SUB	1F
9046 E4 0F 18       CALL	PO,180F
9049 03             INC	BC
904A 6C             LD	L,H
904B 1C             INC	E
904C 70             LD	(HL),B
904D 0F             RRCA
904E 00             NOP
904F 03             INC	BC
9050 E0             RET	PO
9051 0F             RRCA
9052 F8             RET	M
9053 1F             RRA
- 
9054 FE 1C          CP	1C
9056 FF             RST	38
9057 AB             XOR	E
9058 7F             LD	A,A
9059 AA             XOR	D
905A 7F             LD	A,A
905B C8             RET	Z
905C 7E             LD	A,(HL)
905D 48             LD	C,B
905E 7B             LD	A,E
905F 5C             LD	E,H
9060 D5             PUSH	DE
9061 8F             ADC	A,A
9062 AC             XOR	H
9063 80             ADD	A,B
9064 73             LD	(HL),E
9065 07             RLCA
9066 FE 83          CP	83
9068 FF             RST	38
9069 9C             SBC	A,H
- 
906A F1             POP	AF
906B 8F             ADC	A,A
906C 0F             RRCA
906D 03             INC	BC
906E 0E 00          LD	C,00
9070 F8             RET	M
9071 03             INC	BC
9072 FE 87          CP	87
9074 FF             RST	38
9075 C7             RST	00
9076 3F             CCF
9077 EA DF EA       JP	PE,EADF
907A 9F             SBC	A,A
907B B2             OR	D
907C 1F             RRA
907D D2 1E 57       JP	NC,571E
9080 35             DEC	(HL)
9081 A3             AND	E
9082 ED 60          IN	H,(C)
9084 1C             INC	E
- 
9085 C1             POP	BC
9086 FF             RST	38
9087 80             ADD	A,B
9088 74             LD	(HL),H
9089 01 86 00       LD	BC,0086
908C 1D             DEC	E
908D 00             NOP
908E 1F             RRA
908F 00             NOP
9090 3E 80          LD	A,80
9092 FF             RST	38
9093 E1             POP	HL
9094 FF             RST	38
9095 F1             POP	AF
9096 9F             SBC	A,A
9097 F9             LD	SP,HL
9098 6F             LD	L,A
9099 F9             LD	SP,HL
909A 4F             LD	C,A
909B DD 0F          RRCA
- 
909D ED 0F          ???
909F 2C             INC	L
90A0 9B             SBC	A,E
90A1 C8             RET	Z
90A2 F6 58          OR	58
90A4 0F             RRCA
90A5 B0             OR	B
90A6 7F             LD	A,A
90A7 E0             RET	PO
90A8 19             ADD	HL,DE
90A9 80             ADD	A,B
90AA 03             INC	BC
90AB 00             NOP
90AC 1B             DEC	DE
90AD 80             ADD	A,B
90AE 1F             RRA
90AF 0F             RRCA
90B0 80             ADD	A,B
90B1 3F             CCF
90B2 E0             RET	PO
- 
90B3 7F             LD	A,A
90B4 F8             RET	M
90B5 67             LD	H,A
90B6 FC 5B FE       CALL	M,FE5B
90B9 53             LD	D,E
90BA FE 43          CP	43
90BC F7             RST	30
90BD 43             LD	B,E
90BE FB             EI
90BF 26 E3          LD	H,E3
90C1 3D             DEC	A
90C2 DA 03 D6       JP	C,D603
90C5 1F             RRA
90C6 EC 06 FA       CALL	PE,FA06
90C9 01 E4 1D       LD	BC,1DE4
90CC 98             SBC	A,B
90CD 1F             RRA
90CE 80             ADD	A,B
90CF 03             INC	BC
90D0 E0             RET	PO
- 
90D1 0F             RRCA
90D2 F8             RET	M
90D3 1F             RRA
90D4 FE 13          CP	13
90D6 FF             RST	38
90D7 8D             ADC	A,L
90D8 FF             RST	38
90D9 89             ADC	A,C
90DA FF             RST	38
90DB C1             POP	BC
90DC FB             EI
90DD C1             POP	BC
90DE FD D3 7C       OUT	(7C),A
90E1 8E             ADC	A,(HL)
90E2 F2 81 F6       JP	P,F681
90E5 07             RLCA
90E6 F9             LD	SP,HL
90E7 89             ADC	A,C
90E8 3E DC          LD	A,DC
90EA F9             LD	SP,HL
- 
90EB 8F             ADC	A,A
90EC 83             ADD	A,E
90ED 03             INC	BC
90EE 0E 00          LD	C,00
90F0 F8             RET	M
90F1 03             INC	BC
90F2 FE 87          CP	87
90F4 FF             RST	38
90F5 C4 FF E3       CALL	NZ,E3FF
90F8 7F             LD	A,A
90F9 E2 7F F0       JP	PO,F07F
90FC 7E             LD	A,(HL)
90FD 70             LD	(HL),B
90FE 7F             LD	A,A
90FF 74             LD	(HL),H
9100 DE 63          SBC	A,63
9102 BD             CP	L
9103 60             LD	H,B
9104 7B             LD	A,E
9105 C3 0C 83       JP	830C
- 
9108 BB             CP	E
9109 00             NOP
910A E3             EX	(SP),HL
910B 80             ADD	A,B
910C 40             LD	B,B
910D 80             ADD	A,B
910E 0F             RRCA
910F 00             NOP
9110 3E 80          LD	A,80
9112 FF             RST	38
9113 E1             POP	HL
9114 FF             RST	38
9115 F1             POP	AF
9116 9F             SBC	A,A
9117 F9             LD	SP,HL
9118 6F             LD	L,A
9119 F9             LD	SP,HL
911A 4F             LD	C,A
911B DD 0F          RRCA
911D ED 0F          ???
- 
911F 8C             ADC	A,H
9120 9B             SBC	A,E
9121 68             LD	L,B
9122 F7             RST	30
9123 58             LD	E,B
9124 0F             RRCA
9125 B0             OR	B
9126 63             LD	H,E
9127 60             LD	H,B
9128 1D             DEC	E
9129 00             NOP
912A 1F             RRA
912B 00             NOP
912C 00             NOP
912D 80             ADD	A,B
912E 0F             RRCA
912F 01 F0 07       LD	BC,07F0
9132 FC 1F FE       CALL	M,FE1F
9135 3F             CCF
9136 E6 7F          AND	7F
- 
9138 DA 7F CA       JP	C,CA7F
913B EF             RST	28
913C C2 DF C2       JP	NZ,C2DF
913F D3 64          OUT	(64),A
9141 4D             LD	C,L
9142 BC             CP	H
9143 6B             LD	L,E
9144 C0             RET	NZ
9145 27             DAA
9146 F8             RET	M
9147 18 F0          JR	9139
9149 36 C0          LD	(HL),C0
914B 0E 38          LD	C,38
914D 00             NOP
914E F0             RET	P
914F 00             NOP
9150 7C             LD	A,H
9151 01 FF 87       LD	BC,87FF
9154 FF             RST	38
9155 8F             ADC	A,A
- 
9156 F9             LD	SP,HL
9157 9F             SBC	A,A
9158 F6 9F          OR	9F
915A F2 BB F0       JP	P,F0BB
915D B7             OR	A
915E F0             RET	P
915F 31 D9 16       LD	SP,16D9
9162 EF             RST	28
9163 1A             LD	A,(DE)
9164 F0             RET	P
9165 0D             DEC	C
9166 C6 06          ADD	A,06
9168 B8             CP	B
9169 00             NOP
916A F8             RET	M
916B 00             NOP
916C 00             NOP
916D 01 F0 00       LD	BC,00F0
9170 1F             RRA
9171 C0             RET	NZ
- 
9172 7F             LD	A,A
9173 E1             POP	HL
9174 FF             RST	38
9175 23             INC	HL
9176 FF             RST	38
9177 C7             RST	00
9178 FE 47          CP	47
917A FE 0F          CP	0F
917C 7E             LD	A,(HL)
917D 0E FE          LD	C,FE
917F 2E 7B          LD	L,7B
9181 C6 BD          ADD	A,BD
9183 06 DE          LD	B,DE
9185 C3 30 C1       JP	C130
9188 DD 00          NOP
918A C7             RST	00
918B 01 02 01       LD	BC,0102
918E F0             RET	P
918F C0             RET	NZ
9190 07             RLCA
- 
9191 F0             RET	P
9192 1F             RRA
9193 F8             RET	M
9194 7F             LD	A,A
9195 C8             RET	Z
9196 FF             RST	38
9197 B1             OR	C
9198 FF             RST	38
9199 91             SUB	C
919A FF             RST	38
919B 83             ADD	A,E
919C DF             RST	18
919D 83             ADD	A,E
919E BF             CP	A
919F CB 3E          SRL	(HL)
91A1 71             LD	(HL),C
91A2 4F             LD	C,A
91A3 81             ADD	A,C
91A4 6F             LD	L,A
91A5 E0             RET	PO
- 
91A6 9F             SBC	A,A
91A7 91             SUB	C
91A8 7C             LD	A,H
91A9 3B             DEC 	SP
91AA 9F             SBC	A,A
91AB F1             POP	AF
91AC C1             POP	BC
91AD C0             RET	NZ
91AE 70             LD	(HL),B
91AF 01 F0 07       LD	BC,07F0
91B2 FC 1F FE       CALL	M,FE1F
91B5 3F             CCF
91B6 E6 7F          AND	7F
91B8 DA 7F CA       JP	C,CA7F
91BB EF             RST	28
91BC C2 DF C2       JP	NZ,C2DF
91BF C7             RST	00
91C0 64             LD	H,H
91C1 5B             LD	E,E
91C2 BC             CP	H
- 
91C3 6B             LD	L,E
91C4 C0             RET	NZ
91C5 37             SCF
91C6 F8             RET	M
91C7 5F             LD	E,A
91C8 60             LD	H,B
91C9 27             DAA
91CA 80             ADD	A,B
91CB 19             ADD	HL,DE
91CC B8             CP	B
91CD 01 F8 00       LD	BC,00F8
91D0 7C             LD	A,H
91D1 01 FF 87       LD	BC,87FF
91D4 FF             RST	38
91D5 8F             ADC	A,A
91D6 F9             LD	SP,HL
91D7 9F             SBC	A,A
91D8 F6 9F          OR	9F
91DA F2 BB F0       JP	P,F0BB
91DD B7             OR	A
- 
91DE F0             RET	P
91DF 34             INC	(HL)
91E0 D9             EXX
91E1 13             INC	DE
91E2 6F             LD	L,A
91E3 1A             LD	A,(DE)
91E4 F0             RET	P
91E5 0D             DEC	C
91E6 FE 07          CP	07
91E8 98             SBC	A,B
91E9 01 C0 00       LD	BC,00C0
91EC D8             RET	C
91ED 01 F8 00       LD	BC,00F8
91F0 1F             RRA
91F1 C0             RET	NZ
91F2 7F             LD	A,A
91F3 E1             POP	HL
91F4 FF             RST	38
91F5 E3             EX	(SP),HL
91F6 FC 57 FB       CALL	M,FB57
- 
91F9 57             LD	D,A
91FA F9             LD	SP,HL
91FB 4D             LD	C,L
91FC F8             RET	M
91FD 4B             LD	C,E
91FE 78             LD	A,B
91FF EA AC C5       JP	PE,C5AC
9202 B7             OR	A
9203 06 38          LD	B,38
9205 83             ADD	A,E
9206 FF             RST	38
9207 01 2E 80       LD	BC,802E
920A 61             LD	H,C
920B 00             NOP
920C B8             CP	B
920D 00             NOP
920E F8             RET	M
920F C0             RET	NZ
9210 07             RLCA
9211 F0             RET	P
- 
9212 1F             RRA
9213 F8             RET	M
9214 7F             LD	A,A
9215 38 FF          JR 	C,9216
9217 D5             PUSH	DE
9218 FE 55          CP	55
921A FE 13          CP	13
921C 7E             LD	A,(HL)
921D 12             LD	(DE),A
921E DE 3A          SBC	A,3A
9220 AB             XOR	E
9221 F1             POP	AF
9222 35             DEC	(HL)
9223 01 CE E0       LD	BC,E0CE
9226 7F             LD	A,A
9227 C1             POP	BC
9228 FF             RST	38
9229 39             ADD	HL,SP
922A 8F             ADC	A,A
922B F1             POP	AF
- 
922C F0             RET	P
922D C0             RET	NZ
922E 70             LD	(HL),B
922F E3             EX	(SP),HL
9230 C0             RET	NZ
9231 E7             RST	20
9232 E0             RET	PO
9233 CF             RST	08
9234 F0             RET	P
9235 7F             LD	A,A
9236 F8             RET	M
9237 1F             RRA
9238 FB             EI
9239 3F             CCF
923A FF             RST	38
923B 3F             CCF
923C FD 7F          LD	A,A
923E FE 7F          CP	7F
9240 FE 3F          CP	3F
9242 FD 3F          CCF
- 
9244 FD 1F          RRA
9246 FB             EI
9247 DF             RST	18
9248 F2 D3 C0       JP	P,C0D3
924B E0             RET	PO
924C 00             NOP
924D C0             RET	NZ
924E 00             NOP
924F 03             INC	BC
9250 C0             RET	NZ
9251 07             RLCA
9252 E0             RET	PO
9253 CF             RST	08
9254 F3             DI
9255 DF             RST	18
9256 FB             EI
9257 DF             RST	18
9258 FB             EI
9259 3F             CCF
925A FC 3F FC       CALL	M,FC3F
- 
925D 7F             LD	A,A
925E FE 7F          CP	7F
9260 FE 3F          CP	3F
9262 FC BF FD       CALL	M,FDBF
9265 DF             RST	18
9266 FB             EI
9267 FF             RST	38
9268 F7             RST	30
9269 C3 C3 00       JP	00C3
926C 00             NOP
926D 00             NOP
926E 00             NOP
926F 03             INC	BC
9270 C7             RST	00
9271 07             RLCA
9272 E7             RST	20
9273 0F             RRCA
9274 F3             DI
9275 1F             RRA
9276 FE DF          CP	DF
- 
9278 F8             RET	M
9279 FF             RST	38
927A FC BF FC       CALL	M,FCBF
927D 7F             LD	A,A
927E FE 7F          CP	7F
9280 FE BF          CP	BF
9282 FC BF FC       CALL	M,FCBF
9285 DF             RST	18
9286 F8             RET	M
9287 4F             LD	C,A
9288 FB             EI
9289 03             INC	BC
928A CB 00          RLC	B
928C 07             RLCA
928D 00             NOP
928E 03             INC	BC
928F 03             INC	BC
9290 C0             RET	NZ
9291 07             RLCA
9292 E0             RET	PO
- 
9293 CF             RST	08
9294 F3             DI
9295 DF             RST	18
9296 FB             EI
9297 DF             RST	18
9298 FB             EI
9299 3F             CCF
929A FC 3F FC       CALL	M,FC3F
929D 7F             LD	A,A
929E FE 7F          CP	7F
92A0 FE 3F          CP	3F
92A2 FC BF FD       CALL	M,FDBF
92A5 DF             RST	18
92A6 FB             EI
92A7 FF             RST	38
92A8 F7             RST	30
92A9 C3 C3 00       JP	00C3
92AC 00             NOP
92AD 00             NOP
92AE 00             NOP
- 
92AF 1C             INC	E
92B0 70             LD	(HL),B
92B1 7F             LD	A,A
92B2 78             LD	A,B
92B3 FF             RST	38
92B4 7C             LD	A,H
92B5 CF             RST	08
92B6 BC             CP	H
92B7 B7             OR	A
92B8 FE A4          CP	A4
92BA DE 85          SBC	A,85
92BC 3F             CCF
92BD 84             ADD	A,H
92BE 2F             CPL
92BF 4F             LD	C,A
92C0 FE 7B          CP	7B
92C2 F0             RET	P
92C3 07             RLCA
92C4 FC 3E F8       CALL	M,F83E
92C7 1D             DEC	E
- 
92C8 70             LD	(HL),B
92C9 01 00 0F       LD	BC,0F00
92CC 80             ADD	A,B
92CD 1F             RRA
92CE 80             ADD	A,B
92CF 07             RLCA
92D0 1C             INC	E
92D1 1F             RRA
92D2 DE 3F          SBC	A,3F
92D4 DF             RST	18
92D5 33             INC	SP
92D6 EF             RST	28
92D7 AD             XOR	L
92D8 FF             RST	38
92D9 A9             XOR	C
92DA 37             SCF
92DB E1             POP	HL
92DC 4F             LD	C,A
92DD E1             POP	HL
92DE 0B             DEC	BC
- 
92DF 93             SUB	E
92E0 FF             RST	38
92E1 1E FC          LD	E,FC
92E3 01 FF 0F       LD	BC,0FFF
92E6 FE 06          CP	06
92E8 FC 01 B2       CALL	M,B201
92EB 1F             RRA
92EC 0C             INC	C
92ED 1F             RRA
92EE 80             ADD	A,B
92EF 01 C7 87       LD	BC,87C7
92F2 F7             RST	30
92F3 CF             RST	08
92F4 F7             RST	30
92F5 CC FB EB       CALL	Z,EBFB
92F8 7F             LD	A,A
92F9 EA 7D F8       JP	PE,F87D
92FC 4B             LD	C,E
92FD F8             RET	M
92FE 52             LD	D,D
- 
92FF E4 C7 07       CALL	PO,07C7
9302 BF             CP	A
9303 C0             RET	NZ
9304 7F             LD	A,A
9305 83             ADD	A,E
9306 FF             RST	38
9307 0D             DEC	C
9308 7F             LD	A,A
9309 CE FC          ADC	A,FC
930B 87             ADD	A,A
930C 83             ADD	A,E
930D 01 8F C0       LD	BC,C08F
9310 71             LD	(HL),C
9311 E1             POP	HL
9312 FD F3          DI
9314 FD F3          DI
9316 3E FA          LD	A,FA
9318 DF             RST	18
9319 7A             LD	A,D
931A 9F             SBC	A,A
- 
931B FE 12          CP	12
931D BE             CP	(HL)
931E 14             INC	D
931F F9             LD	SP,HL
9320 31 C1 EF       LD	SP,EFC1
9323 F0             RET	P
9324 17             RLA
9325 E0             RET	PO
9326 ED C0          ???
9328 FB             EI
9329 00             NOP
932A 3B             DEC 	SP
932B C0             RET	NZ
932C 00             NOP
932D 80             ADD	A,B
932E 0F             RRCA
932F 1C             INC	E
9330 70             LD	(HL),B
9331 7F             LD	A,A
9332 78             LD	A,B
- 
9333 FF             RST	38
9334 7C             LD	A,H
9335 CF             RST	08
9336 BC             CP	H
9337 B7             OR	A
9338 FE A7          CP	A7
933A DE 87          SBC	A,87
933C BF             CP	A
933D 84             ADD	A,H
933E AF             XOR	A
933F 4D             LD	C,L
9340 3E 78          LD	A,78
9342 70             LD	(HL),B
9343 07             RLCA
9344 FC 38 B8       CALL	M,B838
9347 16 50          LD	D,50
9349 07             RLCA
934A C0             RET	NZ
934B 09             ADD	HL,BC
934C C0             RET	NZ
- 
934D 0E 00          LD	C,00
934F 07             RLCA
9350 1C             INC	E
9351 1F             RRA
9352 DE 3F          SBC	A,3F
9354 DF             RST	18
9355 33             INC	SP
9356 EF             RST	28
9357 AD             XOR	L
9358 FF             RST	38
9359 A9             XOR	C
935A F7             RST	30
935B E1             POP	HL
935C EF             RST	28
935D E1             POP	HL
935E 2B             DEC	HL
935F 93             SUB	E
9360 4F             LD	C,A
9361 1E 1C          LD	E,1C
9363 01 FF 0F       LD	BC,0FFF
- 
9366 FA 07 8C       JP	M,8C07
9369 01 7C 0E       LD	BC,0E7C
936C 70             LD	(HL),B
936D 0F             RRCA
936E 80             ADD	A,B
936F 01 C7 87       LD	BC,87C7
9372 F7             RST	30
9373 CF             RST	08
9374 F7             RST	30
9375 CC FB EB       CALL	Z,EBFB
9378 7F             LD	A,A
9379 EA 7D F8       JP	PE,F87D
937C 4B             LD	C,E
937D F8             RET	M
937E 52             LD	D,D
937F E4 C3 07       CALL	PO,07C3
9382 BF             CP	A
9383 C0             RET	NZ
9384 7F             LD	A,A
9385 03             INC	BC
- 
9386 FE ED          CP	ED
9388 FB             EI
9389 EE 70          XOR	70
938B C7             RST	00
938C 87             ADD	A,A
938D 81             ADD	A,C
938E 87             ADD	A,A
938F C0             RET	NZ
9390 71             LD	(HL),C
9391 E1             POP	HL
9392 FD F3          DI
9394 FD F3          DI
9396 3E FA          LD	A,FA
9398 DF             RST	18
9399 7A             LD	A,D
939A 9F             SBC	A,A
939B FE 12          CP	12
939D BE             CP	(HL)
939E 14             INC	D
939F F9             LD	SP,HL
- 
93A0 30 C1          JR	NC,9363
93A2 EF             RST	28
93A3 F0             RET	P
93A4 1F             RRA
93A5 E0             RET	PO
93A6 FF             RST	38
93A7 01 7F 80       LD	BC,807F
93AA 9D             SBC	A,L
93AB C0             RET	NZ
93AC 63             LD	H,E
93AD C0             RET	NZ
93AE 0F             RRCA
93AF 0E 38          LD	C,38
93B1 1E FE          LD	E,FE
93B3 3E FF          LD	A,FF
93B5 3D             DEC	A
93B6 F3             DI
93B7 7F             LD	A,A
93B8 ED 7B E5 FD    LD	SP,(FDE5)
93BC 21 F4 A1       LD	HL,A1F4
- 
93BF 7C             LD	A,H
93C0 32 0F DE       LD	(DE0F),A
93C3 3F             CCF
93C4 E0             RET	PO
93C5 1F             RRA
93C6 FC 03 FA       CALL	M,FA03
93C9 06 E4          LD	B,E4
93CB 0F             RRCA
93CC 18 0F          JR	93DD
93CE C0             RET	NZ
93CF 03             INC	BC
93D0 8E             ADC	A,(HL)
93D1 87             ADD	A,A
93D2 BF             CP	A
93D3 CF             RST	08
93D4 BF             CP	A
93D5 CF             RST	08
93D6 7C             LD	A,H
93D7 5F             LD	E,A
93D8 FB             EI
- 
93D9 5E             LD	E,(HL)
93DA F9             LD	SP,HL
93DB 7F             LD	A,A
93DC 48             LD	C,B
93DD 7D             LD	A,L
93DE 28 9F          JR	Z,937F
93E0 0C             INC	C
93E1 83             ADD	A,E
93E2 F7             RST	30
93E3 0F             RRCA
93E4 F8             RET	M
93E5 01 FF DF       LD	BC,DFFF
93E8 7E             LD	A,(HL)
93E9 DC 39 8F       CALL	C,8F39
93EC 87             ADD	A,A
93ED 07             RLCA
93EE 86             ADD	A,(HL)
93EF 80             ADD	A,B
93F0 E3             EX	(SP),HL
93F1 E1             POP	HL
- 
93F2 EF             RST	28
93F3 F3             DI
93F4 EF             RST	28
93F5 33             INC	SP
93F6 DF             RST	18
93F7 D7             RST	10
93F8 FE 57          CP	57
93FA BE             CP	(HL)
93FB 1F             RRA
93FC DE 1F          SBC	A,1F
93FE 52             LD	D,D
93FF 27             DAA
9400 CB E0          SET	4,B
9402 E1             POP	HL
9403 03             INC	BC
9404 FE C1          CP	C1
9406 7F             LD	A,A
9407 80             ADD	A,B
9408 C7             RST	00
9409 00             NOP
- 
940A FA C0 39       JP	M,39C0
940D C0             RET	NZ
940E 07             RLCA
940F E0             RET	PO
9410 38 F8          JR 	C,940A
9412 7B             LD	A,E
9413 FC FB CC       CALL	M,CCFB
9416 F7             RST	30
9417 B5             OR	L
9418 FF             RST	38
9419 95             SUB	L
941A EF             RST	28
941B 87             ADD	A,A
941C F7             RST	30
941D 87             ADD	A,A
941E D4 C9 F2       CALL	NC,F2C9
9421 78             LD	A,B
9422 38 80          JR 	C,93A4
9424 FF             RST	38
9425 70             LD	(HL),B
- 
9426 74             LD	(HL),H
9427 A0             AND	B
9428 29             ADD	HL,HL
9429 80             ADD	A,B
942A 0F             RRCA
942B 40             LD	B,B
942C 0E C0          LD	C,C0
942E 01 0E 38       LD	BC,380E
9431 1E FE          LD	E,FE
9433 3E FF          LD	A,FF
9435 3D             DEC	A
9436 F3             DI
9437 7F             LD	A,A
9438 ED 7B E5 FD    LD	SP,(FDE5)
943C 21 F4 A1       LD	HL,A1F4
943F 7E             LD	A,(HL)
9440 32 0F DE       LD	(DE0F),A
9443 3F             CCF
9444 A0             AND	B
9445 1E DC          LD	E,DC
- 
9447 0F             RRCA
9448 7C             LD	A,H
9449 03             INC	BC
944A 70             LD	(HL),B
944B 0C             INC	C
944C 00             NOP
944D 07             RLCA
944E C0             RET	NZ
944F 03             INC	BC
9450 8E             ADC	A,(HL)
9451 87             ADD	A,A
9452 BF             CP	A
9453 CF             RST	08
9454 BF             CP	A
9455 CF             RST	08
9456 7C             LD	A,H
9457 5F             LD	E,A
9458 FB             EI
9459 5E             LD	E,(HL)
945A F9             LD	SP,HL
- 
945B 7F             LD	A,A
945C 48             LD	C,B
945D 7D             LD	A,L
945E 28 9F          JR	Z,93FF
9460 8C             ADC	A,H
9461 83             ADD	A,E
9462 F7             RST	30
9463 0F             RRCA
9464 F8             RET	M
9465 07             RLCA
9466 FF             RST	38
9467 C3 FA CC       JP	CCFA
946A FD 87          ADD	A,A
946C 07             RLCA
946D 03             INC	BC
946E C6 80          ADD	A,80
9470 E3             EX	(SP),HL
9471 E1             POP	HL
9472 EF             RST	28
9473 F3             DI
- 
9474 EF             RST	28
9475 33             INC	SP
9476 DF             RST	18
9477 D7             RST	10
9478 FE 57          CP	57
947A B2             OR	D
947B 1F             RRA
947C CA 1F 42       JP	Z,421F
947F 27             DAA
9480 FF             RST	38
9481 E0             RET	PO
9482 FD 03          INC	BC
9484 FE C1          CP	C1
9486 FF             RST	38
9487 80             ADD	A,B
9488 FD 01 36 E0    LD	BC,E036
948C C3 E0 07       JP	07E0
948F E0             RET	PO
9490 38 F8          JR 	C,948A
9492 7B             LD	A,E
- 
9493 FC FB CC       CALL	M,CCFB
9496 F7             RST	30
9497 B5             OR	L
9498 FF             RST	38
9499 95             SUB	L
949A EC 87 F2       CALL	PE,F287
949D 87             ADD	A,A
949E D0             RET	NC
949F C9             RET
94A0 FF             RST	38
94A1 78             LD	A,B
94A2 3F             CCF
94A3 80             ADD	A,B
94A4 FF             RST	38
94A5 F0             RET	P
94A6 7D             LD	A,L
94A7 E0             RET	PO
94A8 3A 00 02       LD	A,(0200)
94AB C0             RET	NZ
94AC 07             RLCA
- 
94AD E0             RET	PO
94AE 07             RLCA
94AF 00             NOP
94B0 00             NOP
94B1 03             INC	BC
94B2 C0             RET	NZ
94B3 0F             RRCA
94B4 F0             RET	P
94B5 1F             RRA
94B6 F8             RET	M
94B7 3F             CCF
94B8 FC 3F FC       CALL	M,FC3F
94BB 7F             LD	A,A
94BC FE 7F          CP	7F
94BE FE 7F          CP	7F
94C0 FE 7F          CP	7F
94C2 FE 3F          CP	3F
94C4 FC 3F FC       CALL	M,FC3F
94C7 1F             RRA
94C8 F8             RET	M
- 
94C9 0F             RRCA
94CA F0             RET	P
94CB 03             INC	BC
94CC C0             RET	NZ
94CD 00             NOP
94CE 00             NOP
94CF 00             NOP
94D0 00             NOP
94D1 00             NOP
94D2 00             NOP
94D3 00             NOP
94D4 F0             RET	P
94D5 03             INC	BC
94D6 FC 0F FF       CALL	M,FF0F
94D9 9F             SBC	A,A
94DA FF             RST	38
94DB FF             RST	38
94DC FF             RST	38
94DD FF             RST	38
94DE FF             RST	38
- 
94DF FF             RST	38
94E0 FF             RST	38
94E1 FF             RST	38
94E2 FF             RST	38
94E3 9F             SBC	A,A
94E4 FF             RST	38
94E5 0F             RRCA
94E6 FF             RST	38
94E7 03             INC	BC
94E8 FC 00 F0       CALL	M,F000
94EB 00             NOP
94EC 00             NOP
94ED 00             NOP
94EE 00             NOP
94EF 00             NOP
94F0 00             NOP
94F1 00             NOP
94F2 3C             INC	A
94F3 00             NOP
94F4 FF             RST	38
- 
94F5 81             ADD	A,C
94F6 FF             RST	38
94F7 C3 FF C3       JP	C3FF
94FA FF             RST	38
94FB E7             RST	20
94FC FF             RST	38
94FD E7             RST	20
94FE FF             RST	38
94FF E7             RST	20
9500 FF             RST	38
9501 E7             RST	20
9502 FF             RST	38
9503 C3 FF C3       JP	C3FF
9506 FF             RST	38
9507 81             ADD	A,C
9508 FF             RST	38
9509 00             NOP
950A FF             RST	38
950B 00             NOP
950C 3C             INC	A
- 
950D 00             NOP
950E 00             NOP
950F 00             NOP
9510 0F             RRCA
9511 80             ADD	A,B
9512 1F             RRA
9513 C0             RET	NZ
9514 3F             CCF
9515 C0             RET	NZ
9516 3F             CCF
9517 E0             RET	PO
9518 7F             LD	A,A
9519 E0             RET	PO
951A 7F             LD	A,A
951B F0             RET	P
951C FF             RST	38
951D F0             RET	P
951E FF             RST	38
951F F0             RET	P
9520 FF             RST	38
- 
9521 F0             RET	P
9522 FF             RST	38
9523 E0             RET	PO
9524 7F             LD	A,A
9525 E0             RET	PO
9526 7F             LD	A,A
9527 C0             RET	NZ
9528 3F             CCF
9529 C0             RET	NZ
952A 3F             CCF
952B 80             ADD	A,B
952C 1F             RRA
952D 00             NOP
952E 0F             RRCA
952F 00             NOP
9530 00             NOP
9531 00             NOP
9532 00             NOP
9533 00             NOP
9534 00             NOP
- 
9535 3F             CCF
9536 FE 2F          CP	2F
9538 FA 3F FE       JP	M,FE3F
953B 3F             CCF
953C FE 3F          CP	3F
953E FE 3F          CP	3F
9540 FE 3F          CP	3F
9542 FE 3F          CP	3F
9544 FE 3F          CP	3F
9546 FE 3F          CP	3F
9548 FE 3F          CP	3F
954A FE 2F          CP	2F
954C FA 3F FE       JP	M,FE3F
954F 03             INC	BC
9550 80             ADD	A,B
9551 02             LD	(BC),A
9552 E0             RET	PO
9553 07             RLCA
9554 FC 07 FF       CALL	M,FF07
9557 CF             RST	08
- 
9558 FF             RST	38
9559 4F             LD	C,A
955A FF             RST	38
955B CF             RST	08
955C FF             RST	38
955D 9F             SBC	A,A
955E FF             RST	38
955F 9F             SBC	A,A
9560 FF             RST	38
9561 3F             CCF
9562 FF             RST	38
9563 2F             CPL
9564 FF             RST	38
9565 3F             CCF
9566 FF             RST	38
9567 0F             RRCA
9568 FE 03          CP	03
956A FE 00          CP	00
956C 74             LD	(HL),H
956D 00             NOP
- 
956E 1C             INC	E
956F 00             NOP
9570 18 00          JR	9572
9572 2C             INC	L
9573 00             NOP
9574 7E             LD	A,(HL)
9575 00             NOP
9576 FF             RST	38
9577 81             ADD	A,C
9578 FF             RST	38
9579 C3 FF E7       JP	E7FF
957C FF             RST	38
957D DF             RST	18
957E FF             RST	38
957F FB             EI
9580 FF             RST	38
9581 E7             RST	20
9582 FF             RST	38
9583 C3 FF 81       JP	81FF
9586 FF             RST	38
- 
9587 00             NOP
9588 FF             RST	38
9589 00             NOP
958A 7E             LD	A,(HL)
958B 00             NOP
958C 34             INC	(HL)
958D 00             NOP
958E 18 C0          JR	9550
9590 01 40 07       LD	BC,0740
9593 E0             RET	PO
9594 3F             CCF
9595 E0             RET	PO
9596 FF             RST	38
9597 F3             DI
9598 FF             RST	38
9599 F2 FF F3       JP	P,F3FF
959C FF             RST	38
959D F9             LD	SP,HL
959E FF             RST	38
959F F9             LD	SP,HL
- 
95A0 FF             RST	38
95A1 FC FF F4       CALL	M,F4FF
95A4 FF             RST	38
95A5 FC FF F0       CALL	M,F0FF
95A8 7F             LD	A,A
95A9 C0             RET	NZ
95AA 7F             LD	A,A
95AB 00             NOP
95AC 2E 00          LD	L,00
95AE 38 1C          JR 	C,95CC
95B0 00             NOP
95B1 7E             LD	A,(HL)
95B2 00             NOP
95B3 2A F0 40       LD	HL,(40F0)
95B6 FC FE EE       CALL	M,EEFE
95B9 38 F6          JR 	C,95B1
95BB 73             LD	(HL),E
95BC F6 01          OR	01
95BE F0             RET	P
95BF 06 EE          LD	B,EE
- 
95C1 02             LD	(BC),A
95C2 06 00          LD	B,00
95C4 A8             XOR	B
95C5 0C             INC	C
95C6 DC 07 9C       CALL	C,9C07
95C9 07             RLCA
95CA 07             RLCA
95CB 03             INC	BC
95CC 0F             RRCA
95CD 00             NOP
95CE 3E 07          LD	A,07
95D0 00             NOP
95D1 1F             RRA
95D2 80             ADD	A,B
95D3 0A             LD	A,(BC)
95D4 BC             CP	H
95D5 14             INC	D
95D6 3F             CCF
95D7 BF             CP	A
95D8 BB             CP	E
- 
95D9 CE 3D          ADC	A,3D
95DB DC FE 00       CALL	C,00FE
95DE 7E             LD	A,(HL)
95DF C3 BD C1       JP	C1BD
95E2 80             ADD	A,B
95E3 00             NOP
95E4 1F             RRA
95E5 00             NOP
95E6 DB 00          IN A,(00)
95E8 FC 00 3C       CALL	M,3C00
95EB 00             NOP
95EC 03             INC	BC
95ED 00             NOP
95EE 3F             CCF
95EF 01 C0 07       LD	BC,07C0
95F2 E0             RET	PO
95F3 02             LD	(BC),A
95F4 AF             XOR	A
95F5 C1             POP	BC
95F6 0F             RRCA
- 
95F7 EF             RST	28
95F8 EE 63          XOR	63
95FA 8F             ADC	A,A
95FB 67             LD	H,A
95FC 3F             CCF
95FD 00             NOP
95FE 1F             RRA
95FF E0             RET	PO
9600 6E             LD	L,(HL)
9601 60             LD	H,B
9602 20 80          JR	NZ,9584
9604 0E 00          LD	C,00
9606 0F             RRCA
9607 C0             RET	NZ
9608 03             INC	BC
9609 C0             RET	NZ
960A 07             RLCA
960B 00             NOP
960C 37             SCF
960D 00             NOP
- 
960E 38 00          JR 	C,9610
9610 70             LD	(HL),B
9611 01 F8 C0       LD	BC,C0F8
9614 AB             XOR	E
9615 F0             RET	P
9616 03             INC	BC
9617 BB             CP	E
9618 FB             EI
9619 D8             RET	C
961A E3             EX	(SP),HL
961B D9             EXX
961C CF             RST	08
961D 80             ADD	A,B
961E 07             RLCA
961F 74             LD	(HL),H
9620 0B             DEC	BC
9621 30 00          JR	NC,9623
9623 88             ADC	A,B
9624 00             NOP
9625 F0             RET	P
- 
9626 02             LD	(BC),A
9627 7C             LD	A,H
9628 03             INC	BC
9629 1C             INC	E
962A 06 18          LD	B,18
962C 3F             CCF
962D 38 3F          JR 	C,966E
962F 00             NOP
9630 38 00          JR 	C,9632
9632 7E             LD	A,(HL)
9633 0F             RRCA
9634 54             LD	D,H
9635 3F             CCF
9636 0A             LD	A,(BC)
9637 77             LD	(HL),A
9638 7F             LD	A,A
9639 EF             RST	28
963A 1C             INC	E
963B DF             RST	18
963C CE 1F          ADC	A,1F
- 
963E 80             ADD	A,B
963F EF             RST	28
9640 70             LD	(HL),B
9641 C0             RET	NZ
9642 60             LD	H,B
9643 3E 00          LD	A,00
9645 36 C0          LD	(HL),C0
9647 0F             RRCA
9648 C0             RET	NZ
9649 0F             RRCA
964A 00             NOP
964B 30 00          JR	NC,964D
964D 3F             CCF
964E 00             NOP
964F 00             NOP
9650 0E 80          LD	C,80
9652 1F             RRA
9653 03             INC	BC
9654 D5             PUSH	DE
9655 8F             ADC	A,A
- 
9656 C0             RET	NZ
9657 DD DF          RST	18
9659 1B             DEC	DE
965A C7             RST	00
965B 9B             SBC	A,E
965C F3             DI
965D 03             INC	BC
965E E0             RET	PO
965F 1D             DEC	E
9660 D8             RET	C
9661 18 10          JR	9673
9663 05             DEC	B
9664 40             LD	B,B
9665 0E CC          LD	C,CC
9667 0E 78          LD	C,78
9669 38 38          JR 	C,96A3
966B 3C             INC	A
966C 30 1F          JR	NC,968D
966E 00             NOP
966F 80             ADD	A,B
- 
9670 03             INC	BC
9671 E0             RET	PO
9672 07             RLCA
9673 40             LD	B,B
9674 F5             PUSH	AF
9675 03             INC	BC
9676 F0             RET	P
9677 F7             RST	30
9678 77             LD	(HL),A
9679 C6 F1          ADD	A,F1
967B E6 FC          AND	FC
967D 00             NOP
967E 78             LD	A,B
967F 0B             DEC	BC
9680 B4             OR	H
9681 03             INC	BC
9682 00             NOP
9683 04             INC	B
9684 40             LD	B,B
9685 03             INC	BC
- 
9686 D0             RET	NC
9687 0F             RRCA
9688 B0             OR	B
9689 0E 18          LD	C,18
968B 06 3F          LD	B,3F
968D 07             RLCA
968E 3F             CCF
968F E0             RET	PO
9690 00             NOP
9691 F8             RET	M
9692 01 50 3D       LD	BC,3D50
9695 20 FC          JR	NZ,9693
9697 FD             ???
9698 DD 71 BC       LD	(IX-44),C
969B 39             ADD	HL,SP
969C BF             CP	A
969D 00             NOP
969E 3E 81          LD	A,81
96A0 DD 01 81 00    LD	BC,0081
96A4 5C             LD	E,H
- 
96A5 00             NOP
96A6 3C             INC	A
96A7 00             NOP
96A8 F0             RET	P
96A9 00             NOP
96AA F8             RET	M
96AB 00             NOP
96AC 3B             DEC 	SP
96AD 00             NOP
96AE 07             RLCA
96AF 0F             RRCA
96B0 F0             RET	P
96B1 1F             RRA
96B2 F8             RET	M
96B3 3F             CCF
96B4 FC 3B DC       CALL	M,DC3B
96B7 71             LD	(HL),C
96B8 8E             ADC	A,(HL)
96B9 71             LD	(HL),C
96BA 8E             ADC	A,(HL)
- 
96BB 75             LD	(HL),L
96BC AE             XOR	(HL)
96BD 7B             LD	A,E
96BE DE 7E          SBC	A,7E
96C0 7E             LD	A,(HL)
96C1 7C             LD	A,H
96C2 3E 3C          LD	A,3C
96C4 3C             INC	A
96C5 1F             RRA
96C6 F8             RET	M
96C7 3F             CCF
96C8 FC 7F FE       CALL	M,FE7F
96CB 3C             INC	A
96CC 3C             INC	A
96CD 18 18          JR	96E7
96CF 03             INC	BC
96D0 FC 07 FE       CALL	M,FE07
96D3 0F             RRCA
96D4 FF             RST	38
96D5 0E F7          LD	C,F7
- 
96D7 9C             SBC	A,H
96D8 63             LD	H,E
96D9 9D             SBC	A,L
96DA 6B             LD	L,E
96DB 9C             SBC	A,H
96DC 63             LD	H,E
96DD 9E             SBC	A,(HL)
96DE F7             RST	30
96DF 9F             SBC	A,A
96E0 9F             SBC	A,A
96E1 9F             SBC	A,A
96E2 0F             RRCA
96E3 0F             RRCA
96E4 0F             RRCA
96E5 07             RLCA
96E6 FE 0F          CP	0F
96E8 FF             RST	38
96E9 9F             SBC	A,A
96EA FF             RST	38
96EB 9C             SBC	A,H
- 
96EC F3             DI
96ED 08             EX	AF,AF'
96EE 61             LD	H,C
96EF 00             NOP
96F0 FF             RST	38
96F1 81             ADD	A,C
96F2 FF             RST	38
96F3 C3 FF C3       JP	C3FF
96F6 BD             CP	L
96F7 E7             RST	20
96F8 5A             LD	E,D
96F9 E7             RST	20
96FA 18 E7          JR	96E3
96FC 18 E7          JR	96E5
96FE BD             CP	L
96FF E7             RST	20
9700 E7             RST	20
9701 E7             RST	20
9702 C3 C3 C3       JP	C3C3
9705 81             ADD	A,C
- 
9706 FF             RST	38
9707 C3 FF E7       JP	E7FF
970A FF             RST	38
970B C3 C3 81       JP	81C3
970E 81             ADD	A,C
970F C0             RET	NZ
9710 3F             CCF
9711 E0             RET	PO
9712 7F             LD	A,A
9713 F0             RET	P
9714 FF             RST	38
9715 70             LD	(HL),B
9716 EF             RST	28
9717 39             ADD	HL,SP
9718 C6 B9          ADD	A,B9
971A D6 39          SUB	39
971C C6 79          ADD	A,79
971E EF             RST	28
971F F9             LD	SP,HL
9720 F9             LD	SP,HL
- 
9721 F9             LD	SP,HL
9722 F0             RET	P
9723 F0             RET	P
9724 F0             RET	P
9725 E0             RET	PO
9726 7F             LD	A,A
9727 F0             RET	P
9728 FF             RST	38
9729 F9             LD	SP,HL
972A FF             RST	38
972B 39             ADD	HL,SP
972C CF             RST	08
972D 10 86          DJNZ	96B5
972F 00             NOP
9730 00             NOP
9731 03             INC	BC
9732 80             ADD	A,B
9733 0F             RRCA
9734 F0             RET	P
9735 1F             RRA
- 
9736 F8             RET	M
9737 1F             RRA
9738 F8             RET	M
9739 1F             RRA
973A 1C             INC	E
973B 38 EC          JR 	C,9729
973D 37             SCF
973E A8             XOR	B
973F 15             DEC	D
9740 E0             RET	PO
9741 17             RLA
9742 0C             INC	C
9743 08             EX	AF,AF'
9744 FE 1F          CP	1F
9746 DB 1C          IN A,(1C)
9748 DB 3B          IN A,(3B)
974A 96             SUB	(HL)
974B EA 36 4C       JP	PE,4C36
974E 62             LD	H,D
974F 00             NOP
- 
9750 00             NOP
9751 01 F0 07       LD	BC,07F0
9754 FC 07 FE       CALL	M,FE07
9757 0F             RRCA
9758 FE 0F          CP	0F
975A C7             RST	00
975B 0E 3B          LD	C,3B
975D 05             DEC	B
975E EA 05 78       JP	PE,7805
9761 05             DEC	B
9762 C3 82 3F       JP	3F82
9765 87             ADD	A,A
9766 FA CF 1A       JP	M,1ACF ; JP	M,P_RESTORE
9769 5B             LD	E,E
976A 36 5B          LD	(HL),5B
976C 64             LD	H,H
976D 09             ADD	HL,BC
976E 60             LD	H,B
976F 00             NOP
9770 00             NOP
- 
9771 00             NOP
9772 3E 00          LD	A,00
9774 FF             RST	38
9775 01 FF 81       LD	BC,81FF
9778 FF             RST	38
9779 83             ADD	A,E
977A 8F             ADC	A,A
977B C3 71 C1       JP	C171
977E 5E             LD	E,(HL)
977F 80             ADD	A,B
9780 7A             LD	A,D
9781 83             ADD	A,E
9782 8E             ADC	A,(HL)
9783 07             RLCA
9784 F1             POP	AF
9785 8D             ADC	A,L
9786 7F             LD	A,A
9787 D9             EXX
9788 63             LD	H,E
9789 75             LD	(HL),L
- 
978A 66             LD	H,(HL)
978B 00             NOP
978C B6             OR	(HL)
978D C0             RET	NZ
978E D2 00 00       JP	NC,0000 ; JP	NC,START
9791 C0             RET	NZ
9792 03             INC	BC
9793 E0             RET	PO
9794 1F             RRA
9795 F0             RET	P
9796 3F             CCF
9797 F0             RET	P
9798 7F             LD	A,A
9799 F0             RET	P
979A E3             EX	(SP),HL
979B 70             LD	(HL),B
979C DC A0 57       CALL	C,57A0
979F A0             AND	B
97A0 1E A0          LD	E,A0
97A2 E3             EX	(SP),HL
- 
97A3 41             LD	B,C
97A4 FC E1 7F       CALL	M,7FE1
97A7 F1             POP	AF
97A8 2C             INC	L
97A9 D3 64          OUT	(64),A
97AB DF             RST	18
97AC 46             LD	B,(HL)
97AD C4 60 FF       CALL	NZ,FF60
97B0 FF             RST	38
97B1 C0             RET	NZ
97B2 0D             DEC	C
97B3 B0             OR	B
97B4 F7             RST	30
97B5 A1             AND	C
97B6 E5             PUSH	HL
97B7 83             ADD	A,E
97B8 C7             RST	00
97B9 87             ADD	A,A
97BA 85             ADD	A,L
97BB 8F             ADC	A,A
- 
97BC 07             RLCA
97BD 9E             SBC	A,(HL)
97BE 17             RLA
97BF C0             RET	NZ
97C0 0D             DEC	C
97C1 FF             RST	38
97C2 FF             RST	38
97C3 01 80 71       LD	BC,7180
97C6 8E             ADC	A,(HL)
97C7 EB             EX	DE,HL
97C8 DF             RST	18
97C9 DB D1          IN A,(D1)
97CB B8             CP	B
97CC 1F             RRA
97CD 70             LD	(HL),B
97CE 0E 00          LD	C,00
97D0 00             NOP
97D1 FF             RST	38
97D2 FF             RST	38
97D3 70             LD	(HL),B
- 
97D4 03             INC	BC
97D5 E0             RET	PO
97D6 F1             POP	AF
97D7 61             LD	H,C
97D8 E1             POP	HL
97D9 E3             EX	(SP),HL
97DA C1             POP	BC
97DB 67             LD	H,A
97DC 85             ADD	A,L
97DD EF             RST	28
97DE 0D             DEC	C
97DF EE 1D          XOR	1D
97E1 70             LD	(HL),B
97E2 03             INC	BC
97E3 01 F8 9C       LD	BC,9CF8
97E6 63             LD	H,E
97E7 FE 65          CP	65
97E9 E2 F6 7E       JP	PO,7EF6
97EC F7             RST	30
97ED 9C             SBC	A,H
- 
97EE 03             INC	BC
97EF 00             NOP
97F0 00             NOP
97F1 FF             RST	38
97F2 FF             RST	38
97F3 DC 00 78       CALL	C,7800
97F6 F0             RET	P
97F7 59             LD	E,C
97F8 E1             POP	HL
97F9 7B             LD	A,E
97FA C3 5B 87       JP	875B
97FD 7B             LD	A,E
97FE 0F             RRCA
97FF 7A             LD	A,D
9800 1E DC          LD	E,DC
9802 00             NOP
9803 00             NOP
9804 7E             LD	A,(HL)
9805 E7             RST	20
9806 18 BB          JR	97C3
- 
9808 99             SBC	A,C
9809 BD             CP	L
980A BD             CP	L
980B BE             CP	(HL)
980C BD             CP	L
980D E7             RST	20
980E 00             NOP
980F FF             RST	38
9810 FF             RST	38
9811 37             SCF
9812 00             NOP
9813 DE F0          SBC	A,F0
9815 D6 E1          SUB	E1
9817 DE C3          SBC	A,C3
9819 96             SUB	(HL)
981A 87             ADD	A,A
981B 1E 0F          LD	E,0F
981D 1E 1E          LD	E,1E
981F 37             SCF
9820 00             NOP
- 
9821 FF             RST	38
9822 FF             RST	38
9823 00             NOP
9824 06 39          LD	B,39
9826 C6 77          ADD	A,77
9828 6F             LD	L,A
9829 6F             LD	L,A
982A 6F             LD	L,A
982B 5F             LD	E,A
982C 60             LD	H,B
982D 39             ADD	HL,SP
982E C0             RET	NZ
982F 00             NOP
9830 00             NOP
9831 03             INC	BC
9832 C0             RET	NZ
9833 05             DEC	B
9834 A0             AND	B
9835 2F             CPL
9836 F4 6F F6       CALL	P,F66F
- 
9839 EE 77          XOR	77
983B C6 63          ADD	A,63
983D DB DB          IN A,(DB)
983F EC 37 EF       CALL	PE,EF37
9842 F7             RST	30
9843 0F             RRCA
9844 F0             RET	P
9845 7F             LD	A,A
9846 FE 3F          CP	3F
9848 FC 03 C0       CALL	M,C003
984B 7B             LD	A,E
984C DE 78          SBC	A,78
984E 1E 03          LD	E,03
9850 C0             RET	NZ
9851 05             DEC	B
9852 A0             AND	B
9853 2F             CPL
9854 F4 6F F6       CALL	P,F66F
9857 EC 37 F6       CALL	PE,F637
985A 6F             LD	L,A
- 
985B EB             EX	DE,HL
985C C3 CC 37       JP	37CC
985F F7             RST	30
9860 F6 F7          OR	F7
9862 F0             RET	P
9863 37             SCF
9864 FC 4F FC       CALL	M,FC4F
9867 3F             CCF
9868 F8             RET	M
9869 07             RLCA
986A 80             ADD	A,B
986B F7             RST	30
986C BC             CP	H
986D F0             RET	P
986E 3C             INC	A
986F 03             INC	BC
9870 C0             RET	NZ
9871 05             DEC	B
9872 A0             AND	B
9873 0F             RRCA
- 
9874 F0             RET	P
9875 2F             CPL
9876 F4 6C 36       CALL	P,366C
9879 F6 6F          OR	6F
987B CB D3          SET	2,E
987D DC 3B EF       CALL	C,EF3B
9880 F7             RST	30
9881 EF             RST	28
9882 F7             RST	30
9883 0F             RRCA
9884 F0             RET	P
9885 7F             LD	A,A
9886 FC 3F F8       CALL	M,F83F
9889 03             INC	BC
988A C0             RET	NZ
988B 7B             LD	A,E
988C DE 78          SBC	A,78
988E 1E 00          LD	E,00
9890 00             NOP
9891 03             INC	BC
- 
9892 C0             RET	NZ
9893 25             DEC	H
9894 A0             AND	B
9895 6F             LD	L,A
9896 F4 EF F6       CALL	P,F6EF
9899 EE 77          XOR	77
989B C6 67          ADD	A,67
989D EB             EX	DE,HL
989E D3 6C          OUT	(6C),A
98A0 2F             CPL
98A1 0F             RRCA
98A2 EF             RST	28
98A3 7F             LD	A,A
98A4 EC 7F F2       CALL	PE,F27F
98A7 3F             CCF
98A8 FC 01 E0       CALL	M,E001
98AB 3D             DEC	A
98AC EF             RST	28
98AD 3C             INC	A
98AE 0F             RRCA
- 
98AF 00             NOP
98B0 E0             RET	PO
98B1 07             RLCA
98B2 F0             RET	P
98B3 3F             CCF
98B4 FC 3F FE       CALL	M,FE3F
98B7 7F             LD	A,A
98B8 F0             RET	P
98B9 7F             LD	A,A
98BA 8C             ADC	A,H
98BB FC 7C E3       CALL	M,E37C
98BE FC 1F 8E       CALL	M,8E1F
98C1 39             ADD	HL,SP
98C2 8E             ADC	A,(HL)
98C3 31 86 10       LD	SP,1086
98C6 C6 19          ADD	A,19
98C8 C0             RET	NZ
98C9 0F             RRCA
98CA C0             RET	NZ
98CB 0E 00          LD	C,00
- 
98CD 00             NOP
98CE 00             NOP
98CF 00             NOP
98D0 00             NOP
98D1 1F             RRA
98D2 F8             RET	M
98D3 1F             RRA
98D4 F8             RET	M
98D5 3F             CCF
98D6 FC 3F FC       CALL	M,FC3F
98D9 7F             LD	A,A
98DA FE 00          CP	00
98DC 00             NOP
98DD 3F             CCF
98DE FC 3F FC       CALL	M,FC3F
98E1 31 8C 31       LD	SP,318C
98E4 8C             ADC	A,H
98E5 11 88 1F       LD	DE,1F88
98E8 88             ADC	A,B
98E9 1F             RRA
- 
98EA 88             ADC	A,B
98EB 00             NOP
98EC 00             NOP
98ED 00             NOP
98EE 00             NOP
98EF 07             RLCA
98F0 00             NOP
98F1 0F             RRCA
98F2 E0             RET	PO
98F3 3F             CCF
98F4 FC 7F FC       CALL	M,FC7F
98F7 0F             RRCA
98F8 FE 31          CP	31
98FA FE 3E          CP	3E
98FC 3F             CCF
98FD 27             DAA
98FE C7             RST	00
98FF 63             LD	H,E
9900 F8             RET	M
9901 63             LD	H,E
- 
9902 3C             INC	A
9903 73             LD	(HL),E
9904 1C             INC	E
9905 7E             LD	A,(HL)
9906 18 1E          JR	9926
9908 38 02          JR 	C,990C
990A 30 00          JR	NC,990C
990C 70             LD	(HL),B
990D 00             NOP
990E 00             NOP
990F 00             NOP
9910 00             NOP
9911 F0             RET	P
9912 00             NOP
9913 BF             CP	A
9914 E0             RET	PO
9915 FF             RST	38
9916 FF             RST	38
9917 7F             LD	A,A
9918 F6 7C          OR	7C
- 
991A FC 38 7C       CALL	M,7C38
991D 38 78          JR 	C,9997
991F 3C             INC	A
9920 F0             RET	P
9921 1F             RRA
9922 E0             RET	PO
9923 1F             RRA
9924 C0             RET	NZ
9925 0F             RRCA
9926 80             ADD	A,B
9927 0D             DEC	C
9928 80             ADD	A,B
9929 07             RLCA
992A 00             NOP
992B 06 00          LD	B,00
992D 04             INC	B
992E 00             NOP
992F 10 00          DJNZ	9931
9931 18 00          JR	9933
9933 1E 00          LD	E,00
- 
9935 17             RLA
9936 00             NOP
9937 1F             RRA
9938 80             ADD	A,B
9939 3F             CCF
993A C0             RET	NZ
993B 3F             CCF
993C E0             RET	PO
993D 3C             INC	A
993E F8             RET	M
993F 38 7C          JR 	C,99BD
9941 38 76          JR 	C,99B9
9943 3C             INC	A
9944 FF             RST	38
9945 3F             CCF
9946 F8             RET	M
9947 7F             LD	A,A
9948 E0             RET	PO
9949 7F             LD	A,A
994A 80             ADD	A,B
- 
994B 5C             LD	E,H
994C 00             NOP
994D 70             LD	(HL),B
994E 00             NOP
994F 00             NOP
9950 20 00          JR	NZ,9952
9952 60             LD	H,B
9953 00             NOP
9954 E0             RET	PO
9955 01 B0 01       LD	BC,01B0
9958 F0             RET	P
9959 03             INC	BC
995A F8             RET	M
995B 07             RLCA
995C F8             RET	M
995D 0F             RRCA
995E 3C             INC	A
995F 1E 1C          LD	E,1C
9961 3E 1C          LD	A,1C
9963 3F             CCF
- 
9964 3E 6F          LD	A,6F
9966 FE FF          CP	FF
9968 FF             RST	38
9969 07             RLCA
996A FD 00          NOP
996C 0F             RRCA
996D 00             NOP
996E 00             NOP
996F 00             NOP
9970 0E 00          LD	C,00
9972 3A 01 FE       LD	A,(FE01)
9975 07             RLCA
9976 FE 1F          CP	1F
9978 FC FF 3C       CALL	M,3CFF
997B 6E             LD	L,(HL)
997C 1C             INC	E
997D 3E 1C          LD	A,1C
997F 1F             RRA
9980 3C             INC	A
9981 07             RLCA
- 
9982 FC 03 FC       CALL	M,FC03
9985 01 F8 00       LD	BC,00F8
9988 E8             RET	PE
9989 00             NOP
998A 78             LD	A,B
998B 00             NOP
998C 18 00          JR	998E
998E 08             EX	AF,AF'
998F 07             RLCA
9990 C0             RET	NZ
9991 07             RLCA
9992 E0             RET	PO
9993 03             INC	BC
9994 E0             RET	PO
9995 03             INC	BC
9996 C0             RET	NZ
9997 01 C0 60       LD	BC,60C0
999A 83             ADD	A,E
999B F8             RET	M
999C 8F             ADC	A,A
- 
999D FE 1F          CP	1F
999F F8             RET	M
99A0 7F             LD	A,A
99A1 F1             POP	AF
99A2 1F             RRA
99A3 C1             POP	BC
99A4 06 03          LD	B,03
99A6 80             ADD	A,B
99A7 03             INC	BC
99A8 C0             RET	NZ
99A9 07             RLCA
99AA C0             RET	NZ
99AB 07             RLCA
99AC E0             RET	PO
99AD 03             INC	BC
99AE E0             RET	PO
99AF 0C             INC	C
99B0 00             NOP
99B1 3E 00          LD	A,00
99B3 1E 02          LD	E,02
- 
99B5 1F             RRA
99B6 0E 0F          LD	C,0F
99B8 1F             RRA
99B9 07             RLCA
99BA 3F             CCF
99BB 01 3E 00       LD	BC,003E
99BE 78             LD	A,B
99BF 1E 00          LD	E,00
99C1 7C             LD	A,H
99C2 80             ADD	A,B
99C3 FC E0 F8       CALL	M,F8E0
99C6 F0             RET	P
99C7 70             LD	(HL),B
99C8 F8             RET	M
99C9 40             LD	B,B
99CA 78             LD	A,B
99CB 00             NOP
99CC 7C             LD	A,H
99CD 00             NOP
99CE 30 00          JR	NC,99D0
- 
99D0 08             EX	AF,AF'
99D1 30 1C          JR	NC,99EF
99D3 78             LD	A,B
99D4 3E FC          LD	A,FC
99D6 3E 7E          LD	A,7E
99D8 7C             LD	A,H
99D9 3E 78          LD	A,78
99DB 0E F0          LD	C,F0
99DD 02             LD	(BC),A
99DE 00             NOP
99DF 00             NOP
99E0 40             LD	B,B
99E1 0F             RRCA
99E2 70             LD	(HL),B
99E3 1E 7C          LD	E,7C
99E5 3E 7E          LD	A,7E
99E7 7C             LD	A,H
99E8 3F             CCF
99E9 7C             LD	A,H
99EA 1E 38          LD	E,38
- 
99EC 0C             INC	C
99ED 10 00          DJNZ	99EF
99EF 00             NOP
99F0 70             LD	(HL),B
99F1 00             NOP
99F2 78             LD	A,B
99F3 00             NOP
99F4 78             LD	A,B
99F5 70             LD	(HL),B
99F6 F8             RET	M
99F7 F8             RET	M
99F8 F0             RET	P
99F9 FC E0 FC       CALL	M,FCE0
99FC 80             ADD	A,B
99FD 1E 00          LD	E,00
99FF 00             NOP
9A00 78             LD	A,B
9A01 01 3F 07       LD	BC,073F
9A04 3F             CCF
9A05 0F             RRCA
- 
9A06 1F             RRA
9A07 1F             RRA
9A08 0E 1E          LD	C,1E
9A0A 00             NOP
9A0B 1E 00          LD	E,00
9A0D 0E 00          LD	C,00
9A0F 1E 00          LD	E,00
9A11 39             ADD	HL,SP
9A12 00             NOP
9A13 63             LD	H,E
9A14 C0             RET	NZ
9A15 4F             LD	C,A
9A16 F0             RET	P
9A17 1B             DEC	DE
9A18 D8             RET	C
9A19 33             INC	SP
9A1A CC 39 9C       CALL	Z,9C39
9A1D 7F             LD	A,A
9A1E FE 5D          CP	5D
9A20 BA             CP	D
- 
9A21 57             LD	D,A
9A22 EA 42 42       JP	PE,4242
9A25 20 04          JR	NZ,9A2B
9A27 20 04          JR	NZ,9A2D
9A29 14             INC	D
9A2A 28 0D          JR	Z,9A39
9A2C B0             OR	B
9A2D 03             INC	BC
9A2E C0             RET	NZ
9A2F 3E 00          LD	A,00
9A31 79             LD	A,C
9A32 00             NOP
9A33 E3             EX	(SP),HL
9A34 C0             RET	NZ
9A35 0F             RRCA
9A36 F0             RET	P
9A37 1B             DEC	DE
9A38 D8             RET	C
9A39 33             INC	SP
9A3A CC 39 9C       CALL	Z,9C39
- 
9A3D 7F             LD	A,A
9A3E FE 7D          CP	7D
9A40 BE             CP	(HL)
9A41 5F             LD	E,A
9A42 FA 4B D2       JP	M,D24B
9A45 22 44 24       LD	(2444),HL
9A48 24             INC	H
9A49 1D             DEC	E
9A4A B8             CP	B
9A4B 0F             RRCA
9A4C F0             RET	P
9A4D 03             INC	BC
9A4E C0             RET	NZ
9A4F 1E 00          LD	E,00
9A51 FF             RST	38
9A52 00             NOP
9A53 71             LD	(HL),C
9A54 00             NOP
9A55 03             INC	BC
9A56 C0             RET	NZ
- 
9A57 0F             RRCA
9A58 F0             RET	P
9A59 1B             DEC	DE
9A5A D8             RET	C
9A5B 33             INC	SP
9A5C CC 39 9C       CALL	Z,9C39
9A5F 7F             LD	A,A
9A60 FE 7D          CP	7D
9A62 BE             CP	(HL)
9A63 5F             LD	E,A
9A64 FA 4B D2       JP	M,D24B
9A67 26 64          LD	H,64
9A69 1D             DEC	E
9A6A B8             CP	B
9A6B 0F             RRCA
9A6C F0             RET	P
9A6D 03             INC	BC
9A6E C0             RET	NZ
9A6F 00             NOP
9A70 00             NOP
- 
9A71 30 18          JR	NC,9A8B
9A73 3C             INC	A
9A74 78             LD	A,B
9A75 6C             LD	L,H
9A76 6C             LD	L,H
9A77 78             LD	A,B
9A78 3C             INC	A
9A79 D8             RET	C
9A7A 36 F0          LD	(HL),F0
9A7C 1E F0          LD	E,F0
9A7E 1E B0          LD	E,B0
9A80 1A             LD	A,(DE)
9A81 F8             RET	M
9A82 3E D8          LD	A,D8
9A84 36 7C          LD	(HL),7C
9A86 7C             LD	A,H
9A87 6F             LD	L,A
9A88 EC 3B B8       CALL	PE,B83B
9A8B 1F             RRA
9A8C F0             RET	P
- 
9A8D 07             RLCA
9A8E C0             RET	NZ
9A8F 00             NOP
9A90 20 00          JR	NZ,9A92
9A92 70             LD	(HL),B
9A93 60             LD	H,B
9A94 D8             RET	C
9A95 F8             RET	M
9A96 7C             LD	A,H
9A97 B8             CP	B
9A98 2C             INC	L
9A99 F0             RET	P
9A9A 3E B0          LD	A,B0
9A9C 1A             LD	A,(DE)
9A9D F0             RET	P
9A9E 1E F8          LD	E,F8
9AA0 1E B8          LD	E,B8
9AA2 3A 78 3E       LD	A,(3E78)
9AA5 5E             LD	E,(HL)
9AA6 74             LD	(HL),H
- 
9AA7 37             SCF
9AA8 FC 3D D8       CALL	M,D83D
9AAB 0F             RRCA
9AAC F0             RET	P
9AAD 03             INC	BC
9AAE E0             RET	PO
9AAF 00             NOP
9AB0 00             NOP
9AB1 18 0C          JR	9ABF
9AB3 1E 3C          LD	E,3C
9AB5 36 36          LD	(HL),36
9AB7 3C             INC	A
9AB8 1E 6C          LD	E,6C
9ABA 1B             DEC	DE
9ABB 78             LD	A,B
9ABC 0F             RRCA
9ABD 78             LD	A,B
9ABE 0F             RRCA
9ABF 58             LD	E,B
9AC0 0D             DEC	C
- 
9AC1 7C             LD	A,H
9AC2 1F             RRA
9AC3 6C             LD	L,H
9AC4 1B             DEC	DE
9AC5 3E 3E          LD	A,3E
9AC7 37             SCF
9AC8 F6 1D          OR	1D
9ACA DC 0F F8       CALL	C,F80F
9ACD 03             INC	BC
9ACE E0             RET	PO
9ACF 04             INC	B
9AD0 00             NOP
9AD1 0E 00          LD	C,00
9AD3 1B             DEC	DE
9AD4 06 3E          LD	B,3E
9AD6 1F             RRA
9AD7 34             INC	(HL)
9AD8 1D             DEC	E
9AD9 7C             LD	A,H
9ADA 0F             RRCA
- 
9ADB 58             LD	E,B
9ADC 0D             DEC	C
9ADD 78             LD	A,B
9ADE 0F             RRCA
9ADF 78             LD	A,B
9AE0 1F             RRA
9AE1 5C             LD	E,H
9AE2 1D             DEC	E
9AE3 7C             LD	A,H
9AE4 1E 2E          LD	E,2E
9AE6 7A             LD	A,D
9AE7 3F             CCF
9AE8 EC 1B BC       CALL	PE,BC1B
9AEB 0F             RRCA
9AEC F0             RET	P
9AED 07             RLCA
9AEE C0             RET	NZ
9AEF 00             NOP
9AF0 00             NOP
9AF1 DF             RST	18
- 
9AF2 FB             EI
9AF3 DF             RST	18
9AF4 FB             EI
9AF5 C0             RET	NZ
9AF6 03             INC	BC
9AF7 DF             RST	18
9AF8 FB             EI
9AF9 DF             RST	18
9AFA FB             EI
9AFB C0             RET	NZ
9AFC 03             INC	BC
9AFD DF             RST	18
9AFE FB             EI
9AFF DF             RST	18
9B00 FB             EI
9B01 C0             RET	NZ
9B02 03             INC	BC
9B03 07             RLCA
9B04 E0             RET	PO
9B05 73             LD	(HL),E
- 
9B06 CE A8          ADC	A,A8
9B08 15             DEC	D
9B09 DB DB          IN A,(DB)
9B0B AB             XOR	E
9B0C D5             PUSH	DE
9B0D 70             LD	(HL),B
9B0E 0E F7          LD	C,F7
9B10 FE F7          CP	F7
9B12 FE F0          CP	F0
9B14 00             NOP
9B15 F7             RST	30
9B16 FE F7          CP	F7
9B18 FE F0          CP	F0
9B1A 00             NOP
9B1B F7             RST	30
9B1C FE F7          CP	F7
9B1E FE F0          CP	F0
9B20 00             NOP
9B21 F7             RST	30
9B22 FE 01          CP	01
- 
9B24 F8             RET	M
9B25 9C             SBC	A,H
9B26 03             INC	BC
9B27 F6 F6          OR	F6
9B29 62             LD	H,D
9B2A F4 F6 06       CALL	P,06F6
9B2D 9C             SBC	A,H
9B2E 03             INC	BC
9B2F BD             CP	L
9B30 FF             RST	38
9B31 BD             CP	L
9B32 FF             RST	38
9B33 3C             INC	A
9B34 00             NOP
9B35 BD             CP	L
9B36 FF             RST	38
9B37 BD             CP	L
9B38 FF             RST	38
9B39 3C             INC	A
9B3A 00             NOP
- 
9B3B BD             CP	L
9B3C FF             RST	38
9B3D BD             CP	L
9B3E FF             RST	38
9B3F 3C             INC	A
9B40 00             NOP
9B41 BD             CP	L
9B42 FF             RST	38
9B43 00             NOP
9B44 7E             LD	A,(HL)
9B45 E7             RST	20
9B46 00             NOP
9B47 5A             LD	E,D
9B48 BD             CP	L
9B49 BD             CP	L
9B4A BD             CP	L
9B4B 5A             LD	E,D
9B4C 81             ADD	A,C
9B4D E7             RST	20
9B4E 00             NOP
- 
9B4F 00             NOP
9B50 00             NOP
9B51 EF             RST	28
9B52 7F             LD	A,A
9B53 EF             RST	28
9B54 7F             LD	A,A
9B55 0F             RRCA
9B56 00             NOP
9B57 EF             RST	28
9B58 7F             LD	A,A
9B59 EF             RST	28
9B5A 7F             LD	A,A
9B5B 0F             RRCA
9B5C 00             NOP
9B5D EF             RST	28
9B5E 7F             LD	A,A
9B5F EF             RST	28
9B60 7F             LD	A,A
9B61 0F             RRCA
9B62 00             NOP
- 
9B63 80             ADD	A,B
9B64 1F             RRA
9B65 39             ADD	HL,SP
9B66 CF             RST	08
9B67 6F             LD	L,A
9B68 60             LD	H,B
9B69 46             LD	B,(HL)
9B6A 2F             CPL
9B6B 6F             LD	L,A
9B6C 6F             LD	L,A
9B6D 39             ADD	HL,SP
9B6E C0             RET	NZ
9B6F 00             NOP
9B70 60             LD	H,B
9B71 00             NOP
9B72 E0             RET	PO
9B73 00             NOP
9B74 E0             RET	PO
9B75 71             LD	(HL),C
9B76 E0             RET	PO
- 
9B77 3F             CCF
9B78 E0             RET	PO
9B79 3F             CCF
9B7A E0             RET	PO
9B7B 1F             RRA
9B7C FC 0F FF       CALL	M,FF0F
9B7F 0F             RRCA
9B80 FF             RST	38
9B81 1F             RRA
9B82 FC 3F E0       CALL	M,E03F
9B85 7F             LD	A,A
9B86 E0             RET	PO
9B87 7C             LD	A,H
9B88 E0             RET	PO
9B89 60             LD	H,B
9B8A E0             RET	PO
9B8B 00             NOP
9B8C 60             LD	H,B
9B8D 00             NOP
9B8E 20 00          JR	NZ,9B90
- 
9B90 00             NOP
9B91 38 08          JR 	C,9B9B
9B93 3C             INC	A
9B94 38 1E          JR 	C,9BB4
9B96 78             LD	A,B
9B97 1F             RRA
9B98 F0             RET	P
9B99 1F             RRA
9B9A F0             RET	P
9B9B 0F             RRCA
9B9C F0             RET	P
9B9D 0F             RRCA
9B9E F8             RET	M
9B9F 3F             CCF
9BA0 FE 7F          CP	7F
9BA2 FF             RST	38
9BA3 FF             RST	38
9BA4 FF             RST	38
9BA5 03             INC	BC
9BA6 C0             RET	NZ
- 
9BA7 03             INC	BC
9BA8 C0             RET	NZ
9BA9 03             INC	BC
9BAA C0             RET	NZ
9BAB 01 80 01       LD	BC,0180
9BAE 80             ADD	A,B
9BAF 04             INC	B
9BB0 00             NOP
9BB1 06 00          LD	B,00
9BB3 07             RLCA
9BB4 06 07          LD	B,07
9BB6 3E 07          LD	A,07
9BB8 FC 07 FC       CALL	M,FC07
9BBB 3F             CCF
9BBC F8             RET	M
9BBD FF             RST	38
9BBE F0             RET	P
9BBF FF             RST	38
9BC0 F0             RET	P
9BC1 3F             CCF
- 
9BC2 F8             RET	M
9BC3 07             RLCA
9BC4 FC 07 FC       CALL	M,FC07
9BC7 07             RLCA
9BC8 8E             ADC	A,(HL)
9BC9 07             RLCA
9BCA 00             NOP
9BCB 07             RLCA
9BCC 00             NOP
9BCD 06 00          LD	B,00
9BCF 01 80 01       LD	BC,0180
9BD2 80             ADD	A,B
9BD3 03             INC	BC
9BD4 C0             RET	NZ
9BD5 03             INC	BC
9BD6 C0             RET	NZ
9BD7 03             INC	BC
9BD8 C0             RET	NZ
9BD9 FF             RST	38
9BDA FF             RST	38
- 
9BDB FF             RST	38
9BDC FE 7F          CP	7F
9BDE FC 1F F0       CALL	M,F01F
9BE1 0F             RRCA
9BE2 F0             RET	P
9BE3 0F             RRCA
9BE4 F8             RET	M
9BE5 0F             RRCA
9BE6 F8             RET	M
9BE7 1E 78          LD	E,78
9BE9 1C             INC	E
9BEA 3C             INC	A
9BEB 10 0C          DJNZ	9BF9
9BED 00             NOP
9BEE 00             NOP
9BEF 00             NOP
9BF0 00             NOP
9BF1 06 C0          LD	B,C0
9BF3 1E F0          LD	E,F0
9BF5 1C             INC	E
- 
9BF6 70             LD	(HL),B
9BF7 63             LD	H,E
9BF8 8C             ADC	A,H
9BF9 6D             LD	L,L
9BFA EC ED EE       CALL	PE,EEED
9BFD DE 36          SBC	A,36
9BFF 1C             INC	E
9C00 F0             RET	P
9C01 D3 76          OUT	(76),A
9C03 EF             RST	28
9C04 6E             LD	L,(HL)
9C05 6F             LD	L,A
9C06 EC 63 8C       CALL	PE,8C63
9C09 1C             INC	E
9C0A 70             LD	(HL),B
9C0B 1E F0          LD	E,F0
9C0D 06 C0          LD	B,C0
9C0F 00             NOP
9C10 00             NOP
9C11 01 E0 07       LD	BC,07E0
- 
9C14 DC 0B 1E       CALL	C,1E0B
9C17 1C             INC	E
9C18 E5             PUSH	HL
9C19 1B             DEC	DE
9C1A BB             CP	E
9C1B 9B             SBC	A,E
9C1C BB             CP	E
9C1D A7             AND	A
9C1E BD             CP	L
9C1F B4             OR	H
9C20 05             DEC	B
9C21 37             SCF
9C22 BC             CP	H
9C23 BB             CP	E
9C24 BB             CP	E
9C25 1B             DEC	DE
9C26 BB             CP	E
9C27 14             INC	D
9C28 E7             RST	20
9C29 0F             RRCA
- 
9C2A 1A             LD	A,(DE)
9C2B 07             RLCA
9C2C 7C             LD	A,H
9C2D 00             NOP
9C2E F0             RET	P
9C2F 00             NOP
9C30 00             NOP
9C31 00             NOP
9C32 7C             LD	A,H
9C33 01 7D 83       LD	BC,837D
9C36 43             LD	B,E
9C37 C7             RST	00
9C38 39             ADD	HL,SP
9C39 02             LD	(BC),A
9C3A FE EC          CP	EC
9C3C F6 6D          OR	6D
9C3E 37             SCF
9C3F 6D             LD	L,L
9C40 CF             RST	08
9C41 6D             LD	L,L
- 
9C42 E3             EX	(SP),HL
9C43 6E             LD	L,(HL)
9C44 DE 80          SBC	A,80
9C46 DE C7          SBC	A,C7
9C48 39             ADD	HL,SP
9C49 83             ADD	A,E
9C4A 85             ADD	A,L
9C4B 01 7D 00       LD	BC,007D ; LD	BC,SKIP_OVER
9C4E 7C             LD	A,H
9C4F 00             NOP
9C50 00             NOP
9C51 00             NOP
9C52 0F             RRCA
9C53 C0             RET	NZ
9C54 77             LD	(HL),A
9C55 A0             AND	B
9C56 F1             POP	AF
9C57 71             LD	(HL),C
9C58 4E             LD	C,(HL)
9C59 B1             OR	C
- 
9C5A BF             CP	A
9C5B 8B             ADC	A,E
9C5C AE             XOR	(HL)
9C5D DB 75          IN A,(75)
9C5F DB 7B          IN A,(7B)
9C61 D8             RET	C
9C62 75             LD	(HL),L
9C63 BB             CP	E
9C64 AE             XOR	(HL)
9C65 B1             OR	C
9C66 BF             CP	A
9C67 51             LD	D,C
9C68 CE E0          ADC	A,E0
9C6A B1             OR	C
9C6B C0             RET	NZ
9C6C 7D             LD	A,L
9C6D 00             NOP
9C6E 1E 00          LD	E,00
9C70 00             NOP
9C71 3C             INC	A
- 
9C72 60             LD	H,B
9C73 1E E0          LD	E,E0
9C75 07             RLCA
9C76 80             ADD	A,B
9C77 39             ADD	HL,SP
9C78 78             LD	A,B
9C79 7F             LD	A,A
9C7A FC 73 9C       CALL	M,9C73
9C7D ED 6E          ???
9C7F E9             JP	(HL)
9C80 4E             LD	C,(HL)
9C81 E9             JP	(HL)
9C82 4E             LD	C,(HL)
9C83 73             LD	(HL),E
9C84 9C             SBC	A,H
9C85 7F             LD	A,A
9C86 FC 3E F8       CALL	M,F83E
9C89 1F             RRA
9C8A F0             RET	P
9C8B 07             RLCA
- 
9C8C E0             RET	PO
9C8D 00             NOP
9C8E 00             NOP
9C8F 00             NOP
9C90 00             NOP
9C91 1E 30          LD	E,30
9C93 0F             RRCA
9C94 70             LD	(HL),B
9C95 03             INC	BC
9C96 C0             RET	NZ
9C97 1C             INC	E
9C98 BC             CP	H
9C99 3F             CCF
9C9A FE 39          CP	39
9C9C CE 76          ADC	A,76
9C9E B7             OR	A
9C9F 72             LD	(HL),D
9CA0 97             SUB	A
9CA1 72             LD	(HL),D
9CA2 97             SUB	A
- 
9CA3 39             ADD	HL,SP
9CA4 CE 3F          ADC	A,3F
9CA6 FE 1F          CP	1F
9CA8 7C             LD	A,H
9CA9 0F             RRCA
9CAA F8             RET	M
9CAB 07             RLCA
9CAC E0             RET	PO
9CAD 00             NOP
9CAE 00             NOP
9CAF 07             RLCA
9CB0 E0             RET	PO
9CB1 1F             RRA
9CB2 F8             RET	M
9CB3 39             ADD	HL,SP
9CB4 9C             SBC	A,H
9CB5 71             LD	(HL),C
9CB6 AE             XOR	(HL)
9CB7 E1             POP	HL
9CB8 B7             OR	A
- 
9CB9 F1             POP	AF
9CBA AF             XOR	A
9CBB F9             LD	SP,HL
9CBC 9F             SBC	A,A
9CBD FF             RST	38
9CBE FB             EI
9CBF DF             RST	18
9CC0 B3             OR	E
9CC1 CB 13          RL	E
9CC3 C1             POP	BC
9CC4 07             RLCA
9CC5 C0             RET	NZ
9CC6 07             RLCA
9CC7 64             LD	H,H
9CC8 4E             LD	C,(HL)
9CC9 3D             DEC	A
9CCA 6C             LD	L,H
9CCB 1F             RRA
9CCC F8             RET	M
9CCD 07             RLCA
- 
9CCE E0             RET	PO
9CCF 01 F8 07       LD	BC,07F8
9CD2 FE 0E          CP	0E
9CD4 67             LD	H,A
9CD5 9D             SBC	A,L
9CD6 6B             LD	L,E
9CD7 FB             EI
9CD8 6D             LD	L,L
9CD9 FD 6B          LD	iY,E
9CDB FE 67          CP	67
9CDD FF             RST	38
9CDE FE F7          CP	F7
9CE0 EC F2 C5       CALL	PE,C5F2
9CE3 F0             RET	P
9CE4 41             LD	B,C
9CE5 99             SBC	A,C
9CE6 13             INC	DE
9CE7 0F             RRCA
9CE8 5B             LD	E,E
9CE9 07             RLCA
- 
9CEA FE 01          CP	01
9CEC F8             RET	M
9CED 00             NOP
9CEE 00             NOP
9CEF 00             NOP
9CF0 7E             LD	A,(HL)
9CF1 81             ADD	A,C
9CF2 FF             RST	38
9CF3 C3 99 E7       JP	E799
9CF6 58             LD	E,B
9CF7 7E             LD	A,(HL)
9CF8 D8             RET	C
9CF9 FF             RST	38
9CFA 58             LD	E,B
9CFB FF             RST	38
9CFC 99             SBC	A,C
9CFD BF             CP	A
9CFE FF             RST	38
9CFF 7D             LD	A,L
9D00 FB             EI
- 
9D01 7C             LD	A,H
9D02 B1             OR	C
9D03 E6 54          AND	54
9D05 C3 C6 81       JP	81C6
9D08 FF             RST	38
9D09 00             NOP
9D0A 7E             LD	A,(HL)
9D0B 00             NOP
9D0C 00             NOP
9D0D 00             NOP
9D0E 00             NOP
9D0F 80             ADD	A,B
9D10 1F             RRA
9D11 E0             RET	PO
9D12 7F             LD	A,A
9D13 70             LD	(HL),B
9D14 E6 39          AND	39
9D16 C6 1F          ADD	A,1F
9D18 86             ADD	A,(HL)
9D19 3F             CCF
- 
9D1A C6 7F          ADD	A,7F
9D1C E6 EF          AND	EF
9D1E FF             RST	38
9D1F CF             RST	08
9D20 7E             LD	A,(HL)
9D21 5F             LD	E,A
9D22 2C             INC	L
9D23 1F             RRA
9D24 04             INC	B
9D25 39             ADD	HL,SP
9D26 91             SUB	C
9D27 B0             OR	B
9D28 F5             PUSH	AF
9D29 E0             RET	PO
9D2A 7F             LD	A,A
9D2B 80             ADD	A,B
9D2C 1F             RRA
9D2D 00             NOP
9D2E 00             NOP
9D2F 00             NOP
- 
9D30 78             LD	A,B
9D31 00             NOP
9D32 FE 3D          CP	3D
9D34 C6 79          ADD	A,79
9D36 83             ADD	A,E
9D37 FF             RST	38
9D38 9B             SBC	A,E
9D39 B1             OR	C
9D3A 9B             SBC	A,E
9D3B BC             CP	H
9D3C C7             RST	00
9D3D 9E             SBC	A,(HL)
9D3E 7E             LD	A,(HL)
9D3F 9E             SBC	A,(HL)
9D40 3C             INC	A
9D41 CF             RST	08
9D42 90             SUB	B
9D43 57             LD	D,A
9D44 D4 6B DC       CALL	NC,DC6B
9D47 35             DEC	(HL)
- 
9D48 FC 18 7C       CALL	M,7C18
9D4B 0E 18          LD	C,18
9D4D 03             INC	BC
9D4E F0             RET	P
9D4F 00             NOP
9D50 78             LD	A,B
9D51 00             NOP
9D52 8E             ADC	A,(HL)
9D53 3D             DEC	A
9D54 06 79          LD	B,79
9D56 37             SCF
9D57 FF             RST	38
9D58 37             SCF
9D59 B1             OR	C
9D5A 8F             ADC	A,A
9D5B BC             CP	H
9D5C FF             RST	38
9D5D BE             CP	(HL)
9D5E 7E             LD	A,(HL)
9D5F BE             CP	(HL)
- 
9D60 3C             INC	A
9D61 DF             RST	18
9D62 90             SUB	B
9D63 4F             LD	C,A
9D64 D4 67 DC       CALL	NC,DC67
9D67 33             INC	SP
9D68 FC 19 FC       CALL	M,FC19
9D6B 0E 18          LD	C,18
9D6D 03             INC	BC
9D6E F0             RET	P
9D6F 00             NOP
9D70 78             LD	A,B
9D71 00             NOP
9D72 FE 3D          CP	3D
9D74 C6 79          ADD	A,79
9D76 83             ADD	A,E
9D77 FF             RST	38
9D78 9B             SBC	A,E
9D79 B1             OR	C
9D7A 9B             SBC	A,E
- 
9D7B BC             CP	H
9D7C C7             RST	00
9D7D 9E             SBC	A,(HL)
9D7E 7E             LD	A,(HL)
9D7F 9E             SBC	A,(HL)
9D80 3C             INC	A
9D81 CF             RST	08
9D82 90             SUB	B
9D83 57             LD	D,A
9D84 D4 6B DC       CALL	NC,DC6B
9D87 35             DEC	(HL)
9D88 FC 18 7C       CALL	M,7C18
9D8B 0E 18          LD	C,18
9D8D 03             INC	BC
9D8E F0             RET	P
9D8F 00             NOP
9D90 78             LD	A,B
9D91 00             NOP
9D92 FE 3D          CP	3D
9D94 FE 79          CP	79
- 
9D96 E3             EX	(SP),HL
9D97 FF             RST	38
9D98 C1             POP	BC
9D99 B1             OR	C
9D9A CD 9C CD       CALL	CD9C
9D9D 9E             SBC	A,(HL)
9D9E 62             LD	H,D
9D9F AE             XOR	(HL)
9DA0 3C             INC	A
9DA1 D7             RST	10
9DA2 90             SUB	B
9DA3 5B             LD	E,E
9DA4 D4 6D DC       CALL	NC,DC6D
9DA7 36 FC          LD	(HL),FC
9DA9 19             ADD	HL,DE
9DAA 3C             INC	A
9DAB 0E 18          LD	C,18
9DAD 03             INC	BC
9DAE F0             RET	P
9DAF 00             NOP
- 
9DB0 00             NOP
9DB1 0F             RRCA
9DB2 F0             RET	P
9DB3 30 0C          JR	NC,9DC1
9DB5 47             LD	B,A
9DB6 E2 A7 E5       JP	PO,E5A7
9DB9 E7             RST	20
9DBA E7             RST	20
9DBB 80             ADD	A,B
9DBC 01 E7 E7       LD	BC,E7E7
9DBF E7             RST	20
9DC0 E7             RST	20
9DC1 E7             RST	20
9DC2 E7             RST	20
9DC3 80             ADD	A,B
9DC4 01 E7 E7       LD	BC,E7E7
9DC7 A7             AND	A
9DC8 E5             PUSH	HL
9DC9 47             LD	B,A
9DCA E2 30 0C       JP	PO,0C30
- 
9DCD 0F             RRCA
9DCE F0             RET	P
9DCF 00             NOP
9DD0 00             NOP
9DD1 0F             RRCA
9DD2 F0             RET	P
9DD3 37             SCF
9DD4 EC 60 06       CALL	PE,0660
9DD7 87             ADD	A,A
9DD8 E1             POP	HL
9DD9 E7             RST	20
9DDA E7             RST	20
9DDB E7             RST	20
9DDC E7             RST	20
9DDD 80             ADD	A,B
9DDE 01 E7 E7       LD	BC,E7E7
9DE1 E7             RST	20
9DE2 E7             RST	20
9DE3 E7             RST	20
9DE4 E7             RST	20
- 
9DE5 80             ADD	A,B
9DE6 01 E7 E7       LD	BC,E7E7
9DE9 67             LD	H,A
9DEA E6 37          AND	37
9DEC EC 0F F0       CALL	PE,F00F
9DEF 00             NOP
9DF0 00             NOP
9DF1 0F             RRCA
9DF2 F0             RET	P
9DF3 37             SCF
9DF4 EC 67 E6       CALL	PE,E667
9DF7 80             ADD	A,B
9DF8 01 E7 E7       LD	BC,E7E7
9DFB E7             RST	20
9DFC E7             RST	20
9DFD E7             RST	20
9DFE E7             RST	20
9DFF 80             ADD	A,B
9E00 01 E7 E7       LD	BC,E7E7
9E03 E7             RST	20
- 
9E04 E7             RST	20
9E05 87             ADD	A,A
9E06 E1             POP	HL
9E07 E0             RET	PO
9E08 07             RLCA
9E09 67             LD	H,A
9E0A E6 37          AND	37
9E0C EC 0F F0       CALL	PE,F00F
9E0F 00             NOP
9E10 00             NOP
9E11 0F             RRCA
9E12 F0             RET	P
9E13 37             SCF
9E14 EC 67 E6       CALL	PE,E667
9E17 E7             RST	20
9E18 E7             RST	20
9E19 80             ADD	A,B
9E1A 01 E7 E7       LD	BC,E7E7
9E1D E7             RST	20
9E1E E7             RST	20
- 
9E1F E7             RST	20
9E20 E7             RST	20
9E21 80             ADD	A,B
9E22 01 E7 E7       LD	BC,E7E7
9E25 E7             RST	20
9E26 E7             RST	20
9E27 87             ADD	A,A
9E28 E1             POP	HL
9E29 60             LD	H,B
9E2A 06 37          LD	B,37
9E2C EC 0F F0       CALL	PE,F00F
9E2F 00             NOP
9E30 60             LD	H,B
9E31 01 F0 07       LD	BC,07F0
9E34 D0             RET	NC
9E35 1F             RRA
9E36 08             EX	AF,AF'
9E37 7C             LD	A,H
9E38 38 30          JR 	C,9E6A
9E3A 3C             INC	A
- 
9E3B FB             EI
9E3C 3C             INC	A
9E3D DF             RST	18
9E3E 1E 9F          LD	E,9F
9E40 9E             SBC	A,(HL)
9E41 CF             RST	08
9E42 8F             ADC	A,A
9E43 6F             LD	L,A
9E44 CF             RST	08
9E45 3F             CCF
9E46 FC 07 F0       CALL	M,F007
9E49 03             INC	BC
9E4A C0             RET	NZ
9E4B 03             INC	BC
9E4C 00             NOP
9E4D 00             NOP
9E4E 00             NOP
9E4F 00             NOP
9E50 00             NOP
9E51 00             NOP
- 
9E52 1C             INC	E
9E53 01 FC 1F       LD	BC,1FFC ; LD	BC,PR_ITEM_1
9E56 F4 1F 04       CALL	P,041F
9E59 78             LD	A,B
9E5A 0E FC          LD	C,FC
9E5C 9E             SBC	A,(HL)
9E5D CF             RST	08
9E5E 9E             SBC	A,(HL)
9E5F CF             RST	08
9E60 8E             ADC	A,(HL)
9E61 6F             LD	L,A
9E62 CF             RST	08
9E63 3F             CCF
9E64 CF             RST	08
9E65 1F             RRA
9E66 CF             RST	08
9E67 07             RLCA
9E68 FF             RST	38
9E69 07             RLCA
9E6A F8             RET	M
- 
9E6B 07             RLCA
9E6C 80             ADD	A,B
9E6D 00             NOP
9E6E 00             NOP
9E6F 00             NOP
9E70 00             NOP
9E71 00             NOP
9E72 00             NOP
9E73 0F             RRCA
9E74 FE 7F          CP	7F
9E76 FE FC          CP	FC
9E78 02             LD	(BC),A
9E79 CC 02 CF       CALL	Z,CF02
9E7C 9E             SBC	A,(HL)
9E7D CF             RST	08
9E7E 9E             SBC	A,(HL)
9E7F 6F             LD	L,A
9E80 9E             SBC	A,(HL)
9E81 3F             CCF
9E82 9E             SBC	A,(HL)
- 
9E83 1F             RRA
9E84 9E             SBC	A,(HL)
9E85 0F             RRCA
9E86 9E             SBC	A,(HL)
9E87 0F             RRCA
9E88 FE 0F          CP	0F
9E8A FE 00          CP	00
9E8C 00             NOP
9E8D 00             NOP
9E8E 00             NOP
9E8F 00             NOP
9E90 7C             LD	A,H
9E91 0F             RRCA
9E92 FC FF FC       CALL	M,FCFF
9E95 FF             RST	38
9E96 FC FF FE       CALL	M,FEFF
9E99 FF             RST	38
9E9A FE FE          CP	FE
9E9C 3E 78          LD	A,78
9E9E 3E 78          LD	A,78
- 
9EA0 3E 78          LD	A,78
9EA2 3F             CCF
9EA3 79             LD	A,C
9EA4 FF             RST	38
9EA5 7F             LD	A,A
9EA6 FF             RST	38
9EA7 3F             CCF
9EA8 FF             RST	38
9EA9 3F             CCF
9EAA FF             RST	38
9EAB 3F             CCF
9EAC F0             RET	P
9EAD 3E 00          LD	A,00
9EAF 00             NOP
9EB0 00             NOP
9EB1 00             NOP
9EB2 00             NOP
9EB3 BF             CP	A
9EB4 FF             RST	38
9EB5 BF             CP	A
- 
9EB6 FF             RST	38
9EB7 BF             CP	A
9EB8 FF             RST	38
9EB9 BF             CP	A
9EBA FF             RST	38
9EBB BF             CP	A
9EBC FF             RST	38
9EBD BE             CP	(HL)
9EBE 0F             RRCA
9EBF BE             CP	(HL)
9EC0 0F             RRCA
9EC1 BE             CP	(HL)
9EC2 0F             RRCA
9EC3 BE             CP	(HL)
9EC4 0F             RRCA
9EC5 BF             CP	A
9EC6 FF             RST	38
9EC7 BF             CP	A
9EC8 FF             RST	38
9EC9 BF             CP	A
- 
9ECA FF             RST	38
9ECB BF             CP	A
9ECC FF             RST	38
9ECD BF             CP	A
9ECE FF             RST	38
9ECF 03             INC	BC
9ED0 E0             RET	PO
9ED1 03             INC	BC
9ED2 FF             RST	38
9ED3 F3             DI
9ED4 FF             RST	38
9ED5 F3             DI
9ED6 FF             RST	38
9ED7 F7             RST	30
9ED8 FF             RST	38
9ED9 F7             RST	30
9EDA FF             RST	38
9EDB F7             RST	30
9EDC C7             RST	00
9EDD E7             RST	20
- 
9EDE C1             POP	BC
9EDF E7             RST	20
9EE0 C1             POP	BC
9EE1 EF             RST	28
9EE2 C1             POP	BC
9EE3 EF             RST	28
9EE4 F9             LD	SP,HL
9EE5 EF             RST	28
9EE6 FF             RST	38
9EE7 CF             RST	08
9EE8 FF             RST	38
9EE9 CF             RST	08
9EEA FF             RST	38
9EEB C0             RET	NZ
9EEC FF             RST	38
9EED C0             RET	NZ
9EEE 07             RLCA
9EEF FD FF          RST	38
9EF1 FD FF          RST	38
9EF3 FD FF          RST	38
- 
9EF5 FD FF          RST	38
9EF7 FD FF          RST	38
9EF9 7D             LD	A,L
9EFA F0             RET	P
9EFB 7D             LD	A,L
9EFC F0             RET	P
9EFD 7D             LD	A,L
9EFE F0             RET	P
9EFF 7D             LD	A,L
9F00 F0             RET	P
9F01 FD FF          RST	38
9F03 FD FF          RST	38
9F05 FD FF          RST	38
9F07 FD FF          RST	38
9F09 FD FF          RST	38
9F0B 00             NOP
9F0C 00             NOP
9F0D 00             NOP
9F0E 00             NOP
9F0F 3F             CCF
- 
9F10 FC 70 0E       CALL	M,0E70
9F13 F6 6F          OR	6F
9F15 F4 CF 91       CALL	P,91CF
9F18 89             ADC	A,C
9F19 93             SUB	E
9F1A 29             ADD	HL,HL
9F1B F6 6F          OR	6F
9F1D F0             RET	P
9F1E 0F             RRCA
9F1F FF             RST	38
9F20 FF             RST	38
9F21 FF             RST	38
9F22 E7             RST	20
9F23 7F             LD	A,A
9F24 CE 3F          ADC	A,3F
9F26 FC 00 00       CALL	M,0000 ; CALL	M,START
9F29 00             NOP
9F2A 00             NOP
9F2B 00             NOP
9F2C 00             NOP
- 
9F2D 00             NOP
9F2E 00             NOP
9F2F 00             NOP
9F30 00             NOP
9F31 0F             RRCA
9F32 FF             RST	38
9F33 9C             SBC	A,H
9F34 03             INC	BC
9F35 FC CB FD       CALL	M,FDCB
9F38 9B             SBC	A,E
9F39 65             LD	H,L
9F3A 32 64 62       LD	(6264),A
9F3D FC CB FC       CALL	M,FCCB
9F40 03             INC	BC
9F41 FF             RST	38
9F42 FF             RST	38
9F43 FF             RST	38
9F44 F9             LD	SP,HL
9F45 9F             SBC	A,A
9F46 F3             DI
- 
9F47 0F             RRCA
9F48 FF             RST	38
9F49 00             NOP
9F4A 00             NOP
9F4B 00             NOP
9F4C 00             NOP
9F4D 00             NOP
9F4E 00             NOP
9F4F 00             NOP
9F50 00             NOP
9F51 00             NOP
9F52 00             NOP
9F53 C3 FF E7       JP	E7FF
9F56 00             NOP
9F57 FF             RST	38
9F58 18 FF          JR	9F59
9F5A 32 99 66       LD	(6699),A
9F5D 99             SBC	A,C
9F5E 4C             LD	C,H
9F5F FF             RST	38
- 
9F60 18 FF          JR	9F61
9F62 00             NOP
9F63 FF             RST	38
9F64 FF             RST	38
9F65 7F             LD	A,A
9F66 FE E7          CP	E7
9F68 FC C3 FF       CALL	M,FFC3
9F6B 00             NOP
9F6C 00             NOP
9F6D 00             NOP
9F6E 00             NOP
9F6F 00             NOP
9F70 00             NOP
9F71 F0             RET	P
9F72 FF             RST	38
9F73 39             ADD	HL,SP
9F74 C0             RET	NZ
9F75 3F             CCF
9F76 D3 3F          OUT	(3F),A
9F78 C6 A6          ADD	A,A6
- 
9F7A 4C             LD	C,H
9F7B A6             AND	(HL)
9F7C 59             LD	E,C
9F7D 3F             CCF
9F7E D3 3F          OUT	(3F),A
9F80 C0             RET	NZ
9F81 FF             RST	38
9F82 FF             RST	38
9F83 9F             SBC	A,A
9F84 FF             RST	38
9F85 39             ADD	HL,SP
9F86 FF             RST	38
9F87 F0             RET	P
9F88 FF             RST	38
9F89 00             NOP
9F8A 00             NOP
9F8B 00             NOP
9F8C 00             NOP
9F8D 00             NOP
9F8E 00             NOP
- 
9F8F 03             INC	BC
9F90 E0             RET	PO
9F91 05             DEC	B
9F92 A0             AND	B
9F93 0C             INC	C
9F94 90             SUB	B
9F95 0A             LD	A,(BC)
9F96 A8             XOR	B
9F97 09             ADD	HL,BC
9F98 D8             RET	C
9F99 0F             RRCA
9F9A 70             LD	(HL),B
9F9B 1E 38          LD	E,38
9F9D 3F             CCF
9F9E 7C             LD	A,H
9F9F 33             INC	SP
9FA0 EC 70 06       CALL	PE,0670 ; CALL	PE,REPORT_2A
9FA3 75             LD	(HL),L
9FA4 52             LD	D,D
9FA5 78             LD	A,B
- 
9FA6 46             LD	B,(HL)
9FA7 3F             CCF
9FA8 1C             INC	E
9FA9 0F             RRCA
9FAA F8             RET	M
9FAB 03             INC	BC
9FAC E0             RET	PO
9FAD 00             NOP
9FAE 00             NOP
9FAF 03             INC	BC
9FB0 E0             RET	PO
9FB1 05             DEC	B
9FB2 A0             AND	B
9FB3 09             ADD	HL,BC
9FB4 30 15          JR	NC,9FCB
9FB6 50             LD	D,B
9FB7 1B             DEC	DE
9FB8 90             SUB	B
9FB9 0E F0          LD	C,F0
9FBB 1C             INC	E
- 
9FBC 78             LD	A,B
9FBD 3E FC          LD	A,FC
9FBF 37             SCF
9FC0 C4 60 0A       CALL	NZ,0A60
9FC3 6A             LD	L,D
9FC4 A2             AND	D
9FC5 60             LD	H,B
9FC6 8E             ADC	A,(HL)
9FC7 3E 3C          LD	A,3C
9FC9 0F             RRCA
9FCA F8             RET	M
9FCB 03             INC	BC
9FCC C0             RET	NZ
9FCD 00             NOP
9FCE 00             NOP
9FCF 07             RLCA
9FD0 C0             RET	NZ
9FD1 0B             DEC	BC
9FD2 60             LD	H,B
9FD3 12             LD	(DE),A
- 
9FD4 30 2A          JR	NC,A000
9FD6 B0             OR	B
9FD7 33             INC	SP
9FD8 30 1D          JR	NC,9FF7
9FDA E0             RET	PO
9FDB 18 F8          JR	9FD5
9FDD 1D             DEC	E
9FDE FC 2F C4       CALL	M,C42F
9FE1 20 16          JR	NZ,9FF9
9FE3 55             LD	D,L
9FE4 46             LD	B,(HL)
9FE5 41             LD	B,C
9FE6 1E 3C          LD	E,3C
9FE8 7C             LD	A,H
9FE9 1F             RRA
9FEA F8             RET	M
9FEB 03             INC	BC
9FEC C0             RET	NZ
9FED 00             NOP
9FEE 00             NOP
- 
9FEF 03             INC	BC
9FF0 E0             RET	PO
9FF1 05             DEC	B
9FF2 A0             AND	B
9FF3 09             ADD	HL,BC
9FF4 30 15          JR	NC,A00B
9FF6 50             LD	D,B
9FF7 1B             DEC	DE
9FF8 90             SUB	B
9FF9 0E F0          LD	C,F0
9FFB 1C             INC	E
9FFC 78             LD	A,B
9FFD 3E FC          LD	A,FC
9FFF 37             SCF
A000 D2 60 0A       JP	NC,0A60
A003 6A             LD	L,D
A004 A2             AND	D
A005 70             LD	(HL),B
A006 8E             ADC	A,(HL)
A007 3E 3C          LD	A,3C
- 
A009 0F             RRCA
A00A F8             RET	M
A00B 03             INC	BC
A00C C0             RET	NZ
A00D 00             NOP
A00E 00             NOP
A00F 00             NOP
A010 00             NOP
A011 78             LD	A,B
A012 00             NOP
A013 EC 38 C4       CALL	PE,C438
A016 FE 8D          CP	8D
A018 FE DF          CP	DF
A01A FF             RST	38
A01B 7F             LD	A,A
A01C FF             RST	38
A01D 03             INC	BC
A01E CF             RST	08
A01F 03             INC	BC
A020 CF             RST	08
- 
A021 7F             LD	A,A
A022 FF             RST	38
A023 DF             RST	18
A024 FF             RST	38
A025 8D             ADC	A,L
A026 FE C4          CP	C4
A028 FE EC          CP	EC
A02A 38 78          JR 	C,A0A4
A02C 00             NOP
A02D 00             NOP
A02E 00             NOP
A02F 00             NOP
A030 00             NOP
A031 1E 0E          LD	E,0E
A033 B3             OR	E
A034 1F             RRA
A035 F3             DI
A036 3F             CCF
A037 F3             DI
A038 7F             LD	A,A
- 
A039 F3             DI
A03A FF             RST	38
A03B 1F             RRA
A03C FF             RST	38
A03D 00             NOP
A03E F0             RET	P
A03F 00             NOP
A040 F0             RET	P
A041 1F             RRA
A042 FF             RST	38
A043 FF             RST	38
A044 FF             RST	38
A045 E1             POP	HL
A046 7F             LD	A,A
A047 E1             POP	HL
A048 3F             CCF
A049 BF             CP	A
A04A 1F             RRA
A04B 1E 0E          LD	E,0E
A04D 00             NOP
- 
A04E 00             NOP
A04F 03             INC	BC
A050 C0             RET	NZ
A051 F6 E1          OR	E1
A053 F4 67 F6       CALL	P,F667
A056 27             DAA
A057 E7             RST	20
A058 7F             LD	A,A
A059 C3 FF 00       JP	00FF
A05C 3F             CCF
A05D 00             NOP
A05E 1E 00          LD	E,00
A060 1E 00          LD	E,00
A062 3F             CCF
A063 C3 FF E7       JP	E7FF
A066 7F             LD	A,A
A067 F6 27          OR	27
A069 F4 67 F6       CALL	P,F667
A06C E1             POP	HL
A06D 03             INC	BC
- 
A06E C0             RET	NZ
A06F 00             NOP
A070 00             NOP
A071 E1             POP	HL
A072 E0             RET	PO
A073 FB             EI
A074 F1             POP	AF
A075 FE 13          CP	13
A077 FE 17          CP	17
A079 FF             RST	38
A07A FF             RST	38
A07B F1             POP	AF
A07C FF             RST	38
A07D 00             NOP
A07E 0F             RRCA
A07F 00             NOP
A080 0F             RRCA
A081 F1             POP	AF
A082 FF             RST	38
A083 FF             RST	38
- 
A084 3F             CCF
A085 FF             RST	38
A086 37             SCF
A087 FF             RST	38
A088 33             INC	SP
A089 FB             EI
A08A 31 E1 E0       LD	SP,E0E1
A08D 00             NOP
A08E 00             NOP
A08F 00             NOP
A090 00             NOP
A091 00             NOP
A092 1E 1C          LD	E,1C
A094 37             SCF
A095 7F             LD	A,A
A096 23             INC	HL
A097 7F             LD	A,A
A098 B1             OR	C
A099 FF             RST	38
A09A FB             EI
- 
A09B FF             RST	38
A09C FE F3          CP	F3
A09E C0             RET	NZ
A09F F3             DI
A0A0 C0             RET	NZ
A0A1 FF             RST	38
A0A2 FE FF          CP	FF
A0A4 FB             EI
A0A5 7F             LD	A,A
A0A6 B1             OR	C
A0A7 7F             LD	A,A
A0A8 23             INC	HL
A0A9 1C             INC	E
A0AA 37             SCF
A0AB 00             NOP
A0AC 1E 00          LD	E,00
A0AE 00             NOP
A0AF 00             NOP
A0B0 00             NOP
A0B1 87             ADD	A,A
- 
A0B2 07             RLCA
A0B3 DF             RST	18
A0B4 8C             ADC	A,H
A0B5 FF             RST	38
A0B6 CC FF EC       CALL	Z,ECFF
A0B9 FF             RST	38
A0BA FC 8F FF       CALL	M,FF8F
A0BD 00             NOP
A0BE F0             RET	P
A0BF 00             NOP
A0C0 F0             RET	P
A0C1 8F             ADC	A,A
A0C2 FF             RST	38
A0C3 FF             RST	38
A0C4 FF             RST	38
A0C5 7F             LD	A,A
A0C6 E8             RET	PE
A0C7 7F             LD	A,A
A0C8 C8             RET	Z
A0C9 DF             RST	18
- 
A0CA 8F             ADC	A,A
A0CB 87             ADD	A,A
A0CC 07             RLCA
A0CD 00             NOP
A0CE 00             NOP
A0CF C0             RET	NZ
A0D0 03             INC	BC
A0D1 6F             LD	L,A
A0D2 87             ADD	A,A
A0D3 2F             CPL
A0D4 E6 6F          AND	6F
A0D6 E4 E7 FE       CALL	PO,FEE7
A0D9 C3 FF 00       JP	00FF
A0DC FC 00 78       CALL	M,7800
A0DF 00             NOP
A0E0 78             LD	A,B
A0E1 00             NOP
A0E2 FC C3 FF       CALL	M,FFC3
A0E5 E7             RST	20
A0E6 FE 6F          CP	6F
- 
A0E8 E4 2F E6       CALL	PO,E62F
A0EB 6F             LD	L,A
A0EC 87             ADD	A,A
A0ED C0             RET	NZ
A0EE 03             INC	BC
A0EF 00             NOP
A0F0 00             NOP
A0F1 78             LD	A,B
A0F2 70             LD	(HL),B
A0F3 FD F8          RET	M
A0F5 87             ADD	A,A
A0F6 FC 87 FE       CALL	M,FE87
A0F9 FF             RST	38
A0FA FF             RST	38
A0FB F8             RET	M
A0FC FF             RST	38
A0FD 00             NOP
A0FE 0F             RRCA
A0FF 00             NOP
A100 0F             RRCA
- 
A101 F8             RET	M
A102 FF             RST	38
A103 CF             RST	08
A104 FF             RST	38
A105 CF             RST	08
A106 FE CF          CP	CF
A108 FC CD F8       CALL	M,F8CD
A10B 78             LD	A,B
A10C 70             LD	(HL),B
A10D 00             NOP
A10E 00             NOP
A10F 03             INC	BC
A110 C0             RET	NZ
A111 0D             DEC	C
A112 70             LD	(HL),B
A113 37             SCF
A114 D4 2D 7C       CALL	NC,7C2D
A117 55             LD	D,L
A118 FE 4E          CP	4E
A11A 6E             LD	L,(HL)
- 
A11B 97             SUB	A
A11C D3 8F          OUT	(8F),A
A11E DB 94          IN A,(94)
A120 EF             RST	28
A121 8E             ADC	A,(HL)
A122 F3             DI
A123 57             LD	D,A
A124 DE 4B          SBC	A,4B
A126 FA 25 54       JP	M,5425
A129 30 8C          JR	NC,A0B7
A12B 0C             INC	C
A12C 30 03          JR	NC,A131
A12E C0             RET	NZ
A12F 00             NOP
A130 00             NOP
A131 00             NOP
A132 00             NOP
A133 00             NOP
A134 30 00          JR	NC,A136
A136 78             LD	A,B
- 
A137 1C             INC	E
A138 30 3E          JR	NC,A178
A13A 44             LD	B,H
A13B 3E 0E          LD	A,0E
A13D 1F             RRA
A13E 84             ADD	A,H
A13F 03             INC	BC
A140 C0             RET	NZ
A141 03             INC	BC
A142 C0             RET	NZ
A143 03             INC	BC
A144 B8             CP	B
A145 1E 3C          LD	E,3C
A147 3E 3C          LD	A,3C
A149 3E 18          LD	A,18
A14B 1C             INC	E
A14C 00             NOP
A14D 00             NOP
A14E 00             NOP
A14F 00             NOP
- 
A150 00             NOP
A151 00             NOP
A152 78             LD	A,B
A153 00             NOP
A154 FC 3E FC       CALL	M,FC3E
A157 7E             LD	A,(HL)
A158 FE 7F          CP	7F
A15A FE 7F          CP	7F
A15C FE 3F          CP	3F
A15E CE 1F          ADC	A,1F
A160 DC 03 FE       CALL	C,FE03
A163 1F             RRA
A164 FE 3F          CP	3F
A166 7E             LD	A,(HL)
A167 7F             LD	A,A
A168 7E             LD	A,(HL)
A169 7F             LD	A,A
A16A 3C             INC	A
A16B 3E 18          LD	A,18
A16D 1C             INC	E
- 
A16E 00             NOP
A16F 00             NOP
A170 30 3E          JR	NC,A1B0
A172 FC 7F FE       CALL	M,FE7F
A175 FF             RST	38
A176 FF             RST	38
A177 FF             RST	38
A178 FF             RST	38
A179 FF             RST	38
A17A FF             RST	38
A17B FF             RST	38
A17C FE FF          CP	FF
A17E EE 7F          XOR	7F
A180 DE 3F          SBC	A,3F
A182 FE 3F          CP	3F
A184 FF             RST	38
A185 7F             LD	A,A
A186 FF             RST	38
A187 FF             RST	38
A188 FF             RST	38
- 
A189 FF             RST	38
A18A FE 7F          CP	7F
A18C 3E 1C          LD	A,1C
A18E 1C             INC	E
A18F 1C             INC	E
A190 78             LD	A,B
A191 7E             LD	A,(HL)
A192 FE FF          CP	FF
A194 FF             RST	38
A195 FF             RST	38
A196 FF             RST	38
A197 E7             RST	20
A198 BF             CP	A
A199 EF             RST	28
A19A DF             RST	18
A19B FF             RST	38
A19C E7             RST	20
A19D FF             RST	38
A19E C6 7D          ADD	A,7D
A1A0 DE 3F          SBC	A,3F
- 
A1A2 BF             CP	A
A1A3 7F             LD	A,A
A1A4 BF             CP	A
A1A5 FF             RST	38
A1A6 FF             RST	38
A1A7 E7             RST	20
A1A8 FF             RST	38
A1A9 F7             RST	30
A1AA FF             RST	38
A1AB FF             RST	38
A1AC 3E 7E          LD	A,7E
A1AE 1C             INC	E
A1AF 1C             INC	E
A1B0 78             LD	A,B
A1B1 7C             LD	A,H
A1B2 FE FC          CP	FC
A1B4 F7             RST	30
A1B5 F8             RET	M
A1B6 73             LD	(HL),E
A1B7 67             LD	H,A
- 
A1B8 3F             CCF
A1B9 0F             RRCA
A1BA 9F             SBC	A,A
A1BB 6F             LD	L,A
A1BC C3 F7 80       JP	80F7
A1BF 78             LD	A,B
A1C0 0E 3E          LD	C,3E
A1C2 1F             RRA
A1C3 77             LD	(HL),A
A1C4 3F             CCF
A1C5 F7             RST	30
A1C6 BB             CP	E
A1C7 E7             RST	20
A1C8 BF             CP	A
A1C9 E3             EX	(SP),HL
A1CA BF             CP	A
A1CB DF             RST	18
A1CC 3E 7E          LD	A,7E
A1CE 1C             INC	E
A1CF 08             EX	AF,AF'
- 
A1D0 70             LD	(HL),B
A1D1 3C             INC	A
A1D2 F6 78          OR	78
A1D4 F7             RST	30
A1D5 70             LD	(HL),B
A1D6 73             LD	(HL),E
A1D7 40             LD	B,B
A1D8 20 03          JR	NZ,A1DD
A1DA 01 67 83       LD	BC,8367
A1DD F3             DI
A1DE 00             NOP
A1DF 70             LD	(HL),B
A1E0 06 06          LD	B,06
A1E2 1F             RRA
A1E3 77             LD	(HL),A
A1E4 1B             DEC	DE
A1E5 77             LD	(HL),A
A1E6 B1             OR	C
A1E7 E3             EX	(SP),HL
A1E8 B3             OR	E
- 
A1E9 C0             RET	NZ
A1EA 32 0E 1E       LD	(1E0E),A
A1ED 1E 0C          LD	E,0C
A1EF 00             NOP
A1F0 FF             RST	38
A1F1 1E FF          LD	E,FF
A1F3 22 FF 52       LD	(52FF),HL
A1F6 FF             RST	38
A1F7 42             LD	B,D
A1F8 FF             RST	38
A1F9 82             ADD	A,D
A1FA FF             RST	38
A1FB 82             ADD	A,D
A1FC FF             RST	38
A1FD 82             ADD	A,D
A1FE FF             RST	38
A1FF FE FF          CP	FF
A201 FE FF          CP	FF
A203 06 E0          LD	B,E0
A205 72             LD	(HL),D
- 
A206 CE EA          ADC	A,EA
A208 D7             RST	10
A209 DA DB B8       JP	C,B8DB
A20C 1D             DEC	E
A20D 70             LD	(HL),B
A20E 0E C0          LD	C,C0
A210 3F             CCF
A211 C7             RST	00
A212 BF             CP	A
A213 C8             RET	Z
A214 BF             CP	A
A215 D4 BF D0       CALL	NC,D0BF
A218 BF             CP	A
A219 E0             RET	PO
A21A BF             CP	A
A21B E0             RET	PO
A21C BF             CP	A
A21D E0             RET	PO
A21E BF             CP	A
A21F FF             RST	38
- 
A220 BF             CP	A
A221 FF             RST	38
A222 BF             CP	A
A223 01 B8 9C       LD	BC,9CB8
A226 B3             OR	E
A227 FE B6          CP	B6
A229 E2 B6 FE       JP	PO,FEB6
A22C 06 9C          LD	B,9C
A22E 03             INC	BC
A22F F0             RET	P
A230 0F             RRCA
A231 F1             POP	AF
A232 EF             RST	28
A233 F2 2F F5       JP	P,F52F
A236 2F             CPL
A237 F4 2F F8       CALL	P,F82F
A23A 2F             CPL
A23B F8             RET	M
A23C 2F             CPL
A23D F8             RET	M
- 
A23E 2F             CPL
A23F FF             RST	38
A240 EF             RST	28
A241 FF             RST	38
A242 EF             RST	28
A243 00             NOP
A244 6E             LD	L,(HL)
A245 E7             RST	20
A246 2C             INC	L
A247 DB AD          IN A,(AD)
A249 BD             CP	L
A24A AD             XOR	L
A24B 7E             LD	A,(HL)
A24C 81             ADD	A,C
A24D E7             RST	20
A24E 00             NOP
A24F FC 03 FC       CALL	M,FC03
A252 7B             LD	A,E
A253 FC 8B FD       CALL	M,FD8B
A256 4B             LD	C,E
- 
A257 FD 0B          DEC	BC
A259 FE 0B          CP	0B
A25B FE 0B          CP	0B
A25D FE 0B          CP	0B
A25F FF             RST	38
A260 FB             EI
A261 FF             RST	38
A262 FB             EI
A263 80             ADD	A,B
A264 1B             DEC	DE
A265 39             ADD	HL,SP
A266 CB 7F          BIT	7,A
A268 6B             LD	L,E
A269 47             LD	B,A
A26A 6B             LD	L,E
A26B 7F             LD	A,A
A26C 60             LD	H,B
A26D 39             ADD	HL,SP
A26E C0             RET	NZ
A26F FF             RST	38
- 
A270 00             NOP
A271 FF             RST	38
A272 78             LD	A,B
A273 FF             RST	38
A274 44             LD	B,H
A275 FF             RST	38
A276 4A             LD	C,D
A277 FF             RST	38
A278 42             LD	B,D
A279 FF             RST	38
A27A 41             LD	B,C
A27B FF             RST	38
A27C 41             LD	B,C
A27D FF             RST	38
A27E 41             LD	B,C
A27F FF             RST	38
A280 7F             LD	A,A
A281 FF             RST	38
A282 7F             LD	A,A
A283 07             RLCA
- 
A284 60             LD	H,B
A285 73             LD	(HL),E
A286 4E             LD	C,(HL)
A287 EB             EX	DE,HL
A288 57             LD	D,A
A289 DB 5B          IN A,(5B)
A28B B8             CP	B
A28C 1D             DEC	E
A28D 70             LD	(HL),B
A28E 0E 3F          LD	C,3F
A290 C0             RET	NZ
A291 3F             CCF
A292 DE 3F          SBC	A,3F
A294 D1             POP	DE
A295 BF             CP	A
A296 D2 BF D0       JP	NC,D0BF
A299 7F             LD	A,A
A29A D0             RET	NC
A29B 7F             LD	A,A
A29C D0             RET	NC
- 
A29D 7F             LD	A,A
A29E D0             RET	NC
A29F FF             RST	38
A2A0 DF             RST	18
A2A1 FF             RST	38
A2A2 DF             RST	18
A2A3 01 D8 9C       LD	BC,9CD8
A2A6 D3 FE          OUT	(FE),A
A2A8 D6 E2          SUB	E2
A2AA D6 FE          SUB	FE
A2AC 06 9C          LD	B,9C
A2AE 03             INC	BC
A2AF 0F             RRCA
A2B0 F0             RET	P
A2B1 8F             ADC	A,A
A2B2 F7             RST	30
A2B3 4F             LD	C,A
A2B4 F4 AF F4       CALL	P,F4AF
A2B7 2F             CPL
A2B8 F4 1F F4       CALL	P,F41F
- 
A2BB 1F             RRA
A2BC F4 1F F4       CALL	P,F41F
A2BF FF             RST	38
A2C0 F7             RST	30
A2C1 FF             RST	38
A2C2 F7             RST	30
A2C3 00             NOP
A2C4 76             HALT
A2C5 E7             RST	20
A2C6 34             INC	(HL)
A2C7 DB B5          IN A,(B5)
A2C9 BD             CP	L
A2CA B5             OR	L
A2CB 7E             LD	A,(HL)
A2CC 81             ADD	A,C
A2CD E7             RST	20
A2CE 00             NOP
A2CF 03             INC	BC
A2D0 FC E3 FD       CALL	M,FDE3
A2D3 13             INC	DE
- 
A2D4 FD 2B          DEC	IY
A2D6 FD 0B          DEC	BC
A2D8 FD 07          RLCA
A2DA FD 07          RLCA
A2DC FD 07          RLCA
A2DE FD FF          RST	38
A2E0 FD FF          RST	38
A2E2 FD 80          ADD	A,B
A2E4 1D             DEC	E
A2E5 39             ADD	HL,SP
A2E6 CD 7F 6D       CALL	6D7F
A2E9 47             LD	B,A
A2EA 6D             LD	L,L
A2EB 7F             LD	A,A
A2EC 60             LD	H,B
A2ED 39             ADD	HL,SP
A2EE C0             RET	NZ
A2EF 21 27 A4       LD	HL,A427
A2F2 3A 78 5C       LD	A,(5C78) ; LD	A,(FRAMES1)
A2F5 96             SUB	(HL)
- 
A2F6 FE 02          CP	02
A2F8 D2 35 A3       JP	NC,A335
A2FB CD 72 A9       CALL	A972
A2FE CD 92 A9       CALL	A992
A301 21 27 A4       LD	HL,A427
A304 3A 78 5C       LD	A,(5C78) ; LD	A,(FRAMES1)
A307 96             SUB	(HL)
A308 FE 02          CP	02
A30A D2 35 A3       JP	NC,A335
A30D 3A 26 A4       LD	A,(A426)
A310 A7             AND	A
A311 28 13          JR	Z,A326
A313 17             RLA
A314 5F             LD	E,A
A315 16 00          LD	D,00
A317 21 26 A4       LD	HL,A426
A31A 19             ADD	HL,DE
A31B 7E             LD	A,(HL)
A31C 23             INC	HL
A31D 66             LD	H,(HL)
- 
A31E 6F             LD	L,A
A31F CD 5B A3       CALL	A35B
A322 AF             XOR	A
A323 32 26 A4       LD	(A426),A
A326 21 27 A4       LD	HL,A427
A329 3A 78 5C       LD	A,(5C78) ; LD	A,(FRAMES1)
A32C 96             SUB	(HL)
A32D FE 02          CP	02
A32F D2 35 A3       JP	NC,A335
A332 C3 26 A3       JP	A326
A335 3A 78 5C       LD	A,(5C78) ; LD	A,(FRAMES1)
A338 32 27 A4       LD	(A427),A
A33B C9             RET
A33C 06 28          LD	B,28
A33E 0E 00          LD	C,00
A340 79             LD	A,C
A341 D3 FE          OUT	(FE),A
A343 EE F8          XOR	F8
A345 4F             LD	C,A
A346 C5             PUSH	BC
- 
A347 21 27 A4       LD	HL,A427
A34A 3A 78 5C       LD	A,(5C78) ; LD	A,(FRAMES1)
A34D 96             SUB	(HL)
A34E FE 02          CP	02
A350 D2 59 A3       JP	NC,A359
A353 10 F2          DJNZ	A347
A355 C1             POP	BC
A356 10 E8          DJNZ	A340
A358 C9             RET
A359 C1             POP	BC
A35A C9             RET
A35B E9             JP	(HL)
A35C 21 28 00       LD	HL,0028 ; LD	HL,FP_CALC
A35F 11 00 00       LD	DE,0000 ; LD	DE,START
A362 06 63          LD	B,63
A364 C5             PUSH	BC
A365 CD 98 A3       CALL	A398
A368 C1             POP	BC
A369 23             INC	HL
A36A 3A 27 A4       LD	A,(A427)
- 
A36D 4F             LD	C,A
A36E 3A 78 5C       LD	A,(5C78) ; LD	A,(FRAMES1)
A371 91             SUB	C
A372 FE 02          CP	02
A374 D0             RET	NC
A375 10 ED          DJNZ	A364
A377 C9             RET
A378 06 50          LD	B,50
A37A CD 9E A7       CALL	A79E
A37D E6 F8          AND	F8
A37F D3 FE          OUT	(FE),A
A381 AF             XOR	A
A382 D3 FE          OUT	(FE),A
A384 0E 05          LD	C,05
A386 0E 01          LD	C,01
A388 21 27 A4       LD	HL,A427
A38B 3A 78 5C       LD	A,(5C78) ; LD	A,(FRAMES1)
A38E 96             SUB	(HL)
A38F FE 02          CP	02
A391 D0             RET	NC
- 
A392 0D             DEC	C
A393 20 F6          JR	NZ,A38B
A395 10 E3          DJNZ	A37A
A397 C9             RET
A398 06 02          LD	B,02
A39A C5             PUSH	BC
A39B 43             LD	B,E
A39C 04             INC	B
A39D AF             XOR	A
A39E D3 FE          OUT	(FE),A
A3A0 7D             LD	A,L
A3A1 3D             DEC	A
A3A2 20 FD          JR	NZ,A3A1
A3A4 3E F8          LD	A,F8
A3A6 D3 FE          OUT	(FE),A
A3A8 7D             LD	A,L
A3A9 3D             DEC	A
A3AA 20 FD          JR	NZ,A3A9
A3AC 10 EF          DJNZ	A39D
A3AE C1             POP	BC
- 
A3AF 10 E9          DJNZ	A39A
A3B1 C9             RET
A3B2 06 00          LD	B,00
A3B4 21 00 00       LD	HL,0000 ; LD	HL,START
A3B7 3E 41          LD	A,41
A3B9 94             SUB	H
A3BA 4F             LD	C,A
A3BB 21 27 A4       LD	HL,A427
A3BE AF             XOR	A
A3BF D3 FE          OUT	(FE),A
A3C1 3A 78 5C       LD	A,(5C78) ; LD	A,(FRAMES1)
A3C4 96             SUB	(HL)
A3C5 FE 02          CP	02
A3C7 D0             RET	NC
A3C8 1E 08          LD	E,08
A3CA CD 22 A4       CALL	A422
A3CD 0D             DEC	C
A3CE 20 F1          JR	NZ,A3C1
A3D0 3E F8          LD	A,F8
A3D2 D3 FE          OUT	(FE),A
- 
A3D4 10 DE          DJNZ	A3B4
A3D6 C9             RET
A3D7 06 00          LD	B,00
A3D9 CD 9E A7       CALL	A79E
A3DC E6 F8          AND	F8
A3DE D3 FE          OUT	(FE),A
A3E0 0E 32          LD	C,32
A3E2 21 27 A4       LD	HL,A427
A3E5 3A 78 5C       LD	A,(5C78) ; LD	A,(FRAMES1)
A3E8 96             SUB	(HL)
A3E9 FE 02          CP	02
A3EB D0             RET	NC
A3EC CD 20 A4       CALL	A420
A3EF 0D             DEC	C
A3F0 20 F3          JR	NZ,A3E5
A3F2 10 E5          DJNZ	A3D9
A3F4 C9             RET
A3F5 06 28          LD	B,28
A3F7 16 1E          LD	D,1E
A3F9 CD 9E A7       CALL	A79E
- 
A3FC E6 F8          AND	F8
A3FE 5F             LD	E,A
A3FF D3 FE          OUT	(FE),A
A401 7A             LD	A,D
A402 FE 32          CP	32
A404 38 05          JR 	C,A40B
A406 7B             LD	A,E
A407 EE F8          XOR	F8
A409 D3 FE          OUT	(FE),A
A40B 4A             LD	C,D
A40C 21 27 A4       LD	HL,A427
A40F 3A 78 5C       LD	A,(5C78) ; LD	A,(FRAMES1)
A412 96             SUB	(HL)
A413 FE 02          CP	02
A415 D0             RET	NC
A416 0D             DEC	C
A417 20 F6          JR	NZ,A40F
A419 7A             LD	A,D
A41A C6 03          ADD	A,03
A41C 57             LD	D,A
- 
A41D 10 DA          DJNZ	A3F9
A41F C9             RET
A420 1E 01          LD	E,01
A422 1D             DEC	E
A423 20 FD          JR	NZ,A422
A425 C9             RET
A426 00             NOP
A427 3B             DEC 	SP
A428 3C             INC	A
A429 A3             AND	E
A42A 5C             LD	E,H
A42B A3             AND	E
A42C 78             LD	A,B
A42D A3             AND	E
A42E B2             OR	D
A42F A3             AND	E
A430 D7             RST	10
A431 A3             AND	E
A432 F5             PUSH	AF
A433 A3             AND	E
- 
A434 3A 50 8D       LD	A,(8D50)
A437 A7             AND	A
A438 C8             RET	Z
A439 3D             DEC	A
A43A E6 FE          AND	FE
A43C 32 50 8D       LD	(8D50),A
A43F C9             RET
A440 2A 50 8D       LD	HL,(8D50)
A443 7D             LD	A,L
A444 C6 10          ADD	A,10
A446 6F             LD	L,A
A447 22 27 90       LD	(9027),HL
A44A CD 50 A7       CALL	A750
A44D FE 00          CP	00
A44F 20 29          JR	NZ,A47A
A451 23             INC	HL
A452 CD 53 A7       CALL	A753
A455 FE 00          CP	00
A457 20 21          JR	NZ,A47A
A459 3A 28 90       LD	A,(9028)
- 
A45C E6 07          AND	07
A45E 28 08          JR	Z,A468
A460 23             INC	HL
A461 CD 53 A7       CALL	A753
A464 FE 00          CP	00
A466 20 12          JR	NZ,A47A
A468 3A 50 8D       LD	A,(8D50)
A46B E6 FE          AND	FE
A46D C6 02          ADD	A,02
A46F 32 50 8D       LD	(8D50),A
A472 21 6F A9       LD	HL,A96F
A475 35             DEC	(HL)
A476 CC FE 80       CALL	Z,80FE
A479 C9             RET
A47A 3A 6F A9       LD	A,(A96F)
A47D FE 80          CP	80
A47F D0             RET	NC
A480 3A 28 90       LD	A,(9028)
A483 17             RLA
A484 D0             RET	NC
- 
A485 C3 FE 80       JP	80FE
A488 2A 50 8D       LD	HL,(8D50)
A48B 3E 0F          LD	A,0F
A48D 85             ADD	A,L
A48E 6F             LD	L,A
A48F 22 27 90       LD	(9027),HL
A492 CD 83 A7       CALL	A783
A495 E6 04          AND	04
A497 28 6C          JR	Z,A505
A499 23             INC	HL
A49A 7E             LD	A,(HL)
A49B E6 04          AND	04
A49D C8             RET	Z
A49E 3A 51 8D       LD	A,(8D51)
A4A1 E6 07          AND	07
A4A3 20 57          JR	NZ,A4FC
A4A5 21 50 8D       LD	HL,8D50
A4A8 7E             LD	A,(HL)
A4A9 FE 02          CP	02
A4AB DA 01 A6       JP	C,A601
- 
A4AE 35             DEC	(HL)
A4AF 35             DEC	(HL)
A4B0 7E             LD	A,(HL)
A4B1 1F             RRA
A4B2 E6 03          AND	03
A4B4 C6 10          ADD	A,10
A4B6 32 4E 8D       LD	(8D4E),A
A4B9 C9             RET
A4BA 2A 50 8D       LD	HL,(8D50)
A4BD 7D             LD	A,L
A4BE FE 90          CP	90
A4C0 D2 26 A6       JP	NC,A626
A4C3 3E 10          LD	A,10
A4C5 85             ADD	A,L
A4C6 6F             LD	L,A
A4C7 22 27 90       LD	(9027),HL
A4CA CD 83 A7       CALL	A783
A4CD E6 04          AND	04
A4CF 28 1D          JR	Z,A4EE
A4D1 23             INC	HL
- 
A4D2 7E             LD	A,(HL)
A4D3 E6 04          AND	04
A4D5 C8             RET	Z
A4D6 3A 51 8D       LD	A,(8D51)
A4D9 E6 07          AND	07
A4DB 20 08          JR	NZ,A4E5
A4DD 21 50 8D       LD	HL,8D50
A4E0 34             INC	(HL)
A4E1 34             INC	(HL)
A4E2 C3 B0 A4       JP	A4B0
A4E5 3A 38 A7       LD	A,(A738)
A4E8 E6 03          AND	03
A4EA C0             RET	NZ
A4EB C3 2D A5       JP	A52D
A4EE 23             INC	HL
A4EF 7E             LD	A,(HL)
A4F0 E6 04          AND	04
A4F2 C8             RET	Z
A4F3 3A 38 A7       LD	A,(A738)
A4F6 E6 03          AND	03
- 
A4F8 C0             RET	NZ
A4F9 C3 69 A5       JP	A569
A4FC 3A 38 A7       LD	A,(A738)
A4FF E6 03          AND	03
A501 C0             RET	NZ
A502 C3 2D A5       JP	A52D
A505 23             INC	HL
A506 7E             LD	A,(HL)
A507 E6 04          AND	04
A509 C8             RET	Z
A50A 3A 38 A7       LD	A,(A738)
A50D E6 03          AND	03
A50F C0             RET	NZ
A510 C3 69 A5       JP	A569
A513 3A 07 8F       LD	A,(8F07)
A516 A7             AND	A
A517 C2 87 81       JP	NZ,8187
A51A 21 E7 8E       LD	HL,8EE7
A51D 22 14 8E       LD	(8E14),HL
A520 3C             INC	A
- 
A521 32 07 8F       LD	(8F07),A
A524 3A 27 8D       LD	A,(8D27)
A527 32 51 8D       LD	(8D51),A
A52A C3 87 81       JP	8187
A52D 3A 51 8D       LD	A,(8D51)
A530 FE 02          CP	02
A532 DA AC A5       JP	C,A5AC
A535 CD 3C A7       CALL	A73C
A538 21 28 90       LD	HL,9028
A53B 35             DEC	(HL)
A53C CD 4B A7       CALL	A74B
A53F E6 02          AND	02
A541 C0             RET	NZ
A542 11 20 00       LD	DE,0020 ; LD	DE,NEXT_CHAR
A545 19             ADD	HL,DE
A546 CD 57 A7       CALL	A757
A549 E6 02          AND	02
A54B C0             RET	NZ
A54C 3A 50 8D       LD	A,(8D50)
A54F E6 07          AND	07
- 
A551 28 07          JR	Z,A55A
A553 19             ADD	HL,DE
A554 CD 57 A7       CALL	A757
A557 E6 02          AND	02
A559 C0             RET	NZ
A55A 21 51 8D       LD	HL,8D51
A55D 35             DEC	(HL)
A55E 35             DEC	(HL)
A55F 7E             LD	A,(HL)
A560 1F             RRA
A561 E6 07          AND	07
A563 C6 00          ADD	A,00
A565 32 4E 8D       LD	(8D4E),A
A568 C9             RET
A569 3A 51 8D       LD	A,(8D51)
A56C FE F0          CP	F0
A56E D2 CF A5       JP	NC,A5CF
A571 3A 50 8D       LD	A,(8D50)
A574 32 27 90       LD	(9027),A
A577 3A 51 8D       LD	A,(8D51)
- 
A57A C6 10          ADD	A,10
A57C 32 28 90       LD	(9028),A
A57F CD 4B A7       CALL	A74B
A582 E6 02          AND	02
A584 C0             RET	NZ
A585 11 20 00       LD	DE,0020 ; LD	DE,NEXT_CHAR
A588 19             ADD	HL,DE
A589 CD 57 A7       CALL	A757
A58C E6 02          AND	02
A58E C0             RET	NZ
A58F 3A 50 8D       LD	A,(8D50)
A592 E6 07          AND	07
A594 28 07          JR	Z,A59D
A596 19             ADD	HL,DE
A597 CD 57 A7       CALL	A757
A59A E6 02          AND	02
A59C C0             RET	NZ
A59D 21 51 8D       LD	HL,8D51
A5A0 34             INC	(HL)
A5A1 34             INC	(HL)
- 
A5A2 7E             LD	A,(HL)
A5A3 1F             RRA
A5A4 E6 07          AND	07
A5A6 C6 08          ADD	A,08
A5A8 32 4E 8D       LD	(8D4E),A
A5AB C9             RET
A5AC 21 36 5F       LD	HL,5F36
A5AF 3A 5F AF       LD	A,(AF5F)
A5B2 3D             DEC	A
A5B3 CD 72 AD       CALL	AD72
A5B6 7E             LD	A,(HL)
A5B7 3C             INC	A
A5B8 C8             RET	Z
A5B9 21 5F AF       LD	HL,AF5F
A5BC 35             DEC	(HL)
A5BD 3E F0          LD	A,F0
A5BF 32 27 8D       LD	(8D27),A
A5C2 32 51 8D       LD	(8D51),A
A5C5 AF             XOR	A
A5C6 32 25 8D       LD	(8D25),A
- 
A5C9 32 4E 8D       LD	(8D4E),A
A5CC C3 5C AC       JP	AC5C
A5CF 21 36 5F       LD	HL,5F36
A5D2 3A 5F AF       LD	A,(AF5F)
A5D5 3C             INC	A
A5D6 CD 72 AD       CALL	AD72
A5D9 7E             LD	A,(HL)
A5DA 3C             INC	A
A5DB C8             RET	Z
A5DC D6 02          SUB	02
A5DE CC F8 A5       CALL	Z,A5F8
A5E1 21 5F AF       LD	HL,AF5F
A5E4 34             INC	(HL)
A5E5 3E 00          LD	A,00
A5E7 32 27 8D       LD	(8D27),A
A5EA 32 51 8D       LD	(8D51),A
A5ED 3E 08          LD	A,08
A5EF 32 25 8D       LD	(8D25),A
A5F2 32 4E 8D       LD	(8D4E),A
A5F5 C3 5C AC       JP	AC5C
- 
A5F8 3E 68          LD	A,68
A5FA 32 50 8D       LD	(8D50),A
A5FD 32 26 8D       LD	(8D26),A
A600 C9             RET
A601 21 36 5F       LD	HL,5F36
A604 3A 5F AF       LD	A,(AF5F)
A607 D6 10          SUB	10
A609 47             LD	B,A
A60A CD 72 AD       CALL	AD72
A60D 7E             LD	A,(HL)
A60E 3C             INC	A
A60F C8             RET	Z
A610 21 5F AF       LD	HL,AF5F
A613 70             LD	(HL),B
A614 3E 90          LD	A,90
A616 32 26 8D       LD	(8D26),A
A619 32 50 8D       LD	(8D50),A
A61C CD 5C AC       CALL	AC5C
A61F 3A 4E 8D       LD	A,(8D4E)
A622 32 0C 8F       LD	(8F0C),A
- 
A625 C9             RET
A626 21 36 5F       LD	HL,5F36
A629 3A 5F AF       LD	A,(AF5F)
A62C C6 10          ADD	A,10
A62E 47             LD	B,A
A62F CD 72 AD       CALL	AD72
A632 7E             LD	A,(HL)
A633 3C             INC	A
A634 C8             RET	Z
A635 21 5F AF       LD	HL,AF5F
A638 70             LD	(HL),B
A639 3E 00          LD	A,00
A63B 32 26 8D       LD	(8D26),A
A63E 32 50 8D       LD	(8D50),A
A641 CD 5C AC       CALL	AC5C
A644 3A 4E 8D       LD	A,(8D4E)
A647 32 0C 8F       LD	(8F0C),A
A64A C9             RET
A64B E5             PUSH	HL
A64C 21 36 5F       LD	HL,5F36
- 
A64F 3A 5F AF       LD	A,(AF5F)
A652 D6 10          SUB	10
A654 47             LD	B,A
A655 CD 72 AD       CALL	AD72
A658 7E             LD	A,(HL)
A659 3C             INC	A
A65A E1             POP	HL
A65B CA D4 81       JP	Z,81D4
A65E CD 01 A6       CALL	A601
A661 C1             POP	BC
A662 C3 62 7F       JP	7F62
A665 CD 26 A6       CALL	A626
A668 18 F7          JR	A661
A66A 3A 39 A7       LD	A,(A739)
A66D A7             AND	A
A66E 20 34          JR	NZ,A6A4
A670 1E 00          LD	E,00
A672 3A 35 A7       LD	A,(A735)
A675 CD 15 A7       CALL	A715
A678 3F             CCF
- 
A679 CB 13          RL	E
A67B 3A 31 A7       LD	A,(A731)
A67E CD 15 A7       CALL	A715
A681 3F             CCF
A682 CB 13          RL	E
A684 3A 32 A7       LD	A,(A732)
A687 CD 15 A7       CALL	A715
A68A 3F             CCF
A68B CB 13          RL	E
A68D 3A 33 A7       LD	A,(A733)
A690 CD 15 A7       CALL	A715
A693 3F             CCF
A694 CB 13          RL	E
A696 3A 34 A7       LD	A,(A734)
A699 CD 15 A7       CALL	A715
A69C 3F             CCF
A69D CB 13          RL	E
A69F 7B             LD	A,E
A6A0 32 38 A7       LD	(A738),A
A6A3 C9             RET
- 
A6A4 3D             DEC	A
A6A5 28 65          JR	Z,A70C
A6A7 3D             DEC	A
A6A8 28 32          JR	Z,A6DC
A6AA 01 FE EF       LD	BC,EFFE
A6AD 1E 00          LD	E,00
A6AF ED 78          IN	A,(C)
A6B1 57             LD	D,A
A6B2 1F             RRA
A6B3 3F             CCF
A6B4 CB 13          RL	E
A6B6 CB 5A          BIT	3,D
A6B8 20 01          JR	NZ,A6BB
A6BA 37             SCF
A6BB CB 13          RL	E
A6BD CB 62          BIT	4,D
A6BF 20 01          JR	NZ,A6C2
A6C1 37             SCF
A6C2 CB 13          RL	E
A6C4 01 FE F7       LD	BC,F7FE
- 
A6C7 ED 78          IN	A,(C)
A6C9 E6 10          AND	10
A6CB 20 01          JR	NZ,A6CE
A6CD 3F             CCF
A6CE CB 13          RL	E
A6D0 CB 52          BIT	2,D
A6D2 20 01          JR	NZ,A6D5
A6D4 37             SCF
A6D5 CB 13          RL	E
A6D7 7B             LD	A,E
A6D8 32 38 A7       LD	(A738),A
A6DB C9             RET
A6DC 01 FE EF       LD	BC,EFFE
A6DF ED 78          IN	A,(C)
A6E1 57             LD	D,A
A6E2 AF             XOR	A
A6E3 1E 10          LD	E,10
A6E5 CB 42          BIT	0,D
A6E7 CC 0A A7       CALL	Z,A70A
A6EA 1E 01          LD	E,01
- 
A6EC CB 5A          BIT	3,D
A6EE CC 0A A7       CALL	Z,A70A
A6F1 1E 02          LD	E,02
A6F3 CB 62          BIT	4,D
A6F5 CC 0A A7       CALL	Z,A70A
A6F8 1E 08          LD	E,08
A6FA CB 4A          BIT	1,D
A6FC CC 0A A7       CALL	Z,A70A
A6FF 1E 04          LD	E,04
A701 CB 52          BIT	2,D
A703 CC 0A A7       CALL	Z,A70A
A706 32 38 A7       LD	(A738),A
A709 C9             RET
A70A 83             ADD	A,E
A70B C9             RET
A70C 01 1F 00       LD	BC,001F
A70F ED 78          IN	A,(C)
A711 32 38 A7       LD	(A738),A
A714 C9             RET
A715 4F             LD	C,A
- 
A716 E6 07          AND	07
A718 3C             INC	A
A719 47             LD	B,A
A71A CB 39          SRL	C
A71C CB 39          SRL	C
A71E CB 39          SRL	C
A720 3E 05          LD	A,05
A722 91             SUB	C
A723 4F             LD	C,A
A724 3E FE          LD	A,FE
A726 0F             RRCA
A727 10 FD          DJNZ	A726
A729 DB FE          IN A,(FE)
A72B 1F             RRA
A72C 0D             DEC	C
A72D C2 2B A7       JP	NZ,A72B
A730 C9             RET
A731 1C             INC	E
A732 1D             DEC	E
A733 1B             DEC	DE
- 
A734 23             INC	HL
A735 10 1F          DJNZ	A756
A737 01 01 01       LD	BC,0101
A73A 00             NOP
A73B 00             NOP
A73C 2A 50 8D       LD	HL,(8D50)
A73F 22 27 90       LD	(9027),HL
A742 C9             RET
A743 2A 50 8D       LD	HL,(8D50)
A746 67             LD	H,A
A747 C6 0E          ADD	A,0E
A749 67             LD	H,A
A74A C9             RET
A74B CD 83 A7       CALL	A783
A74E 18 07          JR	A757
A750 CD 83 A7       CALL	A783
A753 06 01          LD	B,01
A755 18 02          JR	A759
A757 06 00          LD	B,00
A759 7E             LD	A,(HL)
- 
A75A FE 80          CP	80
A75C 28 19          JR	Z,A777
A75E E6 03          AND	03
A760 FE 00          CP	00
A762 C8             RET	Z
A763 CB 18          RR	B
A765 30 0B          JR	NC,A772
A767 3A 27 90       LD	A,(9027)
A76A E6 07          AND	07
A76C 20 0C          JR	NZ,A77A
A76E 7E             LD	A,(HL)
A76F E6 03          AND	03
A771 C9             RET
A772 E6 02          AND	02
A774 28 04          JR	Z,A77A
A776 C9             RET
A777 CD 02 8F       CALL	8F02
A77A 3E 00          LD	A,00
A77C E6 03          AND	03
A77E C9             RET
- 
A77F 36 00          LD	(HL),00
A781 18 F7          JR	A77A
A783 3A 27 90       LD	A,(9027)
A786 07             RLCA
A787 07             RLCA
A788 4F             LD	C,A
A789 E6 E0          AND	E0
A78B 6F             LD	L,A
A78C 3A 28 90       LD	A,(9028)
A78F 1F             RRA
A790 1F             RRA
A791 1F             RRA
A792 E6 1F          AND	1F
A794 85             ADD	A,L
A795 6F             LD	L,A
A796 79             LD	A,C
A797 E6 03          AND	03
A799 F6 78          OR	78
A79B 67             LD	H,A
A79C 7E             LD	A,(HL)
- 
A79D C9             RET
A79E 2A B0 A7       LD	HL,(A7B0)
A7A1 3A B2 A7       LD	A,(A7B2)
A7A4 86             ADD	A,(HL)
A7A5 32 B2 A7       LD	(A7B2),A
A7A8 CB AC          RES	5,H
A7AA AD             XOR	L
A7AB 23             INC	HL
A7AC 22 B0 A7       LD	(A7B0),HL
A7AF C9             RET
A7B0 87             ADD	A,A
A7B1 04             INC	B
A7B2 46             LD	B,(HL)
A7B3 3A 28 90       LD	A,(9028)
A7B6 E6 07          AND	07
A7B8 07             RLCA
A7B9 5F             LD	E,A
A7BA 16 00          LD	D,00
A7BC 21 D8 A7       LD	HL,A7D8
A7BF 19             ADD	HL,DE
- 
A7C0 56             LD	D,(HL)
A7C1 23             INC	HL
A7C2 5E             LD	E,(HL)
A7C3 CD CE 8F       CALL	8FCE
A7C6 7E             LD	A,(HL)
A7C7 AA             XOR	D
A7C8 77             LD	(HL),A
A7C9 23             INC	HL
A7CA 7E             LD	A,(HL)
A7CB AB             XOR	E
A7CC 77             LD	(HL),A
A7CD CD 14 90       CALL	9014
A7D0 7E             LD	A,(HL)
A7D1 AB             XOR	E
A7D2 77             LD	(HL),A
A7D3 2B             DEC	HL
A7D4 7E             LD	A,(HL)
A7D5 AA             XOR	D
A7D6 77             LD	(HL),A
A7D7 C9             RET
- 
A7D8 C0             RET	NZ
A7D9 00             NOP
A7DA 60             LD	H,B
A7DB 00             NOP
A7DC 30 00          JR	NC,A7DE
A7DE 18 00          JR	A7E0
A7E0 0C             INC	C
A7E1 00             NOP
A7E2 06 00          LD	B,00
A7E4 03             INC	BC
A7E5 00             NOP
A7E6 01 80 06       LD	BC,0680
A7E9 5D             LD	E,L
A7EA 21 4C B0       LD	HL,B04C
A7ED 3A 5E AF       LD	A,(AF5E)
A7F0 BE             CP	(HL)
A7F1 23             INC	HL
A7F2 CC FA A7       CALL	Z,A7FA
A7F5 23             INC	HL
A7F6 23             INC	HL
- 
A7F7 10 F4          DJNZ	A7ED
A7F9 C9             RET
A7FA E5             PUSH	HL
A7FB 3A 26 8D       LD	A,(8D26)
A7FE C6 10          ADD	A,10
A800 96             SUB	(HL)
A801 FE 18          CP	18
A803 30 45          JR	NC,A84A
A805 23             INC	HL
A806 3A 27 8D       LD	A,(8D27)
A809 C6 10          ADD	A,10
A80B 96             SUB	(HL)
A80C FE 18          CP	18
A80E 30 3A          JR	NC,A84A
A810 2B             DEC	HL
A811 2B             DEC	HL
A812 CB FE          SET	7,(HL)
A814 23             INC	HL
A815 C5             PUSH	BC
A816 CD E2 A8       CALL	A8E2
- 
A819 CD B1 A9       CALL	A9B1
A81C 3E 46          LD	A,46
A81E 12             LD	(DE),A
A81F 21 02 8E       LD	HL,8E02
A822 35             DEC	(HL)
A823 21 9C FF       LD	HL,FF9C
A826 CD DF FF       CALL	FFDF
A829 21 09 8E       LD	HL,8E09
A82C 3E 02          LD	A,02
A82E CD A6 8E       CALL	8EA6
A831 CD A0 8E       CALL	8EA0
A834 C1             POP	BC
A835 ED 5F          LD	A,R
A837 E6 03          AND	03
A839 21 95 F5       LD	HL,F595
A83C BE             CP	(HL)
A83D 20 02          JR	NZ,A841
A83F EE 02          XOR	02
A841 77             LD	(HL),A
A842 23             INC	HL
- 
A843 CD 72 AD       CALL	AD72
A846 7E             LD	A,(HL)
A847 CD CA EE       CALL	EECA
A84A E1             POP	HL
A84B C9             RET
A84C 06 09          LD	B,09
A84E 21 63 B1       LD	HL,B163
A851 3A 5E AF       LD	A,(AF5E)
A854 BE             CP	(HL)
A855 23             INC	HL
A856 CC 5E A8       CALL	Z,A85E
A859 23             INC	HL
A85A 23             INC	HL
A85B 10 F4          DJNZ	A851
A85D C9             RET
A85E E5             PUSH	HL
A85F 3A 26 8D       LD	A,(8D26)
A862 C6 10          ADD	A,10
A864 96             SUB	(HL)
A865 FE 18          CP	18
- 
A867 30 31          JR	NC,A89A
A869 23             INC	HL
A86A 3A 27 8D       LD	A,(8D27)
A86D C6 10          ADD	A,10
A86F 96             SUB	(HL)
A870 FE 18          CP	18
A872 D2 9A A8       JP	NC,A89A
A875 2B             DEC	HL
A876 2B             DEC	HL
A877 CB FE          SET	7,(HL)
A879 23             INC	HL
A87A C5             PUSH	BC
A87B CD F7 A8       CALL	A8F7
A87E CD B1 A9       CALL	A9B1
A881 3E 46          LD	A,46
A883 12             LD	(DE),A
A884 21 01 8E       LD	HL,8E01
A887 34             INC	(HL)
A888 CD 92 8E       CALL	8E92
A88B C1             POP	BC
- 
A88C 3E 01          LD	A,01
A88E 32 26 A4       LD	(A426),A
A891 3E 02          LD	A,02
A893 CD CA EE       CALL	EECA
A896 21 24 8B       LD	HL,8B24
A899 34             INC	(HL)
A89A E1             POP	HL
A89B C9             RET
A89C 3A 5E AF       LD	A,(AF5E)
A89F FE 0E          CP	0E
A8A1 C0             RET	NZ
A8A2 2A 64 A9       LD	HL,(A964)
A8A5 3A 26 8D       LD	A,(8D26)
A8A8 C6 10          ADD	A,10
A8AA 95             SUB	L
A8AB FE 18          CP	18
A8AD D0             RET	NC
A8AE 3A 27 8D       LD	A,(8D27)
A8B1 C6 10          ADD	A,10
A8B3 94             SUB	H
- 
A8B4 FE 18          CP	18
A8B6 D0             RET	NC
A8B7 CD 0C A9       CALL	A90C
A8BA 3A 6F A9       LD	A,(A96F)
A8BD C6 2C          ADD	A,2C
A8BF DC DC A8       CALL	C,A8DC
A8C2 32 6F A9       LD	(A96F),A
A8C5 21 6E A9       LD	HL,A96E
A8C8 34             INC	(HL)
A8C9 7E             LD	A,(HL)
A8CA E6 03          AND	03
A8CC 21 66 A9       LD	HL,A966
A8CF CD 77 AD       CALL	AD77
A8D2 11 64 A9       LD	DE,A964
A8D5 ED A0          LDI
A8D7 ED A0          LDI
A8D9 C3 0C A9       JP	A90C
A8DC 3E FF          LD	A,FF
A8DE 32 70 A9       LD	(A970),A
A8E1 C9             RET
- 
A8E2 E5             PUSH	HL
A8E3 C5             PUSH	BC
A8E4 11 27 90       LD	DE,9027
A8E7 ED A0          LDI
A8E9 ED A0          LDI
A8EB CD CE 8F       CALL	8FCE
A8EE 11 F7 A9       LD	DE,A9F7
A8F1 CD 18 A9       CALL	A918
A8F4 C1             POP	BC
A8F5 E1             POP	HL
A8F6 C9             RET
A8F7 E5             PUSH	HL
A8F8 C5             PUSH	BC
A8F9 11 27 90       LD	DE,9027
A8FC ED A0          LDI
A8FE ED A0          LDI
A900 CD CE 8F       CALL	8FCE
A903 11 53 AA       LD	DE,AA53
A906 CD 18 A9       CALL	A918
A909 C1             POP	BC
- 
A90A E1             POP	HL
A90B C9             RET
A90C 2A 64 A9       LD	HL,(A964)
A90F 22 27 90       LD	(9027),HL
A912 CD CE 8F       CALL	8FCE
A915 11 FF A9       LD	DE,A9FF
A918 06 08          LD	B,08
A91A 1A             LD	A,(DE)
A91B AE             XOR	(HL)
A91C 77             LD	(HL),A
A91D 13             INC	DE
A91E 24             INC	H
A91F 10 F9          DJNZ	A91A
A921 C9             RET
A922 3A 5E AF       LD	A,(AF5E)
A925 FE 49          CP	49
A927 C0             RET	NZ
A928 3A 71 A9       LD	A,(A971)
A92B A7             AND	A
A92C C0             RET	NZ
- 
A92D 21 70 B0       LD	HL,B070
A930 3A 26 8D       LD	A,(8D26)
A933 C6 10          ADD	A,10
A935 95             SUB	L
A936 FE 18          CP	18
A938 D0             RET	NC
A939 3A 27 8D       LD	A,(8D27)
A93C C6 10          ADD	A,10
A93E 94             SUB	H
A93F FE 18          CP	18
A941 D0             RET	NC
A942 21 71 A9       LD	HL,A971
A945 74             LD	(HL),H
A946 3E 0D          LD	A,0D
A948 CD CA EE       CALL	EECA
A94B AF             XOR	A
A94C 32 D3 BC       LD	(BCD3),A
A94F 21 70 B0       LD	HL,B070
A952 22 27 90       LD	(9027),HL
A955 CD CE 8F       CALL	8FCE
- 
A958 11 5B AA       LD	DE,AA5B
A95B 18 BB          JR	A918
A95D 3A 71 A9       LD	A,(A971)
A960 A7             AND	A
A961 C0             RET	NZ
A962 18 EB          JR	A94F
A964 10 B8          DJNZ	A91E
A966 10 B8          DJNZ	A920
A968 70             LD	(HL),B
A969 B8             CP	B
A96A 30 F8          JR	NC,A964
A96C 50             LD	D,B
A96D D8             RET	C
A96E 00             NOP
A96F 00             NOP
A970 00             NOP
A971 00             NOP
A972 06 5D          LD	B,5D
A974 21 4C B0       LD	HL,B04C
A977 3A 5E AF       LD	A,(AF5E)
- 
A97A BE             CP	(HL)
A97B 23             INC	HL
A97C 28 05          JR	Z,A983
A97E 23             INC	HL
A97F 23             INC	HL
A980 10 F5          DJNZ	A977
A982 C9             RET
A983 CD B1 A9       CALL	A9B1
A986 3A 78 5C       LD	A,(5C78) ; LD	A,(FRAMES1)
A989 E6 90          AND	90
A98B 07             RLCA
A98C 07             RLCA
A98D C6 05          ADD	A,05
A98F 12             LD	(DE),A
A990 18 ED          JR	A97F
A992 06 09          LD	B,09
A994 21 63 B1       LD	HL,B163
A997 3A 5E AF       LD	A,(AF5E)
A99A BE             CP	(HL)
A99B 23             INC	HL
- 
A99C 28 05          JR	Z,A9A3
A99E 23             INC	HL
A99F 23             INC	HL
A9A0 10 F5          DJNZ	A997
A9A2 C9             RET
A9A3 CD B1 A9       CALL	A9B1
A9A6 3A 78 5C       LD	A,(5C78) ; LD	A,(FRAMES1)
A9A9 E6 02          AND	02
A9AB 0F             RRCA
A9AC C6 06          ADD	A,06
A9AE 12             LD	(DE),A
A9AF 18 EE          JR	A99F
A9B1 7E             LD	A,(HL)
A9B2 07             RLCA
A9B3 07             RLCA
A9B4 5F             LD	E,A
A9B5 E6 03          AND	03
A9B7 C6 58          ADD	A,58
A9B9 57             LD	D,A
A9BA 7B             LD	A,E
- 
A9BB E6 E0          AND	E0
A9BD 5F             LD	E,A
A9BE 23             INC	HL
A9BF 7E             LD	A,(HL)
A9C0 1F             RRA
A9C1 1F             RRA
A9C2 1F             RRA
A9C3 E6 1F          AND	1F
A9C5 83             ADD	A,E
A9C6 5F             LD	E,A
A9C7 C9             RET
A9C8 3A 27 90       LD	A,(9027)
A9CB 07             RLCA
A9CC 07             RLCA
A9CD 6F             LD	L,A
A9CE E6 03          AND	03
A9D0 C6 58          ADD	A,58
A9D2 67             LD	H,A
A9D3 7D             LD	A,L
A9D4 E6 E0          AND	E0
- 
A9D6 6F             LD	L,A
A9D7 3A 28 90       LD	A,(9028)
A9DA 1F             RRA
A9DB 1F             RRA
A9DC 1F             RRA
A9DD E6 1F          AND	1F
A9DF 85             ADD	A,L
A9E0 6F             LD	L,A
A9E1 C9             RET
A9E2 21 43 58       LD	HL,5843
A9E5 11 10 00       LD	DE,0010 ; LD	DE,PRINT_A
A9E8 01 06 00       LD	BC,0006
A9EB 06 1A          LD	B,1A
A9ED 72             LD	(HL),D
A9EE 2C             INC	L
A9EF 10 FC          DJNZ	A9ED
A9F1 09             ADD	HL,BC
A9F2 1D             DEC	E
A9F3 C2 EB A9       JP	NZ,A9EB
A9F6 C9             RET
- 
A9F7 10 38          DJNZ	AA31
A9F9 7C             LD	A,H
A9FA FE 7F          CP	7F
A9FC 3F             CCF
A9FD 1E 0C          LD	E,0C
A9FF C0             RET	NZ
AA00 E0             RET	PO
AA01 70             LD	(HL),B
AA02 38 1E          JR 	C,AA22
AA04 0F             RRCA
AA05 0E 04          LD	C,04
AA07 10 1C          DJNZ	AA25
AA09 0F             RRCA
AA0A 08             EX	AF,AF'
AA0B 10 F0          DJNZ	A9FD
AA0D 38 08          JR 	C,AA17
AA0F 10 F0          DJNZ	AA01
AA11 38 08          JR 	C,AA1B
AA13 10 1C          DJNZ	AA31
AA15 0F             RRCA
- 
AA16 08             EX	AF,AF'
AA17 20 10          JR	NZ,AA29
AA19 08             EX	AF,AF'
AA1A 04             INC	B
AA1B 04             INC	B
AA1C 08             EX	AF,AF'
AA1D 10 20          DJNZ	AA3F
AA1F 0F             RRCA
AA20 08             EX	AF,AF'
AA21 10 F0          DJNZ	AA13
AA23 38 08          JR 	C,AA2D
AA25 10 1C          DJNZ	AA43
AA27 04             INC	B
AA28 08             EX	AF,AF'
AA29 10 20          DJNZ	AA4B
AA2B 20 10          JR	NZ,AA3D
AA2D 08             EX	AF,AF'
AA2E 04             INC	B
AA2F 38 08          JR 	C,AA39
AA31 10 1C          DJNZ	AA4F
- 
AA33 0F             RRCA
AA34 08             EX	AF,AF'
AA35 10 F0          DJNZ	AA27
AA37 08             EX	AF,AF'
AA38 04             INC	B
AA39 04             INC	B
AA3A 08             EX	AF,AF'
AA3B 10 20          DJNZ	AA5D
AA3D 20 10          JR	NZ,AA4F
AA3F 10 20          DJNZ	AA61
AA41 20 10          JR	NZ,AA53
AA43 08             EX	AF,AF'
AA44 04             INC	B
AA45 04             INC	B
AA46 08             EX	AF,AF'
AA47 C2 00 7F       JP	NZ,7F00
AA4A 80             ADD	A,B
AA4B C2 00 0C       JP	NZ,0C00
AA4E 20 07          JR	NZ,AA57
AA50 F8             RET	M
- 
AA51 0C             INC	C
AA52 20 70          JR	NZ,AAC4
AA54 FC FE FF       CALL	M,FFFE
AA57 7F             LD	A,A
AA58 7F             LD	A,A
AA59 3E 1C          LD	A,1C
AA5B 06 0F          LD	B,0F
AA5D 0B             DEC	BC
AA5E 1E 30          LD	E,30
AA60 60             LD	H,B
AA61 F0             RET	P
AA62 60             LD	H,B
AA63 20 08          JR	NZ,AA6D
AA65 20 08          JR	NZ,AA6F
AA67 71             LD	(HL),C
AA68 1C             INC	E
AA69 51             LD	D,C
AA6A 14             INC	D
AA6B DB B6          IN A,(B6)
AA6D 8A             ADC	A,D
- 
AA6E A2             AND	D
AA6F 76             HALT
AA70 DC 24 48       CALL	C,4824
AA73 24             INC	H
AA74 48             LD	C,B
AA75 76             HALT
AA76 DC 8A A2       CALL	C,A28A
AA79 DB B6          IN A,(B6)
AA7B 51             LD	D,C
AA7C 14             INC	D
AA7D 51             LD	D,C
AA7E 1C             INC	E
AA7F 20 08          JR	NZ,AA89
AA81 20 08          JR	NZ,AA8B
AA83 FC 3F 00       CALL	M,003F
AA86 00             NOP
AA87 56             LD	D,(HL)
AA88 96             SUB	(HL)
AA89 6A             LD	L,D
AA8A AA             XOR	D
- 
AA8B 56             LD	D,(HL)
AA8C 96             SUB	(HL)
AA8D FF             RST	38
AA8E FF             RST	38
AA8F 03             INC	BC
AA90 C0             RET	NZ
AA91 FF             RST	38
AA92 FF             RST	38
AA93 FF             RST	38
AA94 FF             RST	38
AA95 00             NOP
AA96 00             NOP
AA97 55             LD	D,L
AA98 56             LD	D,(HL)
AA99 6A             LD	L,D
AA9A AA             XOR	D
AA9B 55             LD	D,L
AA9C 56             LD	D,(HL)
AA9D FF             RST	38
AA9E FF             RST	38
- 
AA9F 00             NOP
AAA0 00             NOP
AAA1 FF             RST	38
AAA2 FF             RST	38
AAA3 FF             RST	38
AAA4 FF             RST	38
AAA5 00             NOP
AAA6 00             NOP
AAA7 FF             RST	38
AAA8 FF             RST	38
AAA9 61             LD	H,C
AAAA 86             ADD	A,(HL)
AAAB 50             LD	D,B
AAAC 0A             LD	A,(BC)
AAAD 28 14          JR	Z,AAC3
AAAF 16 68          LD	D,68
AAB1 08             EX	AF,AF'
AAB2 10 07          DJNZ	AABB
AAB4 E0             RET	PO
AAB5 FF             RST	38
- 
AAB6 FF             RST	38
AAB7 FF             RST	38
AAB8 FF             RST	38
AAB9 00             NOP
AABA 00             NOP
AABB 61             LD	H,C
AABC 86             ADD	A,(HL)
AABD 31 8C 19       LD	SP,198C
AAC0 98             SBC	A,B
AAC1 0F             RRCA
AAC2 F0             RET	P
AAC3 07             RLCA
AAC4 E0             RET	PO
AAC5 18 3C          JR	AB03
AAC7 7E             LD	A,(HL)
AAC8 3C             INC	A
AAC9 18 3C          JR	AB07
AACB 7E             LD	A,(HL)
AACC FF             RST	38
AACD 7E             LD	A,(HL)
- 
AACE 3C             INC	A
AACF 00             NOP
AAD0 3C             INC	A
AAD1 7E             LD	A,(HL)
AAD2 3C             INC	A
AAD3 00             NOP
AAD4 3C             INC	A
AAD5 FF             RST	38
AAD6 FF             RST	38
AAD7 FF             RST	38
AAD8 3C             INC	A
AAD9 00             NOP
AADA 00             NOP
AADB 18 00          JR	AADD
AADD 00             NOP
AADE 00             NOP
AADF 18 3C          JR	AB1D
AAE1 18 00          JR	AAE3
AAE3 00             NOP
AAE4 00             NOP
- 
AAE5 3C             INC	A
AAE6 00             NOP
AAE7 00             NOP
AAE8 00             NOP
AAE9 3C             INC	A
AAEA 7E             LD	A,(HL)
AAEB 3C             INC	A
AAEC 00             NOP
AAED 00             NOP
AAEE 00             NOP
AAEF 00             NOP
AAF0 00             NOP
AAF1 C0             RET	NZ
AAF2 C0             RET	NZ
AAF3 00             NOP
AAF4 06 0C          LD	B,0C
AAF6 18 30          JR	AB28
AAF8 60             LD	H,B
AAF9 00             NOP
AAFA 7C             LD	A,H
- 
AAFB CE CE          ADC	A,CE
AAFD CE 7C          ADC	A,7C
AAFF 00             NOP
AB00 78             LD	A,B
AB01 38 38          JR 	C,AB3B
AB03 38 7C          JR 	C,AB81
AB05 00             NOP
AB06 7C             LD	A,H
AB07 0E 7C          LD	C,7C
AB09 E0             RET	PO
AB0A FE 00          CP	00
AB0C FC 0E 3C       CALL	M,3C0E
AB0F 0E FC          LD	C,FC
AB11 00             NOP
AB12 3C             INC	A
AB13 7C             LD	A,H
AB14 DC FE 1C       CALL	C,1CFE
AB17 00             NOP
AB18 FC C0 FC       CALL	M,FCC0
AB1B 0E FC          LD	C,FC
- 
AB1D 00             NOP
AB1E 7C             LD	A,H
AB1F E0             RET	PO
AB20 FC E6 7C       CALL	M,7CE6
AB23 00             NOP
AB24 FE 0E          CP	0E
AB26 1C             INC	E
AB27 38 38          JR 	C,AB61
AB29 00             NOP
AB2A 7C             LD	A,H
AB2B E6 7C          AND	7C
AB2D E6 7C          AND	7C
AB2F 00             NOP
AB30 7C             LD	A,H
AB31 CE 7E          ADC	A,7E
AB33 1C             INC	E
AB34 38 00          JR 	C,AB36
AB36 C0             RET	NZ
AB37 C0             RET	NZ
AB38 00             NOP
- 
AB39 C0             RET	NZ
AB3A C0             RET	NZ
AB3B 00             NOP
AB3C 00             NOP
AB3D 00             NOP
AB3E 00             NOP
AB3F 60             LD	H,B
AB40 C0             RET	NZ
AB41 30 60          JR	NC,ABA3
AB43 00             NOP
AB44 00             NOP
AB45 00             NOP
AB46 00             NOP
AB47 00             NOP
AB48 60             LD	H,B
AB49 60             LD	H,B
AB4A 60             LD	H,B
AB4B 00             NOP
AB4C 60             LD	H,B
AB4D 00             NOP
- 
AB4E 00             NOP
AB4F 00             NOP
AB50 7C             LD	A,H
AB51 00             NOP
AB52 00             NOP
AB53 00             NOP
AB54 7C             LD	A,H
AB55 0E 3C          LD	C,3C
AB57 00             NOP
AB58 38 00          JR 	C,AB5A
AB5A 00             NOP
AB5B 00             NOP
AB5C 00             NOP
AB5D 00             NOP
AB5E 00             NOP
AB5F 00             NOP
AB60 7C             LD	A,H
AB61 E6 E6          AND	E6
AB63 FE E6          CP	E6
AB65 00             NOP
- 
AB66 FC E6 FC       CALL	M,FCE6
AB69 E6 FC          AND	FC
AB6B 00             NOP
AB6C 7C             LD	A,H
AB6D E6 E0          AND	E0
AB6F E6 7C          AND	7C
AB71 00             NOP
AB72 F8             RET	M
AB73 EC E6 E6       CALL	PE,E6E6
AB76 FC 00 7E       CALL	M,7E00
AB79 E0             RET	PO
AB7A FC E0 7E       CALL	M,7EE0
AB7D 00             NOP
AB7E 7E             LD	A,(HL)
AB7F E0             RET	PO
AB80 FC E0 E0       CALL	M,E0E0
AB83 00             NOP
AB84 7E             LD	A,(HL)
AB85 E0             RET	PO
AB86 EE E6          XOR	E6
- 
AB88 7E             LD	A,(HL)
AB89 00             NOP
AB8A E6 E6          AND	E6
AB8C FE E6          CP	E6
AB8E E6 00          AND	00
AB90 7C             LD	A,H
AB91 38 38          JR 	C,ABCB
AB93 38 7C          JR 	C,AC11
AB95 00             NOP
AB96 0E 0E          LD	C,0E
AB98 0E CE          LD	C,CE
AB9A 7C             LD	A,H
AB9B 00             NOP
AB9C E6 EC          AND	EC
AB9E F8             RET	M
AB9F EC E6 00       CALL	PE,00E6
ABA2 E0             RET	PO
ABA3 E0             RET	PO
ABA4 E0             RET	PO
ABA5 E0             RET	PO
- 
ABA6 FE 00          CP	00
ABA8 C6 EE          ADD	A,EE
ABAA FE D6          CP	D6
ABAC C6 00          ADD	A,00
ABAE FC E6 E6       CALL	M,E6E6
ABB1 E6 E6          AND	E6
ABB3 00             NOP
ABB4 7C             LD	A,H
ABB5 E6 E6          AND	E6
ABB7 E6 7C          AND	7C
ABB9 00             NOP
ABBA FC E6 E6       CALL	M,E6E6
ABBD FC E0 00       CALL	M,00E0
ABC0 7C             LD	A,H
ABC1 E6 E6          AND	E6
ABC3 EC 7E 00       CALL	PE,007E
ABC6 FC E6 EC       CALL	M,ECE6
ABC9 F8             RET	M
ABCA EE 00          XOR	00
ABCC 78             LD	A,B
- 
ABCD C0             RET	NZ
ABCE 7C             LD	A,H
ABCF 0E FC          LD	C,FC
ABD1 00             NOP
ABD2 FE 38          CP	38
ABD4 38 38          JR 	C,AC0E
ABD6 38 00          JR 	C,ABD8
ABD8 E6 E6          AND	E6
ABDA E6 E6          AND	E6
ABDC 7C             LD	A,H
ABDD 00             NOP
ABDE E6 E6          AND	E6
ABE0 E6 7C          AND	7C
ABE2 38 00          JR 	C,ABE4
ABE4 C6 C6          ADD	A,C6
ABE6 D6 FE          SUB	FE
ABE8 6C             LD	L,H
ABE9 00             NOP
ABEA E6 7C          AND	7C
ABEC 38 7C          JR 	C,AC6A
- 
ABEE E6 00          AND	00
ABF0 CE CE          ADC	A,CE
ABF2 7E             LD	A,(HL)
ABF3 0E 7C          LD	C,7C
ABF5 00             NOP
ABF6 FE 1C          CP	1C
ABF8 38 70          JR 	C,AC6A
ABFA FE 00          CP	00
ABFC 20 F8          JR	NZ,ABF6
ABFE 70             LD	(HL),B
ABFF F8             RET	M
AC00 20 00          JR	NZ,AC02
AC02 18 18          JR	AC1C
AC04 7E             LD	A,(HL)
AC05 18 18          JR	AC1F
AC07 7E             LD	A,(HL)
AC08 DB FF          IN A,(FF)
AC0A C3 E7 7E       JP	7EE7
AC0D 7E             LD	A,(HL)
AC0E 23             INC	HL
- 
AC0F FE 63          CP	63
AC11 C8             RET	Z
AC12 CD 17 AC       CALL	AC17
AC15 18 F6          JR	AC0D
AC17 FE 62          CP	62
AC19 28 32          JR	Z,AC4D
AC1B FE 61          CP	61
AC1D 28 37          JR	Z,AC56
AC1F D6 2E          SUB	2E
AC21 E5             PUSH	HL
AC22 07             RLCA
AC23 57             LD	D,A
AC24 07             RLCA
AC25 82             ADD	A,D
AC26 5F             LD	E,A
AC27 3E 00          LD	A,00
AC29 CE 00          ADC	A,00
AC2B 57             LD	D,A
AC2C 21 ED AA       LD	HL,AAED
AC2F 19             ADD	HL,DE
- 
AC30 CD 20 B0       CALL	B020
AC33 01 63 06       LD	BC,0663
AC36 AF             XOR	A
AC37 12             LD	(DE),A
AC38 14             INC	D
AC39 ED A0          LDI
AC3B 14             INC	D
AC3C 1B             DEC	DE
AC3D 10 FA          DJNZ	AC39
AC3F 12             LD	(DE),A
AC40 CD 36 B0       CALL	B036
AC43 3A 8D 5C       LD	A,(5C8D) ; LD	A,(ATTRP_MASKP)
AC46 12             LD	(DE),A
AC47 21 28 90       LD	HL,9028
AC4A 34             INC	(HL)
AC4B E1             POP	HL
AC4C C9             RET
AC4D 5E             LD	E,(HL)
AC4E 23             INC	HL
AC4F 56             LD	D,(HL)
- 
AC50 23             INC	HL
AC51 ED 53 27 90    LD	(9027),DE
AC55 C9             RET
AC56 7E             LD	A,(HL)
AC57 32 8D 5C       LD	(5C8D),A ; LD	(ATTRP_MASKP),A
AC5A 23             INC	HL
AC5B C9             RET
AC5C AF             XOR	A
AC5D 32 E4 83       LD	(83E4),A
AC60 32 E8 83       LD	(83E8),A
AC63 32 ED 83       LD	(83ED),A
AC66 32 F2 83       LD	(83F2),A
AC69 32 FA 83       LD	(83FA),A
AC6C 32 00 84       LD	(8400),A
AC6F 32 0A 84       LD	(840A),A
AC72 2A 26 8D       LD	HL,(8D26)
AC75 22 0A 8F       LD	(8F0A),HL
AC78 3A 25 8D       LD	A,(8D25)
AC7B 32 0C 8F       LD	(8F0C),A
AC7E 3A 5F AF       LD	A,(AF5F)
- 
AC81 21 36 5F       LD	HL,5F36
AC84 CD 72 AD       CALL	AD72
AC87 7E             LD	A,(HL)
AC88 32 5E AF       LD	(AF5E),A
AC8B 3A 5E AF       LD	A,(AF5E)
AC8E C6 80          ADD	A,80
AC90 6F             LD	L,A
AC91 26 70          LD	H,70
AC93 5E             LD	E,(HL)
AC94 24             INC	H
AC95 56             LD	D,(HL)
AC96 EB             EX	DE,HL
AC97 CD 9B AD       CALL	AD9B
AC9A 22 FE 77       LD	(77FE),HL
AC9D CD 47 AF       CALL	AF47
ACA0 CD 60 AF       CALL	AF60
ACA3 3A 5E AF       LD	A,(AF5E)
ACA6 CD 1C AD       CALL	AD1C
ACA9 21 C7 5D       LD	HL,5DC7
ACAC CD 0D AC       CALL	AC0D
- 
ACAF CD 30 AF       CALL	AF30
ACB2 CD 60 AF       CALL	AF60
ACB5 21 24 8D       LD	HL,8D24
ACB8 11 25 8D       LD	DE,8D25
ACBB 01 29 00       LD	BC,0029
ACBE 36 FF          LD	(HL),FF
ACC0 ED B0          LDIR
ACC2 21 55 8D       LD	HL,8D55
ACC5 11 56 8D       LD	DE,8D56
ACC8 01 22 00       LD	BC,0022
ACCB 36 FF          LD	(HL),FF
ACCD ED B0          LDIR
ACCF CD 47 AF       CALL	AF47
ACD2 21 60 7A       LD	HL,7A60
ACD5 11 80 7A       LD	DE,7A80
ACD8 01 20 00       LD	BC,0020 ; LD	BC,NEXT_CHAR
ACDB ED B0          LDIR
ACDD 21 E2 A8       LD	HL,A8E2
ACE0 22 F3 A7       LD	(A7F3),HL
ACE3 CD E8 A7       CALL	A7E8
- 
ACE6 21 FA A7       LD	HL,A7FA
ACE9 22 F3 A7       LD	(A7F3),HL
ACEC 21 F7 A8       LD	HL,A8F7
ACEF 22 57 A8       LD	(A857),HL
ACF2 CD 4C A8       CALL	A84C
ACF5 21 5E A8       LD	HL,A85E
ACF8 22 57 A8       LD	(A857),HL
ACFB 3A 5E AF       LD	A,(AF5E)
ACFE FE 0E          CP	0E
AD00 CC 0C A9       CALL	Z,A90C
AD03 3A 5E AF       LD	A,(AF5E)
AD06 FE 49          CP	49
AD08 CC 5D A9       CALL	Z,A95D
AD0B CD 52 EE       CALL	EE52
AD0E C3 C6 7D       JP	7DC6
AD11 A7             AND	A
AD12 C8             RET	Z
AD13 47             LD	B,A
AD14 7E             LD	A,(HL)
AD15 23             INC	HL
- 
AD16 17             RLA
AD17 30 FB          JR	NC,AD14
AD19 10 F9          DJNZ	AD14
AD1B C9             RET
AD1C 21 CA 5D       LD	HL,5DCA
AD1F 11 CB 5D       LD	DE,5DCB
AD22 36 40          LD	(HL),40
AD24 01 17 00       LD	BC,0017
AD27 ED B0          LDIR
AD29 21 06 BD       LD	HL,BD06
AD2C CD 11 AD       CALL	AD11
AD2F E5             PUSH	HL
AD30 E5             PUSH	HL
AD31 3E 01          LD	A,01
AD33 CD 11 AD       CALL	AD11
AD36 D1             POP	DE
AD37 ED 52          SBC	HL,DE
AD39 4D             LD	C,L
AD3A 3E 18          LD	A,18
AD3C 95             SUB	L
- 
AD3D 1F             RRA
AD3E 21 CA 5D       LD	HL,5DCA
AD41 CD 72 AD       CALL	AD72
AD44 EB             EX	DE,HL
AD45 E1             POP	HL
AD46 06 00          LD	B,00
AD48 ED B0          LDIR
AD4A 7E             LD	A,(HL)
AD4B E6 7F          AND	7F
AD4D 12             LD	(DE),A
AD4E C9             RET
AD4F 21 00 40       LD	HL,4000
AD52 11 01 40       LD	DE,4001
AD55 01 00 18       LD	BC,1800
AD58 75             LD	(HL),L
AD59 ED B0          LDIR
AD5B 3A 8D 5C       LD	A,(5C8D) ; LD	A,(ATTRP_MASKP)
AD5E 77             LD	(HL),A
AD5F 01 FF 02       LD	BC,02FF
AD62 ED B0          LDIR
- 
AD64 C9             RET
AD65 21 00 58       LD	HL,5800
AD68 11 01 58       LD	DE,5801
AD6B 01 DF 02       LD	BC,02DF
AD6E 75             LD	(HL),L
AD6F ED B0          LDIR
AD71 C9             RET
AD72 5F             LD	E,A
AD73 16 00          LD	D,00
AD75 19             ADD	HL,DE
AD76 C9             RET
AD77 07             RLCA
AD78 5F             LD	E,A
AD79 E6 01          AND	01
AD7B 57             LD	D,A
AD7C CB BB          RES	7,E
AD7E 19             ADD	HL,DE
AD7F C9             RET
AD80 0F             RRCA
AD81 0F             RRCA
- 
AD82 0F             RRCA
AD83 0F             RRCA
AD84 5F             LD	E,A
AD85 E6 0F          AND	0F
AD87 57             LD	D,A
AD88 7B             LD	A,E
AD89 E6 F0          AND	F0
AD8B 5F             LD	E,A
AD8C 19             ADD	HL,DE
AD8D C9             RET
AD8E 0F             RRCA
AD8F 0F             RRCA
AD90 0F             RRCA
AD91 57             LD	D,A
AD92 E6 E0          AND	E0
AD94 5F             LD	E,A
AD95 7A             LD	A,D
AD96 E6 1F          AND	1F
AD98 57             LD	D,A
AD99 19             ADD	HL,DE
- 
AD9A C9             RET
AD9B 01 80 02       LD	BC,0280
AD9E 11 B4 FA       LD	DE,FAB4
ADA1 7E             LD	A,(HL)
ADA2 3C             INC	A
ADA3 20 27          JR	NZ,ADCC
ADA5 23             INC	HL
ADA6 7E             LD	A,(HL)
ADA7 FE FF          CP	FF
ADA9 28 09          JR	Z,ADB4
ADAB 12             LD	(DE),A
ADAC 13             INC	DE
ADAD 23             INC	HL
ADAE 0B             DEC	BC
ADAF 78             LD	A,B
ADB0 B1             OR	C
ADB1 20 F3          JR	NZ,ADA6
ADB3 C9             RET
ADB4 23             INC	HL
ADB5 7E             LD	A,(HL)
- 
ADB6 32 2F AF       LD	(AF2F),A
ADB9 23             INC	HL
ADBA 7E             LD	A,(HL)
ADBB 23             INC	HL
ADBC 08             EX	AF,AF'
ADBD 3A 2F AF       LD	A,(AF2F)
ADC0 12             LD	(DE),A
ADC1 13             INC	DE
ADC2 0B             DEC	BC
ADC3 78             LD	A,B
ADC4 B1             OR	C
ADC5 C8             RET	Z
ADC6 08             EX	AF,AF'
ADC7 3D             DEC	A
ADC8 20 F2          JR	NZ,ADBC
ADCA 18 DA          JR	ADA6
ADCC 22 FF AE       LD	(AEFF),HL
ADCF 21 B4 FA       LD	HL,FAB4
ADD2 11 B5 FA       LD	DE,FAB5
ADD5 01 7F 02       LD	BC,027F
- 
ADD8 36 00          LD	(HL),00
ADDA ED B0          LDIR
ADDC 2A FF AE       LD	HL,(AEFF)
ADDF 7E             LD	A,(HL)
ADE0 23             INC	HL
ADE1 22 FF AE       LD	(AEFF),HL
ADE4 FE FF          CP	FF
ADE6 C8             RET	Z
ADE7 FE FE          CP	FE
ADE9 28 22          JR	Z,AE0D
ADEB FE FD          CP	FD
ADED 28 3E          JR	Z,AE2D
ADEF FE FB          CP	FB
ADF1 28 69          JR	Z,AE5C
ADF3 FE FA          CP	FA
ADF5 CA 7F AE       JP	Z,AE7F
ADF8 FE FC          CP	FC
ADFA 28 4E          JR	Z,AE4A
ADFC FE F9          CP	F9
ADFE CA AC AE       JP	Z,AEAC
- 
AE01 FE F8          CP	F8
AE03 CA 01 AF       JP	Z,AF01
AE06 FE F7          CP	F7
AE08 CA D0 AE       JP	Z,AED0
AE0B 18 CF          JR	ADDC
AE0D 2A FF AE       LD	HL,(AEFF)
AE10 4E             LD	C,(HL)
AE11 23             INC	HL
AE12 7E             LD	A,(HL)
AE13 32 27 90       LD	(9027),A
AE16 23             INC	HL
AE17 7E             LD	A,(HL)
AE18 32 28 90       LD	(9028),A
AE1B 23             INC	HL
AE1C 46             LD	B,(HL)
AE1D 23             INC	HL
AE1E 22 FF AE       LD	(AEFF),HL
AE21 CD EE AE       CALL	AEEE
AE24 11 20 00       LD	DE,0020 ; LD	DE,NEXT_CHAR
AE27 71             LD	(HL),C
- 
AE28 19             ADD	HL,DE
AE29 10 FC          DJNZ	AE27
AE2B 18 AF          JR	ADDC
AE2D 2A FF AE       LD	HL,(AEFF)
AE30 4E             LD	C,(HL)
AE31 23             INC	HL
AE32 7E             LD	A,(HL)
AE33 32 27 90       LD	(9027),A
AE36 23             INC	HL
AE37 7E             LD	A,(HL)
AE38 32 28 90       LD	(9028),A
AE3B 23             INC	HL
AE3C 46             LD	B,(HL)
AE3D 23             INC	HL
AE3E 22 FF AE       LD	(AEFF),HL
AE41 CD EE AE       CALL	AEEE
AE44 71             LD	(HL),C
AE45 23             INC	HL
AE46 10 FC          DJNZ	AE44
AE48 18 92          JR	ADDC
- 
AE4A 2A FF AE       LD	HL,(AEFF)
AE4D 4E             LD	C,(HL)
AE4E 23             INC	HL
AE4F 7E             LD	A,(HL)
AE50 32 27 90       LD	(9027),A
AE53 23             INC	HL
AE54 7E             LD	A,(HL)
AE55 32 28 90       LD	(9028),A
AE58 06 01          LD	B,01
AE5A 18 E1          JR	AE3D
AE5C 2A FF AE       LD	HL,(AEFF)
AE5F 7E             LD	A,(HL)
AE60 32 27 90       LD	(9027),A
AE63 23             INC	HL
AE64 7E             LD	A,(HL)
AE65 32 28 90       LD	(9028),A
AE68 23             INC	HL
AE69 46             LD	B,(HL)
AE6A 23             INC	HL
AE6B 22 FF AE       LD	(AEFF),HL
- 
AE6E CD EE AE       CALL	AEEE
AE71 11 1F 00       LD	DE,001F
AE74 36 09          LD	(HL),09
AE76 23             INC	HL
AE77 36 09          LD	(HL),09
AE79 19             ADD	HL,DE
AE7A 10 F8          DJNZ	AE74
AE7C C3 DC AD       JP	ADDC
AE7F 2A FF AE       LD	HL,(AEFF)
AE82 4E             LD	C,(HL)
AE83 23             INC	HL
AE84 7E             LD	A,(HL)
AE85 32 27 90       LD	(9027),A
AE88 23             INC	HL
AE89 7E             LD	A,(HL)
AE8A 32 28 90       LD	(9028),A
AE8D 23             INC	HL
AE8E 46             LD	B,(HL)
AE8F 23             INC	HL
AE90 7E             LD	A,(HL)
- 
AE91 F5             PUSH	AF
AE92 23             INC	HL
AE93 22 FF AE       LD	(AEFF),HL
AE96 CD EE AE       CALL	AEEE
AE99 F1             POP	AF
AE9A 11 20 00       LD	DE,0020 ; LD	DE,NEXT_CHAR
AE9D F5             PUSH	AF
AE9E E5             PUSH	HL
AE9F 71             LD	(HL),C
AEA0 23             INC	HL
AEA1 3D             DEC	A
AEA2 20 FB          JR	NZ,AE9F
AEA4 E1             POP	HL
AEA5 F1             POP	AF
AEA6 19             ADD	HL,DE
AEA7 10 F4          DJNZ	AE9D
AEA9 C3 DC AD       JP	ADDC
AEAC 2A FF AE       LD	HL,(AEFF)
AEAF 7E             LD	A,(HL)
AEB0 32 27 90       LD	(9027),A
- 
AEB3 23             INC	HL
AEB4 7E             LD	A,(HL)
AEB5 32 28 90       LD	(9028),A
AEB8 23             INC	HL
AEB9 22 FF AE       LD	(AEFF),HL
AEBC CD EE AE       CALL	AEEE
AEBF 36 2A          LD	(HL),2A
AEC1 23             INC	HL
AEC2 36 2B          LD	(HL),2B
AEC4 11 1F 00       LD	DE,001F
AEC7 19             ADD	HL,DE
AEC8 36 2C          LD	(HL),2C
AECA 23             INC	HL
AECB 36 2D          LD	(HL),2D
AECD C3 DC AD       JP	ADDC
AED0 2A FF AE       LD	HL,(AEFF)
AED3 7E             LD	A,(HL)
AED4 32 27 90       LD	(9027),A
AED7 23             INC	HL
AED8 7E             LD	A,(HL)
- 
AED9 32 28 90       LD	(9028),A
AEDC 23             INC	HL
AEDD 22 FF AE       LD	(AEFF),HL
AEE0 CD EE AE       CALL	AEEE
AEE3 36 67          LD	(HL),67
AEE5 23             INC	HL
AEE6 36 68          LD	(HL),68
AEE8 23             INC	HL
AEE9 36 67          LD	(HL),67
AEEB C3 DC AD       JP	ADDC
AEEE 3A 27 90       LD	A,(9027)
AEF1 21 B4 FA       LD	HL,FAB4
AEF4 CD 8E AD       CALL	AD8E
AEF7 3A 28 90       LD	A,(9028)
AEFA 5F             LD	E,A
AEFB 16 00          LD	D,00
AEFD 19             ADD	HL,DE
AEFE C9             RET
AEFF 4B             LD	C,E
AF00 C8             RET	Z
- 
AF01 2A FF AE       LD	HL,(AEFF)
AF04 4E             LD	C,(HL)
AF05 23             INC	HL
AF06 7E             LD	A,(HL)
AF07 32 27 90       LD	(9027),A
AF0A 23             INC	HL
AF0B 7E             LD	A,(HL)
AF0C 32 28 90       LD	(9028),A
AF0F 23             INC	HL
AF10 46             LD	B,(HL)
AF11 23             INC	HL
AF12 7E             LD	A,(HL)
AF13 F5             PUSH	AF
AF14 23             INC	HL
AF15 22 FF AE       LD	(AEFF),HL
AF18 CD EE AE       CALL	AEEE
AF1B F1             POP	AF
AF1C 11 20 00       LD	DE,0020 ; LD	DE,NEXT_CHAR
AF1F F5             PUSH	AF
AF20 E5             PUSH	HL
- 
AF21 71             LD	(HL),C
AF22 0C             INC	C
AF23 23             INC	HL
AF24 3D             DEC	A
AF25 20 FA          JR	NZ,AF21
AF27 E1             POP	HL
AF28 F1             POP	AF
AF29 19             ADD	HL,DE
AF2A 10 F3          DJNZ	AF1F
AF2C C3 DC AD       JP	ADDC
AF2F 00             NOP
AF30 21 42 B7       LD	HL,B742
AF33 22 F7 AF       LD	(AFF7),HL
AF36 21 62 BC       LD	HL,BC62
AF39 22 DE AF       LD	(AFDE),HL
AF3C 3E 60          LD	A,60
AF3E 32 27 B0       LD	(B027),A
AF41 3E 78          LD	A,78
AF43 32 40 B0       LD	(B040),A
AF46 C9             RET
- 
AF47 21 7E B1       LD	HL,B17E
AF4A 22 F7 AF       LD	(AFF7),HL
AF4D 21 9E B6       LD	HL,B69E
AF50 22 DE AF       LD	(AFDE),HL
AF53 3E 40          LD	A,40
AF55 32 27 B0       LD	(B027),A
AF58 3E 58          LD	A,58
AF5A 32 40 B0       LD	(B040),A
AF5D C9             RET
AF5E 0C             INC	C
AF5F 47             LD	B,A
AF60 21 B4 FA       LD	HL,FAB4
AF63 AF             XOR	A
AF64 32 27 90       LD	(9027),A
AF67 32 B9 AF       LD	(AFB9),A
AF6A 06 14          LD	B,14
AF6C C5             PUSH	BC
AF6D AF             XOR	A
AF6E 32 28 90       LD	(9028),A
AF71 06 20          LD	B,20
- 
AF73 C5             PUSH	BC
AF74 7E             LD	A,(HL)
AF75 E5             PUSH	HL
AF76 FE 0D          CP	0D
AF78 CC B1 AF       CALL	Z,AFB1
AF7B FE 11          CP	11
AF7D CC B1 AF       CALL	Z,AFB1
AF80 FE 15          CP	15
AF82 CC B1 AF       CALL	Z,AFB1
AF85 FE 19          CP	19
AF87 CC B1 AF       CALL	Z,AFB1
AF8A FE 1F          CP	1F
AF8C CC BC AF       CALL	Z,AFBC
AF8F FE 24          CP	24
AF91 CC D5 AF       CALL	Z,AFD5
AF94 FE 26          CP	26
AF96 CC D5 AF       CALL	Z,AFD5
AF99 FE 51          CP	51
AF9B CC B1 AF       CALL	Z,AFB1
AF9E CD DD AF       CALL	AFDD
- 
AFA1 E1             POP	HL
AFA2 23             INC	HL
AFA3 C1             POP	BC
AFA4 10 CD          DJNZ	AF73
AFA6 3A 27 90       LD	A,(9027)
AFA9 3C             INC	A
AFAA 32 27 90       LD	(9027),A
AFAD C1             POP	BC
AFAE 10 BC          DJNZ	AF6C
AFB0 C9             RET
AFB1 47             LD	B,A
AFB2 CD 9E A7       CALL	A79E
AFB5 E6 03          AND	03
AFB7 80             ADD	A,B
AFB8 C9             RET
AFB9 00             NOP
AFBA 00             NOP
AFBB 00             NOP
AFBC 3A B9 AF       LD	A,(AFB9)
AFBF A7             AND	A
- 
AFC0 CC CA AF       CALL	Z,AFCA
AFC3 3C             INC	A
AFC4 32 B9 AF       LD	(AFB9),A
AFC7 3E 1F          LD	A,1F
AFC9 C9             RET
AFCA CD 20 B0       CALL	B020
AFCD CB AA          RES	5,D
AFCF ED 53 BA AF    LD	(AFBA),DE
AFD3 AF             XOR	A
AFD4 C9             RET
AFD5 47             LD	B,A
AFD6 3A 28 90       LD	A,(9028)
AFD9 E6 01          AND	01
AFDB 80             ADD	A,B
AFDC C9             RET
AFDD 21 9E B6       LD	HL,B69E
AFE0 5F             LD	E,A
AFE1 16 00          LD	D,00
AFE3 19             ADD	HL,DE
AFE4 08             EX	AF,AF'
- 
AFE5 CD 36 B0       CALL	B036
AFE8 ED A0          LDI
AFEA 08             EX	AF,AF'
AFEB 07             RLCA
AFEC 07             RLCA
AFED 07             RLCA
AFEE 57             LD	D,A
AFEF E6 F8          AND	F8
AFF1 5F             LD	E,A
AFF2 7A             LD	A,D
AFF3 E6 07          AND	07
AFF5 57             LD	D,A
AFF6 21 7E B1       LD	HL,B17E
AFF9 19             ADD	HL,DE
AFFA CD 20 B0       CALL	B020
AFFD ED A0          LDI
AFFF 1B             DEC	DE
B000 14             INC	D
B001 ED A0          LDI
B003 1B             DEC	DE
- 
B004 14             INC	D
B005 ED A0          LDI
B007 1B             DEC	DE
B008 14             INC	D
B009 ED A0          LDI
B00B 1B             DEC	DE
B00C 14             INC	D
B00D ED A0          LDI
B00F 1B             DEC	DE
B010 14             INC	D
B011 ED A0          LDI
B013 1B             DEC	DE
B014 14             INC	D
B015 ED A0          LDI
B017 1B             DEC	DE
B018 14             INC	D
B019 ED A0          LDI
B01B 21 28 90       LD	HL,9028
B01E 34             INC	(HL)
B01F C9             RET
- 
B020 3A 27 90       LD	A,(9027)
B023 5F             LD	E,A
B024 E6 18          AND	18
B026 C6 40          ADD	A,40
B028 57             LD	D,A
B029 7B             LD	A,E
B02A E6 07          AND	07
B02C 0F             RRCA
B02D 0F             RRCA
B02E 0F             RRCA
B02F 5F             LD	E,A
B030 3A 28 90       LD	A,(9028)
B033 83             ADD	A,E
B034 5F             LD	E,A
B035 C9             RET
B036 3A 27 90       LD	A,(9027)
B039 0F             RRCA
B03A 0F             RRCA
B03B 0F             RRCA
B03C 5F             LD	E,A
- 
B03D E6 03          AND	03
B03F C6 58          ADD	A,58
B041 57             LD	D,A
B042 7B             LD	A,E
B043 E6 E0          AND	E0
B045 5F             LD	E,A
B046 3A 28 90       LD	A,(9028)
B049 83             ADD	A,E
B04A 5F             LD	E,A
B04B C9             RET
B04C 02             LD	(BC),A
B04D 20 F0          JR	NZ,B03F
B04F 04             INC	B
B050 30 F0          JR	NC,B042
B052 04             INC	B
B053 60             LD	H,B
B054 B8             CP	B
B055 00             NOP
B056 48             LD	C,B
B057 C8             RET	Z
- 
B058 00             NOP
B059 88             ADC	A,B
B05A 30 05          JR	NC,B061
B05C 58             LD	E,B
B05D 18 05          JR	B064
B05F 58             LD	E,B
B060 80             ADD	A,B
B061 08             EX	AF,AF'
B062 10 08          DJNZ	B06C
B064 08             EX	AF,AF'
B065 10 F0          DJNZ	B057
B067 09             ADD	HL,BC
B068 68             LD	L,B
B069 30 0A          JR	NC,B075
B06B 20 D8          JR	NZ,B045
B06D 0B             DEC	BC
B06E 00             NOP
B06F 38 0C          JR 	C,B07D
B071 10 C8          DJNZ	B03B
B073 0C             INC	C
- 
B074 20 18          JR	NZ,B08E
B076 0D             DEC	C
B077 78             LD	A,B
B078 10 0D          DJNZ	B087
B07A 78             LD	A,B
B07B E8             RET	PE
B07C 0E 08          LD	C,08
B07E 08             EX	AF,AF'
B07F 0E 20          LD	C,20
B081 08             EX	AF,AF'
B082 0E 38          LD	C,38
B084 08             EX	AF,AF'
B085 0E 50          LD	C,50
B087 08             EX	AF,AF'
B088 0E 68          LD	C,68
B08A 08             EX	AF,AF'
B08B 0F             RRCA
B08C 08             EX	AF,AF'
B08D 08             EX	AF,AF'
B08E 0F             RRCA
- 
B08F 38 08          JR 	C,B099
B091 0F             RRCA
B092 70             LD	(HL),B
B093 30 11          JR	NC,B0A6
B095 70             LD	(HL),B
B096 08             EX	AF,AF'
B097 13             INC	DE
B098 20 28          JR	NZ,B0C2
B09A 13             INC	DE
B09B 60             LD	H,B
B09C E0             RET	PO
B09D 14             INC	D
B09E 10 20          DJNZ	B0C0
B0A0 16 10          LD	D,10
B0A2 18 16          JR	B0BA
B0A4 10 E0          DJNZ	B086
B0A6 17             RLA
B0A7 20 E0          JR	NZ,B089
B0A9 18 50          JR	B0FB
B0AB 10 18          DJNZ	B0C5
- 
B0AD 50             LD	D,B
B0AE C8             RET	Z
B0AF 19             ADD	HL,DE
B0B0 08             EX	AF,AF'
B0B1 B0             OR	B
B0B2 19             ADD	HL,DE
B0B3 50             LD	D,B
B0B4 20 1A          JR	NZ,B0D0
B0B6 48             LD	C,B
B0B7 08             EX	AF,AF'
B0B8 1A             LD	A,(DE)
B0B9 50             LD	D,B
B0BA F0             RET	P
B0BB 1B             DEC	DE
B0BC 40             LD	B,B
B0BD 80             ADD	A,B
B0BE 1C             INC	E
B0BF 38 18          JR 	C,B0D9
B0C1 1C             INC	E
B0C2 08             EX	AF,AF'
- 
B0C3 F0             RET	P
B0C4 1D             DEC	E
B0C5 08             EX	AF,AF'
B0C6 68             LD	L,B
B0C7 1D             DEC	E
B0C8 50             LD	D,B
B0C9 08             EX	AF,AF'
B0CA 1E 60          LD	E,60
B0CC 90             SUB	B
B0CD 1E 10          LD	E,10
B0CF 10 20          DJNZ	B0F1
B0D1 20 D0          JR	NZ,B0A3
B0D3 21 30 30       LD	HL,3030
B0D6 23             INC	HL
B0D7 08             EX	AF,AF'
B0D8 68             LD	L,B
B0D9 24             INC	H
B0DA 28 B0          JR	Z,B08C
B0DC 25             DEC	H
B0DD 38 08          JR 	C,B0E7
- 
B0DF 28 08          JR	Z,B0E9
B0E1 D8             RET	C
B0E2 29             ADD	HL,HL
B0E3 78             LD	A,B
B0E4 08             EX	AF,AF'
B0E5 2B             DEC	HL
B0E6 08             EX	AF,AF'
B0E7 08             EX	AF,AF'
B0E8 2C             INC	L
B0E9 68             LD	L,B
B0EA E8             RET	PE
B0EB 2C             INC	L
B0EC 78             LD	A,B
B0ED 40             LD	B,B
B0EE 2E 18          LD	L,18
B0F0 18 30          JR	B122
B0F2 10 F0          DJNZ	B0E4
B0F4 32 88 88       LD	(8888),A
B0F7 33             INC	SP
B0F8 78             LD	A,B
- 
B0F9 68             LD	L,B
B0FA 34             INC	(HL)
B0FB 08             EX	AF,AF'
B0FC 50             LD	D,B
B0FD 34             INC	(HL)
B0FE 78             LD	A,B
B0FF 08             EX	AF,AF'
B100 34             INC	(HL)
B101 78             LD	A,B
B102 B8             CP	B
B103 35             DEC	(HL)
B104 80             ADD	A,B
B105 F0             RET	P
B106 35             DEC	(HL)
B107 08             EX	AF,AF'
B108 F0             RET	P
B109 36 08          LD	(HL),08
B10B 30 37          JR	NC,B144
B10D 38 40          JR 	C,B14F
B10F 38 38          JR 	C,B149
- 
B111 10 39          DJNZ	B14C
B113 38 10          JR 	C,B125
B115 39             ADD	HL,SP
B116 40             LD	B,B
B117 D0             RET	NC
B118 3A 08 90       LD	A,(9008)
B11B 3B             DEC 	SP
B11C 48             LD	C,B
B11D 68             LD	L,B
B11E 3D             DEC	A
B11F 70             LD	(HL),B
B120 98             SBC	A,B
B121 3E 70          LD	A,70
B123 F0             RET	P
B124 3F             CCF
B125 08             EX	AF,AF'
B126 88             ADC	A,B
B127 40             LD	B,B
B128 08             EX	AF,AF'
B129 50             LD	D,B
- 
B12A 41             LD	B,C
B12B 08             EX	AF,AF'
B12C 08             EX	AF,AF'
B12D 42             LD	B,D
B12E 60             LD	H,B
B12F E8             RET	PE
B130 47             LD	B,A
B131 08             EX	AF,AF'
B132 58             LD	E,B
B133 48             LD	C,B
B134 48             LD	C,B
B135 08             EX	AF,AF'
B136 4A             LD	C,D
B137 40             LD	B,B
B138 A0             AND	B
B139 4A             LD	C,D
B13A 80             ADD	A,B
B13B E8             RET	PE
B13C 4B             LD	C,E
B13D 08             EX	AF,AF'
- 
B13E F0             RET	P
B13F 4B             LD	C,E
B140 78             LD	A,B
B141 10 4B          DJNZ	B18E
B143 30 28          JR	NC,B16D
B145 4C             LD	C,H
B146 30 10          JR	NC,B158
B148 4C             LD	C,H
B149 08             EX	AF,AF'
B14A E0             RET	PO
B14B 4D             LD	C,L
B14C 58             LD	E,B
B14D 10 4F          DJNZ	B19E
B14F 48             LD	C,B
B150 78             LD	A,B
B151 50             LD	D,B
B152 20 30          JR	NZ,B184
B154 51             LD	D,C
B155 78             LD	A,B
B156 E8             RET	PE
- 
B157 52             LD	D,D
B158 68             LD	L,B
B159 F8             RET	M
B15A 53             LD	D,E
B15B 58             LD	E,B
B15C 20 55          JR	NZ,B1B3
B15E 58             LD	E,B
B15F A0             AND	B
B160 57             LD	D,A
B161 38 80          JR 	C,B0E3
B163 29             ADD	HL,HL
B164 08             EX	AF,AF'
B165 D0             RET	NC
B166 2A 60 08       LD	HL,(0860)
B169 2E 70          LD	L,70
B16B E8             RET	PE
B16C 38 48          JR 	C,B1B6
B16E 60             LD	H,B
B16F 3C             INC	A
B170 68             LD	L,B
- 
B171 18 41          JR	B1B4
B173 08             EX	AF,AF'
B174 F0             RET	P
B175 46             LD	B,(HL)
B176 50             LD	D,B
B177 10 51          DJNZ	B1CA
B179 30 10          JR	NC,B18B
B17B 54             LD	D,H
B17C 40             LD	B,B
B17D 10 00          DJNZ	B17F
B17F 00             NOP
B180 00             NOP
B181 00             NOP
B182 00             NOP
B183 00             NOP
B184 00             NOP
B185 00             NOP
B186 11 11 01       LD	DE,0111
B189 C7             RST	00
B18A 01 11 11       LD	BC,1111
- 
B18D FF             RST	38
B18E 00             NOP
B18F 2A 54 2A       LD	HL,(2A54)
B192 54             LD	D,H
B193 2A 54 00       LD	HL,(0054)
B196 01 FF 10       LD	BC,10FF
B199 FF             RST	38
B19A 01 FF 10       LD	BC,10FF
B19D FF             RST	38
B19E 10 10          DJNZ	B1B0
B1A0 10 FF          DJNZ	B1A1
B1A2 80             ADD	A,B
B1A3 80             ADD	A,B
B1A4 80             ADD	A,B
B1A5 FF             RST	38
B1A6 AB             XOR	E
B1A7 55             LD	D,L
B1A8 AB             XOR	E
B1A9 FF             RST	38
B1AA BA             CP	D
- 
B1AB 55             LD	D,L
B1AC BA             CP	D
B1AD FF             RST	38
B1AE 55             LD	D,L
B1AF 00             NOP
B1B0 AA             XOR	D
B1B1 FF             RST	38
B1B2 FF             RST	38
B1B3 FF             RST	38
B1B4 FF             RST	38
B1B5 FF             RST	38
B1B6 F9             LD	SP,HL
B1B7 F3             DI
B1B8 E7             RST	20
B1B9 00             NOP
B1BA 00             NOP
B1BB 00             NOP
B1BC 00             NOP
B1BD 00             NOP
B1BE FF             RST	38
- 
B1BF FF             RST	38
B1C0 7C             LD	A,H
B1C1 38 10          JR 	C,B1D3
B1C3 00             NOP
B1C4 00             NOP
B1C5 00             NOP
B1C6 FF             RST	38
B1C7 00             NOP
B1C8 00             NOP
B1C9 00             NOP
B1CA FF             RST	38
B1CB 00             NOP
B1CC 00             NOP
B1CD 00             NOP
B1CE 00             NOP
B1CF 01 00 07       LD	BC,0700
B1D2 00             NOP
B1D3 1F             RRA
B1D4 00             NOP
B1D5 7F             LD	A,A
- 
B1D6 7A             LD	A,D
B1D7 38 30          JR 	C,B209
B1D9 10 00          DJNZ	B1DB
B1DB 10 00          DJNZ	B1DD
B1DD 10 7E          DJNZ	B25D
B1DF 1C             INC	E
B1E0 18 08          JR	B1EA
B1E2 08             EX	AF,AF'
B1E3 00             NOP
B1E4 08             EX	AF,AF'
B1E5 00             NOP
B1E6 6D             LD	L,L
B1E7 37             SCF
B1E8 B2             OR	D
B1E9 9B             SBC	A,E
B1EA D2 D6 56       JP	NC,56D6
B1ED 5C             LD	E,H
B1EE DD 17          RLA
B1F0 93             SUB	E
B1F1 BB             CP	E
- 
B1F2 89             ADC	A,C
B1F3 A5             AND	L
B1F4 A5             AND	L
B1F5 EF             RST	28
B1F6 14             INC	D
B1F7 9D             SBC	A,L
B1F8 BB             CP	E
B1F9 B2             OR	D
B1FA B1             OR	C
B1FB 99             SBC	A,C
B1FC CC 6C 6B       CALL	Z,6B6C
B1FF 69             LD	L,C
B200 A8             XOR	B
B201 BE             CP	(HL)
B202 AE             XOR	(HL)
B203 EC CD D9       CALL	PE,D9CD
B206 D7             RST	10
B207 F3             DI
B208 F5             PUSH	AF
B209 00             NOP
- 
B20A 3F             CCF
B20B 7F             LD	A,A
B20C 2F             CPL
B20D 00             NOP
B20E F7             RST	30
B20F B7             OR	A
B210 E5             PUSH	HL
B211 00             NOP
B212 7F             LD	A,A
B213 3F             CCF
B214 5B             LD	E,E
B215 00             NOP
B216 B5             OR	L
B217 F7             RST	30
B218 F2 00 7F       JP	P,7F00
B21B 7F             LD	A,A
B21C 35             DEC	(HL)
B21D 00             NOP
B21E F7             RST	30
B21F F3             DI
- 
B220 B7             OR	A
B221 00             NOP
B222 7F             LD	A,A
B223 7F             LD	A,A
B224 55             LD	D,L
B225 00             NOP
B226 6E             LD	L,(HL)
B227 FB             EI
B228 5F             LD	E,A
B229 FB             EI
B22A 6A             LD	L,D
B22B 28 22          JR	Z,B24F
B22D 00             NOP
B22E FB             EI
B22F DF             RST	18
B230 7A             LD	A,D
B231 EF             RST	28
B232 45             LD	B,L
B233 44             LD	B,H
B234 01 00 EE       LD	BC,EE00
- 
B237 BF             CP	A
B238 F7             RST	30
B239 D3 41          OUT	(41),A
B23B 51             LD	D,C
B23C 01 00 EE       LD	BC,EE00
B23F FF             RST	38
B240 7B             LD	A,E
B241 DF             RST	18
B242 55             LD	D,L
B243 10 04          DJNZ	B249
B245 00             NOP
B246 82             ADD	A,D
B247 FE FE          CP	FE
B249 FE FE          CP	FE
B24B FE 7C          CP	7C
B24D 38 82          JR 	C,B1D1
B24F FE FE          CP	FE
B251 FE FE          CP	FE
B253 FE 7C          CP	7C
B255 38 82          JR 	C,B1D9
- 
B257 FE FE          CP	FE
B259 FE FE          CP	FE
B25B FE 7C          CP	7C
B25D 38 82          JR 	C,B1E1
B25F FE FE          CP	FE
B261 FE FE          CP	FE
B263 FE 7C          CP	7C
B265 38 FF          JR 	C,B266
B267 FF             RST	38
B268 66             LD	H,(HL)
B269 3C             INC	A
B26A 18 00          JR	B26C
B26C 00             NOP
B26D 00             NOP
B26E C9             RET
B26F 6B             LD	L,E
B270 36 DC          LD	(HL),DC
B272 3B             DEC 	SP
B273 6C             LD	L,H
B274 D6 93          SUB	93
- 
B276 B4             OR	H
B277 00             NOP
B278 00             NOP
B279 00             NOP
B27A 00             NOP
B27B 00             NOP
B27C 00             NOP
B27D 00             NOP
B27E 00             NOP
B27F 00             NOP
B280 00             NOP
B281 00             NOP
B282 00             NOP
B283 00             NOP
B284 00             NOP
B285 00             NOP
B286 70             LD	(HL),B
B287 80             ADD	A,B
B288 80             ADD	A,B
B289 80             ADD	A,B
- 
B28A 07             RLCA
B28B 08             EX	AF,AF'
B28C 08             EX	AF,AF'
B28D 08             EX	AF,AF'
B28E FF             RST	38
B28F 44             LD	B,H
B290 EE BB          XOR	BB
B292 11 FF 00       LD	DE,00FF
B295 00             NOP
B296 60             LD	H,B
B297 F0             RET	P
B298 F0             RET	P
B299 60             LD	H,B
B29A 06 0F          LD	B,0F
B29C 0F             RRCA
B29D 06 00          LD	B,00
B29F 00             NOP
B2A0 00             NOP
B2A1 00             NOP
B2A2 00             NOP
- 
B2A3 00             NOP
B2A4 00             NOP
B2A5 00             NOP
B2A6 00             NOP
B2A7 00             NOP
B2A8 00             NOP
B2A9 00             NOP
B2AA 00             NOP
B2AB 00             NOP
B2AC 00             NOP
B2AD 00             NOP
B2AE FF             RST	38
B2AF FF             RST	38
B2B0 FF             RST	38
B2B1 FF             RST	38
B2B2 FF             RST	38
B2B3 7F             LD	A,A
B2B4 3E 08          LD	A,08
B2B6 FF             RST	38
B2B7 FF             RST	38
- 
B2B8 FF             RST	38
B2B9 FF             RST	38
B2BA FF             RST	38
B2BB 7F             LD	A,A
B2BC 3E 08          LD	A,08
B2BE 00             NOP
B2BF 00             NOP
B2C0 00             NOP
B2C1 00             NOP
B2C2 00             NOP
B2C3 00             NOP
B2C4 00             NOP
B2C5 00             NOP
B2C6 00             NOP
B2C7 00             NOP
B2C8 00             NOP
B2C9 00             NOP
B2CA 00             NOP
B2CB 00             NOP
B2CC 00             NOP
- 
B2CD 00             NOP
B2CE 1F             RRA
B2CF 2A 56 40       LD	HL,(4056)
B2D2 80             ADD	A,B
B2D3 B6             OR	(HL)
B2D4 B6             OR	(HL)
B2D5 B6             OR	(HL)
B2D6 F0             RET	P
B2D7 A8             XOR	B
B2D8 D4 04 02       CALL	NC,0204
B2DB DA DA DA       JP	C,DADA
B2DE B6             OR	(HL)
B2DF B6             OR	(HL)
B2E0 B6             OR	(HL)
B2E1 80             ADD	A,B
B2E2 40             LD	B,B
B2E3 56             LD	D,(HL)
B2E4 2A 1F DA       LD	HL,(DA1F)
B2E7 DA DA 02       JP	C,02DA
B2EA 04             INC	B
- 
B2EB D4 A8 F0       CALL	NC,F0A8
B2EE FF             RST	38
B2EF FF             RST	38
B2F0 FF             RST	38
B2F1 AA             XOR	D
B2F2 00             NOP
B2F3 FF             RST	38
B2F4 00             NOP
B2F5 00             NOP
B2F6 FF             RST	38
B2F7 FF             RST	38
B2F8 FF             RST	38
B2F9 55             LD	D,L
B2FA 00             NOP
B2FB FF             RST	38
B2FC 00             NOP
B2FD 00             NOP
B2FE 00             NOP
B2FF 00             NOP
B300 00             NOP
- 
B301 00             NOP
B302 00             NOP
B303 01 01 03       LD	BC,0301
B306 00             NOP
B307 00             NOP
B308 18 7E          JR	B388
B30A C3 A5 24       JP	24A5
B30D 24             INC	H
B30E 00             NOP
B30F 00             NOP
B310 00             NOP
B311 00             NOP
B312 00             NOP
B313 80             ADD	A,B
B314 80             ADD	A,B
B315 C0             RET	NZ
B316 02             LD	(BC),A
B317 00             NOP
B318 FF             RST	38
B319 FF             RST	38
- 
B31A FF             RST	38
B31B FF             RST	38
B31C FF             RST	38
B31D FF             RST	38
B31E 24             INC	H
B31F 00             NOP
B320 FF             RST	38
B321 FF             RST	38
B322 FF             RST	38
B323 FF             RST	38
B324 FF             RST	38
B325 FF             RST	38
B326 40             LD	B,B
B327 00             NOP
B328 FF             RST	38
B329 FF             RST	38
B32A FF             RST	38
B32B FF             RST	38
B32C FF             RST	38
B32D FF             RST	38
- 
B32E FF             RST	38
B32F CC 00 06       CALL	Z,0600
B332 04             INC	B
B333 01 03 07       LD	BC,0703
B336 FF             RST	38
B337 DB 18          IN A,(18)
B339 7E             LD	A,(HL)
B33A FF             RST	38
B33B 99             SBC	A,C
B33C 18 BD          JR	B2FB
B33E FF             RST	38
B33F 33             INC	SP
B340 00             NOP
B341 60             LD	H,B
B342 20 80          JR	NZ,B2C4
B344 C0             RET	NZ
B345 E0             RET	PO
B346 05             DEC	B
B347 02             LD	(BC),A
B348 04             INC	B
- 
B349 08             EX	AF,AF'
B34A 10 20          DJNZ	B36C
B34C 50             LD	D,B
B34D 88             ADC	A,B
B34E AA             XOR	D
B34F FF             RST	38
B350 AA             XOR	D
B351 88             ADC	A,B
B352 22 88 00       LD	(0088),HL
B355 00             NOP
B356 78             LD	A,B
B357 3C             INC	A
B358 1E 0F          LD	E,0F
B35A 1E 3C          LD	E,3C
B35C 78             LD	A,B
B35D F0             RET	P
B35E 60             LD	H,B
B35F F6 F6          OR	F6
B361 60             LD	H,B
B362 06 6F          LD	B,6F
- 
B364 6F             LD	L,A
B365 06 FF          LD	B,FF
B367 FF             RST	38
B368 00             NOP
B369 18 3C          JR	B3A7
B36B 3C             INC	A
B36C 18 00          JR	B36E
B36E 0F             RRCA
B36F 0F             RRCA
B370 0F             RRCA
B371 0F             RRCA
B372 F0             RET	P
B373 F0             RET	P
B374 F0             RET	P
B375 F0             RET	P
B376 00             NOP
B377 00             NOP
B378 00             NOP
B379 73             LD	(HL),E
B37A 84             ADD	A,H
- 
B37B B4             OR	H
B37C 94             SUB	H
B37D 73             LD	(HL),E
B37E 00             NOP
B37F 00             NOP
B380 00             NOP
B381 19             ADD	HL,DE
B382 A5             AND	L
B383 A5             AND	L
B384 A5             AND	L
B385 19             ADD	HL,DE
B386 00             NOP
B387 00             NOP
B388 00             NOP
B389 87             ADD	A,A
B38A 48             LD	C,B
B38B 26 21          LD	H,21
B38D CE 00          ADC	A,00
B38F 00             NOP
B390 03             INC	BC
- 
B391 04             INC	B
B392 04             INC	B
B393 04             INC	B
B394 03             INC	BC
B395 00             NOP
B396 00             NOP
B397 00             NOP
B398 25             DEC	H
B399 A4             AND	H
B39A A4             AND	H
B39B A4             AND	H
B39C 18 00          JR	B39E
B39E 00             NOP
B39F 00             NOP
B3A0 F0             RET	P
B3A1 40             LD	B,B
B3A2 40             LD	B,B
B3A3 40             LD	B,B
B3A4 40             LD	B,B
B3A5 00             NOP
- 
B3A6 00             NOP
B3A7 03             INC	BC
B3A8 0E 3F          LD	C,3F
B3AA 0E 03          LD	C,03
B3AC 00             NOP
B3AD 00             NOP
B3AE 00             NOP
B3AF 00             NOP
B3B0 00             NOP
B3B1 FF             RST	38
B3B2 00             NOP
B3B3 00             NOP
B3B4 00             NOP
B3B5 00             NOP
B3B6 00             NOP
B3B7 6C             LD	L,H
B3B8 D8             RET	C
B3B9 F0             RET	P
B3BA D8             RET	C
B3BB 6C             LD	L,H
- 
B3BC 00             NOP
B3BD 00             NOP
B3BE 3C             INC	A
B3BF 3C             INC	A
B3C0 66             LD	H,(HL)
B3C1 66             LD	H,(HL)
B3C2 C3 C3 81       JP	81C3
B3C5 81             ADD	A,C
B3C6 81             ADD	A,C
B3C7 81             ADD	A,C
B3C8 C3 C3 66       JP	66C3
B3CB 66             LD	H,(HL)
B3CC 3C             INC	A
B3CD 3C             INC	A
B3CE 0F             RRCA
B3CF 30 47          JR	NC,B418
B3D1 0F             RRCA
B3D2 5F             LD	E,A
B3D3 59             LD	E,C
B3D4 B4             OR	H
- 
B3D5 D6 F0          SUB	F0
B3D7 0C             INC	C
B3D8 E2 F0 FA       JP	PO,FAF0
B3DB 9A             SBC	A,D
B3DC 4D             LD	C,L
B3DD 6B             LD	L,E
B3DE 39             ADD	HL,SP
B3DF 7F             LD	A,A
B3E0 7F             LD	A,A
B3E1 7F             LD	A,A
B3E2 38 3F          JR 	C,B423
B3E4 1E 07          LD	E,07
B3E6 9C             SBC	A,H
B3E7 FE FE          CP	FE
B3E9 FE 1C          CP	1C
B3EB FC 78 E0       CALL	M,E078
B3EE 10 37          DJNZ	B427
B3F0 6F             LD	L,A
B3F1 6F             LD	L,A
B3F2 41             LD	B,C
- 
B3F3 0C             INC	C
B3F4 1E 1E          LD	E,1E
B3F6 08             EX	AF,AF'
B3F7 EC F6 F6       CALL	PE,F6F6
B3FA 82             ADD	A,D
B3FB 30 78          JR	NC,B475
B3FD 78             LD	A,B
B3FE BB             CP	E
B3FF BB             CP	E
B400 38 00          JR 	C,B402
B402 00             NOP
B403 00             NOP
B404 00             NOP
B405 00             NOP
B406 A6             AND	(HL)
B407 EF             RST	28
B408 FF             RST	38
B409 FF             RST	38
B40A F3             DI
B40B B5             OR	L
- 
B40C 25             DEC	H
B40D 00             NOP
B40E 57             LD	D,A
B40F DF             RST	18
B410 FF             RST	38
B411 FF             RST	38
B412 FF             RST	38
B413 6B             LD	L,E
B414 62             LD	H,D
B415 00             NOP
B416 E9             JP	(HL)
B417 FD BF          CP	A
B419 BE             CP	(HL)
B41A 8A             ADC	A,D
B41B 22 20 00       LD	(0020),HL ; LD	(NEXT_CHAR),HL
B41E 35             DEC	(HL)
B41F FF             RST	38
B420 FF             RST	38
B421 EB             EX	DE,HL
B422 EA A2 08       JP	PE,08A2
- 
B425 00             NOP
B426 FF             RST	38
B427 FE 7D          CP	7D
B429 AA             XOR	D
B42A 54             LD	D,H
B42B 28 00          JR	Z,B42D
B42D 00             NOP
B42E 0C             INC	C
B42F 1C             INC	E
B430 3C             INC	A
B431 3E 7E          LD	A,7E
B433 7E             LD	A,(HL)
B434 7F             LD	A,A
B435 FF             RST	38
B436 01 00 00       LD	BC,0000 ; LD	BC,START
B439 00             NOP
B43A 00             NOP
B43B 00             NOP
B43C 00             NOP
B43D 80             ADD	A,B
- 
B43E E0             RET	PO
B43F F8             RET	M
B440 77             LD	(HL),A
B441 3B             DEC 	SP
B442 1D             DEC	E
B443 0E 67          LD	C,67
B445 7C             LD	A,H
B446 00             NOP
B447 00             NOP
B448 00             NOP
B449 80             ADD	A,B
B44A C0             RET	NZ
B44B 30 F8          JR	NC,B445
B44D FC E3 DD       CALL	M,DDE3
B450 BE             CP	(HL)
B451 7F             LD	A,A
B452 7F             LD	A,A
B453 7F             LD	A,A
B454 3E 1C          LD	A,1C
B456 C0             RET	NZ
- 
B457 FF             RST	38
B458 FF             RST	38
B459 7F             LD	A,A
B45A 7F             LD	A,A
B45B 7F             LD	A,A
B45C 00             NOP
B45D 00             NOP
B45E 1F             RRA
B45F FF             RST	38
B460 FF             RST	38
B461 FE F9          CP	F9
B463 E3             EX	(SP),HL
B464 01 00 FE       LD	BC,FE00
B467 FE 80          CP	80
B469 78             LD	A,B
B46A F8             RET	M
B46B F8             RET	M
B46C F0             RET	P
B46D E0             RET	PO
B46E 0E 1E          LD	C,1E
- 
B470 1E 1E          LD	E,1E
B472 1E 1E          LD	E,1E
B474 1E 0E          LD	E,0E
B476 F0             RET	P
B477 FF             RST	38
B478 C3 87 0F       JP	0F87
B47B 1E 00          LD	E,00
B47D 78             LD	A,B
B47E F0             RET	P
B47F 96             SUB	(HL)
B480 96             SUB	(HL)
B481 F0             RET	P
B482 0F             RRCA
B483 69             LD	L,C
B484 69             LD	L,C
B485 0F             RRCA
B486 E0             RET	PO
B487 A0             AND	B
B488 E0             RET	PO
B489 A3             AND	E
- 
B48A E3             EX	(SP),HL
B48B A3             AND	E
B48C E3             EX	(SP),HL
B48D A7             AND	A
B48E 7E             LD	A,(HL)
B48F 7E             LD	A,(HL)
B490 7E             LD	A,(HL)
B491 7E             LD	A,(HL)
B492 7E             LD	A,(HL)
B493 7E             LD	A,(HL)
B494 7E             LD	A,(HL)
B495 7E             LD	A,(HL)
B496 00             NOP
B497 1E 12          LD	E,12
B499 1E 1E          LD	E,1E
B49B DE DE          SBC	A,DE
B49D DE E6          SBC	A,E6
B49F A6             AND	(HL)
B4A0 E6 AE          AND	AE
B4A2 EC AC EC       CALL	PE,ECAC
- 
B4A5 00             NOP
B4A6 7E             LD	A,(HL)
B4A7 7E             LD	A,(HL)
B4A8 7E             LD	A,(HL)
B4A9 7E             LD	A,(HL)
B4AA 42             LD	B,D
B4AB 42             LD	B,D
B4AC 7E             LD	A,(HL)
B4AD 00             NOP
B4AE DE DE          SBC	A,DE
B4B0 DE DE          SBC	A,DE
B4B2 DE D2          SBC	A,D2
B4B4 DE 00          SBC	A,00
B4B6 FF             RST	38
B4B7 FF             RST	38
B4B8 00             NOP
B4B9 18 18          JR	B4D3
B4BB 18 18          JR	B4D5
B4BD 00             NOP
B4BE FF             RST	38
- 
B4BF FF             RST	38
B4C0 00             NOP
B4C1 00             NOP
B4C2 00             NOP
B4C3 00             NOP
B4C4 00             NOP
B4C5 00             NOP
B4C6 03             INC	BC
B4C7 07             RLCA
B4C8 CF             RST	08
B4C9 DF             RST	18
B4CA DF             RST	18
B4CB CF             RST	08
B4CC 07             RLCA
B4CD 03             INC	BC
B4CE E0             RET	PO
B4CF E0             RET	PO
B4D0 E0             RET	PO
B4D1 EC EC EC       CALL	PE,ECEC
B4D4 EC EE 70       CALL	PE,70EE
- 
B4D7 70             LD	(HL),B
B4D8 76             HALT
B4D9 76             HALT
B4DA 76             HALT
B4DB 76             HALT
B4DC 76             HALT
B4DD 76             HALT
B4DE F0             RET	P
B4DF 96             SUB	(HL)
B4E0 F6 F6          OR	F6
B4E2 F6 F6          OR	F6
B4E4 F6 F6          OR	F6
B4E6 E6 E6          AND	E6
B4E8 E6 E7          AND	E7
B4EA E3             EX	(SP),HL
B4EB E3             EX	(SP),HL
B4EC E3             EX	(SP),HL
B4ED 00             NOP
B4EE 76             HALT
B4EF 76             HALT
- 
B4F0 76             HALT
B4F1 76             HALT
B4F2 76             HALT
B4F3 76             HALT
B4F4 76             HALT
B4F5 00             NOP
B4F6 F6 F6          OR	F6
B4F8 F6 F6          OR	F6
B4FA F6 96          OR	96
B4FC F6 00          OR	00
B4FE FE FE          CP	FE
B500 FE 00          CP	00
B502 BB             CP	E
B503 BB             CP	E
B504 BB             CP	E
B505 00             NOP
B506 7E             LD	A,(HL)
B507 7E             LD	A,(HL)
B508 7E             LD	A,(HL)
B509 7E             LD	A,(HL)
- 
B50A 7E             LD	A,(HL)
B50B 7E             LD	A,(HL)
B50C 7E             LD	A,(HL)
B50D 7E             LD	A,(HL)
B50E 00             NOP
B50F 40             LD	B,B
B510 00             NOP
B511 1E 3E          LD	E,3E
B513 20 3E          JR	NZ,B553
B515 1E 00          LD	E,00
B517 02             LD	(BC),A
B518 00             NOP
B519 00             NOP
B51A 00             NOP
B51B 20 30          JR	NZ,B54D
B51D F8             RET	M
B51E 00             NOP
B51F 3E 3E          LD	A,3E
B521 0A             LD	A,(BC)
B522 0E 04          LD	C,04
- 
B524 40             LD	B,B
B525 00             NOP
B526 FC F8 30       CALL	M,30F8
B529 20 00          JR	NZ,B52B
B52B 00             NOP
B52C 02             LD	(BC),A
B52D 00             NOP
B52E C0             RET	NZ
B52F 80             ADD	A,B
B530 00             NOP
B531 00             NOP
B532 00             NOP
B533 00             NOP
B534 00             NOP
B535 FF             RST	38
B536 03             INC	BC
B537 01 00 00       LD	BC,0000 ; LD	BC,START
B53A 80             ADD	A,B
B53B 80             ADD	A,B
B53C 00             NOP
- 
B53D FF             RST	38
B53E 20 20          JR	NZ,B560
B540 3F             CCF
B541 20 20          JR	NZ,B563
B543 3F             CCF
B544 20 20          JR	NZ,B566
B546 04             INC	B
B547 04             INC	B
B548 FC 04 04       CALL	M,0404
B54B FC 04 04       CALL	M,0404
B54E 20 F8          JR	NZ,B548
B550 FF             RST	38
B551 FF             RST	38
B552 FF             RST	38
B553 FF             RST	38
B554 FF             RST	38
B555 FF             RST	38
B556 BB             CP	E
B557 7C             LD	A,H
B558 FE FE          CP	FE
- 
B55A FE 7C          CP	7C
B55C BB             CP	E
B55D 83             ADD	A,E
B55E F8             RET	M
B55F FF             RST	38
B560 6F             LD	L,A
B561 66             LD	H,(HL)
B562 26 04          LD	H,04
B564 00             NOP
B565 00             NOP
B566 FF             RST	38
B567 80             ADD	A,B
B568 BF             CP	A
B569 BF             CP	A
B56A BF             CP	A
B56B BF             CP	A
B56C BC             CP	H
B56D BF             CP	A
B56E FF             RST	38
B56F 01 FD FD       LD	BC,FDFD
- 
B572 FD             ???
B573 FD 3D          DEC	A
B575 FD 80          ADD	A,B
B577 BF             CP	A
B578 BF             CP	A
B579 BF             CP	A
B57A BF             CP	A
B57B BC             CP	H
B57C BF             CP	A
B57D 80             ADD	A,B
B57E 01 FD FD       LD	BC,FDFD
B581 FD             ???
B582 FD 3D          DEC	A
B584 FD 01 BF BF    LD	BC,BFBF
B588 BF             CP	A
B589 BF             CP	A
B58A BC             CP	H
B58B BF             CP	A
B58C 80             ADD	A,B
B58D FF             RST	38
- 
B58E FD             ???
B58F FD             ???
B590 FD             ???
B591 FD 3D          DEC	A
B593 FD 01 FF 07    LD	BC,07FF
B597 1F             RRA
B598 78             LD	A,B
B599 F1             POP	AF
B59A F2 FC F9       JP	P,F9FC
B59D F8             RET	M
B59E E0             RET	PO
B59F F8             RET	M
B5A0 1E 8F          LD	E,8F
B5A2 4F             LD	C,A
B5A3 3F             CCF
B5A4 9F             SBC	A,A
B5A5 1F             RRA
B5A6 FF             RST	38
B5A7 C0             RET	NZ
B5A8 C0             RET	NZ
- 
B5A9 C0             RET	NZ
B5AA FF             RST	38
B5AB FF             RST	38
B5AC C0             RET	NZ
B5AD C0             RET	NZ
B5AE FF             RST	38
B5AF 03             INC	BC
B5B0 03             INC	BC
B5B1 03             INC	BC
B5B2 FF             RST	38
B5B3 FF             RST	38
B5B4 03             INC	BC
B5B5 05             DEC	B
B5B6 C0             RET	NZ
B5B7 FF             RST	38
B5B8 FF             RST	38
B5B9 C0             RET	NZ
B5BA C0             RET	NZ
B5BB C0             RET	NZ
B5BC FF             RST	38
- 
B5BD FF             RST	38
B5BE 03             INC	BC
B5BF FF             RST	38
B5C0 FF             RST	38
B5C1 03             INC	BC
B5C2 03             INC	BC
B5C3 03             INC	BC
B5C4 FF             RST	38
B5C5 FF             RST	38
B5C6 E4 EE 6A       CALL	PO,6AEE
B5C9 60             LD	H,B
B5CA 00             NOP
B5CB 00             NOP
B5CC 00             NOP
B5CD 00             NOP
B5CE 01 07 0F       LD	BC,0F07
B5D1 1F             RRA
B5D2 1F             RRA
B5D3 3F             CCF
B5D4 3F             CCF
- 
B5D5 1F             RRA
B5D6 80             ADD	A,B
B5D7 E0             RET	PO
B5D8 F0             RET	P
B5D9 F8             RET	M
B5DA F8             RET	M
B5DB FC FC F8       CALL	M,F8FC
B5DE 1F             RRA
B5DF 0F             RRCA
B5E0 07             RLCA
B5E1 01 00 00       LD	BC,0000 ; LD	BC,START
B5E4 00             NOP
B5E5 00             NOP
B5E6 F8             RET	M
B5E7 F0             RET	P
B5E8 E0             RET	PO
B5E9 80             ADD	A,B
B5EA 00             NOP
B5EB 80             ADD	A,B
B5EC 80             ADD	A,B
- 
B5ED 80             ADD	A,B
B5EE 03             INC	BC
B5EF 03             INC	BC
B5F0 03             INC	BC
B5F1 03             INC	BC
B5F2 00             NOP
B5F3 00             NOP
B5F4 00             NOP
B5F5 00             NOP
B5F6 C0             RET	NZ
B5F7 C0             RET	NZ
B5F8 C0             RET	NZ
B5F9 C0             RET	NZ
B5FA 80             ADD	A,B
B5FB 80             ADD	A,B
B5FC 80             ADD	A,B
B5FD 80             ADD	A,B
B5FE 00             NOP
B5FF 00             NOP
B600 03             INC	BC
- 
B601 03             INC	BC
B602 03             INC	BC
B603 03             INC	BC
B604 3F             CCF
B605 3F             CCF
B606 00             NOP
B607 00             NOP
B608 C0             RET	NZ
B609 C0             RET	NZ
B60A C0             RET	NZ
B60B C0             RET	NZ
B60C FC FC 3F       CALL	M,3FFC
B60F 3F             CCF
B610 03             INC	BC
B611 03             INC	BC
B612 03             INC	BC
B613 03             INC	BC
B614 00             NOP
B615 00             NOP
B616 FC FC C0       CALL	M,C0FC
- 
B619 C0             RET	NZ
B61A C0             RET	NZ
B61B C0             RET	NZ
B61C 00             NOP
B61D 00             NOP
B61E 00             NOP
B61F 00             NOP
B620 03             INC	BC
B621 03             INC	BC
B622 03             INC	BC
B623 03             INC	BC
B624 3F             CCF
B625 3F             CCF
B626 00             NOP
B627 00             NOP
B628 C0             RET	NZ
B629 C0             RET	NZ
B62A C0             RET	NZ
B62B C0             RET	NZ
B62C FC FC 3F       CALL	M,3FFC
- 
B62F 3F             CCF
B630 03             INC	BC
B631 03             INC	BC
B632 03             INC	BC
B633 03             INC	BC
B634 00             NOP
B635 00             NOP
B636 FC FC C0       CALL	M,C0FC
B639 C0             RET	NZ
B63A C0             RET	NZ
B63B C0             RET	NZ
B63C 00             NOP
B63D 00             NOP
B63E 0F             RRCA
B63F 3F             CCF
B640 3F             CCF
B641 3F             CCF
B642 1F             RRA
B643 1F             RRA
B644 01 07 F0       LD	BC,F007
- 
B647 FC FC FC       CALL	M,FCFC
B64A F8             RET	M
B64B F8             RET	M
B64C 80             ADD	A,B
B64D E0             RET	PO
B64E 1F             RRA
B64F 1F             RRA
B650 0F             RRCA
B651 03             INC	BC
B652 01 01 03       LD	BC,0301
B655 07             RLCA
B656 F8             RET	M
B657 F8             RET	M
B658 F0             RET	P
B659 C0             RET	NZ
B65A 80             ADD	A,B
B65B 80             ADD	A,B
B65C C0             RET	NZ
B65D E0             RET	PO
B65E 00             NOP
- 
B65F 00             NOP
B660 00             NOP
B661 00             NOP
B662 00             NOP
B663 1F             RRA
B664 30 7D          JR	NC,B6E3
B666 00             NOP
B667 00             NOP
B668 03             INC	BC
B669 03             INC	BC
B66A 00             NOP
B66B FF             RST	38
B66C 63             LD	H,E
B66D DD 00          NOP
B66F 00             NOP
B670 C0             RET	NZ
B671 C0             RET	NZ
B672 00             NOP
B673 FF             RST	38
B674 75             LD	(HL),L
- 
B675 74             LD	(HL),H
B676 00             NOP
B677 00             NOP
B678 00             NOP
B679 00             NOP
B67A 00             NOP
B67B F0             RET	P
B67C D0             RET	NC
B67D D0             RET	NC
B67E FD 7D          LD	A,iY
B680 3D             DEC	A
B681 1F             RRA
B682 00             NOP
B683 00             NOP
B684 00             NOP
B685 00             NOP
B686 DD             ???
B687 DD E3          EX	(SP),IX
B689 FF             RST	38
B68A 00             NOP
- 
B68B 00             NOP
B68C 00             NOP
B68D 00             NOP
B68E 55             LD	D,L
B68F 55             LD	D,L
B690 AD             XOR	L
B691 FF             RST	38
B692 00             NOP
B693 80             ADD	A,B
B694 80             ADD	A,B
B695 80             ADD	A,B
B696 50             LD	D,B
B697 90             SUB	B
B698 D0             RET	NC
B699 F0             RET	P
B69A 00             NOP
B69B 00             NOP
B69C 00             NOP
B69D 00             NOP
B69E 46             LD	B,(HL)
- 
B69F 48             LD	C,B
B6A0 0F             RRCA
B6A1 28 57          JR	Z,B6FA
B6A3 20 28          JR	NZ,B6CD
B6A5 43             LD	B,E
B6A6 07             RLCA
B6A7 46             LD	B,(HL)
B6A8 51             LD	D,C
B6A9 04             INC	B
B6AA 44             LD	B,H
B6AB 06 07          LD	B,07
B6AD 47             LD	B,A
B6AE 46             LD	B,(HL)
B6AF 04             INC	B
B6B0 44             LD	B,H
B6B1 07             RLCA
B6B2 05             DEC	B
B6B3 04             INC	B
B6B4 44             LD	B,H
B6B5 46             LD	B,(HL)
- 
B6B6 06 42          LD	B,42
B6B8 43             LD	B,E
B6B9 03             INC	BC
B6BA 02             LD	(BC),A
B6BB 42             LD	B,D
B6BC 47             LD	B,A
B6BD 4F             LD	C,A
B6BE 4F             LD	C,A
B6BF 0D             DEC	C
B6C0 45             LD	B,L
B6C1 14             INC	D
B6C2 48             LD	C,B
B6C3 38 41          JR 	C,B706
B6C5 07             RLCA
B6C6 56             LD	D,(HL)
B6C7 16 05          LD	D,05
B6C9 45             LD	B,L
B6CA 05             DEC	B
B6CB 45             LD	B,L
B6CC 03             INC	BC
- 
B6CD 05             DEC	B
B6CE 06 06          LD	B,06
B6D0 06 06          LD	B,06
B6D2 06 06          LD	B,06
B6D4 06 06          LD	B,06
B6D6 06 31          LD	B,31
B6D8 45             LD	B,L
B6D9 05             DEC	B
B6DA 03             INC	BC
B6DB 07             RLCA
B6DC 4D             LD	C,L
B6DD 67             LD	H,A
B6DE 67             LD	H,A
B6DF 67             LD	H,A
B6E0 67             LD	H,A
B6E1 67             LD	H,A
B6E2 67             LD	H,A
B6E3 67             LD	H,A
B6E4 67             LD	H,A
B6E5 67             LD	H,A
- 
B6E6 47             LD	B,A
B6E7 47             LD	B,A
B6E8 46             LD	B,(HL)
B6E9 46             LD	B,(HL)
B6EA 46             LD	B,(HL)
B6EB 46             LD	B,(HL)
B6EC 07             RLCA
B6ED 07             RLCA
B6EE 04             INC	B
B6EF 04             INC	B
B6F0 04             INC	B
B6F1 04             INC	B
B6F2 04             INC	B
B6F3 06 07          LD	B,07
B6F5 07             RLCA
B6F6 07             RLCA
B6F7 07             RLCA
B6F8 07             RLCA
B6F9 07             RLCA
B6FA 07             RLCA
- 
B6FB 07             RLCA
B6FC 05             DEC	B
B6FD 57             LD	D,A
B6FE 0D             DEC	C
B6FF 03             INC	BC
B700 02             LD	(BC),A
B701 01 03 02       LD	BC,0203
B704 01 06 06       LD	BC,0606
B707 05             DEC	B
B708 04             INC	B
B709 05             DEC	B
B70A 07             RLCA
B70B 04             INC	B
B70C 05             DEC	B
B70D 07             RLCA
B70E 02             LD	(BC),A
B70F 02             LD	(BC),A
B710 39             ADD	HL,SP
B711 39             ADD	HL,SP
B712 39             ADD	HL,SP
- 
B713 39             ADD	HL,SP
B714 50             LD	D,B
B715 50             LD	D,B
B716 10 10          DJNZ	B728
B718 44             LD	B,H
B719 45             LD	B,L
B71A 44             LD	B,H
B71B 02             LD	(BC),A
B71C 02             LD	(BC),A
B71D 02             LD	(BC),A
B71E 02             LD	(BC),A
B71F 02             LD	(BC),A
B720 02             LD	(BC),A
B721 42             LD	B,D
B722 42             LD	B,D
B723 42             LD	B,D
B724 42             LD	B,D
B725 42             LD	B,D
B726 42             LD	B,D
B727 02             LD	(BC),A
- 
B728 46             LD	B,(HL)
B729 46             LD	B,(HL)
B72A 46             LD	B,(HL)
B72B 46             LD	B,(HL)
B72C 47             LD	B,A
B72D 47             LD	B,A
B72E 7A             LD	A,D
B72F 7A             LD	A,D
B730 7A             LD	A,D
B731 7A             LD	A,D
B732 67             LD	H,A
B733 67             LD	H,A
B734 67             LD	H,A
B735 67             LD	H,A
B736 57             LD	D,A
B737 57             LD	D,A
B738 17             RLA
B739 17             RLA
B73A 47             LD	B,A
B73B 47             LD	B,A
- 
B73C 47             LD	B,A
B73D 47             LD	B,A
B73E 47             LD	B,A
B73F 47             LD	B,A
B740 47             LD	B,A
B741 47             LD	B,A
B742 FF             RST	38
B743 FF             RST	38
B744 FF             RST	38
B745 FF             RST	38
B746 FF             RST	38
B747 FF             RST	38
B748 FF             RST	38
B749 FF             RST	38
B74A 00             NOP
B74B 00             NOP
B74C 00             NOP
B74D 00             NOP
B74E 00             NOP
B74F 00             NOP
- 
B750 00             NOP
B751 00             NOP
B752 00             NOP
B753 00             NOP
B754 00             NOP
B755 00             NOP
B756 00             NOP
B757 00             NOP
B758 00             NOP
B759 00             NOP
B75A 00             NOP
B75B 00             NOP
B75C 00             NOP
B75D 00             NOP
B75E 00             NOP
B75F 00             NOP
B760 00             NOP
B761 00             NOP
B762 00             NOP
B763 00             NOP
- 
B764 00             NOP
B765 00             NOP
B766 00             NOP
B767 00             NOP
B768 00             NOP
B769 00             NOP
B76A 00             NOP
B76B 00             NOP
B76C 00             NOP
B76D 00             NOP
B76E 00             NOP
B76F 00             NOP
B770 00             NOP
B771 00             NOP
B772 00             NOP
B773 00             NOP
B774 00             NOP
B775 00             NOP
B776 FF             RST	38
B777 FF             RST	38
- 
B778 FF             RST	38
B779 FF             RST	38
B77A 00             NOP
B77B 00             NOP
B77C 00             NOP
B77D 00             NOP
B77E FF             RST	38
B77F FF             RST	38
B780 FF             RST	38
B781 FF             RST	38
B782 00             NOP
B783 00             NOP
B784 00             NOP
B785 01 83 C7       LD	BC,C783
B788 FF             RST	38
B789 FF             RST	38
B78A 00             NOP
B78B FF             RST	38
B78C FF             RST	38
B78D FF             RST	38
- 
B78E 00             NOP
B78F FF             RST	38
B790 FF             RST	38
B791 FF             RST	38
B792 00             NOP
B793 00             NOP
B794 00             NOP
B795 00             NOP
B796 00             NOP
B797 00             NOP
B798 00             NOP
B799 00             NOP
B79A 00             NOP
B79B 00             NOP
B79C 83             ADD	A,E
B79D 87             ADD	A,A
B79E C7             RST	00
B79F C7             RST	00
B7A0 C7             RST	00
B7A1 C7             RST	00
- 
B7A2 00             NOP
B7A3 00             NOP
B7A4 00             NOP
B7A5 01 83 C7       LD	BC,C783
B7A8 FF             RST	38
B7A9 FF             RST	38
B7AA 00             NOP
B7AB 00             NOP
B7AC 00             NOP
B7AD 00             NOP
B7AE 00             NOP
B7AF 00             NOP
B7B0 00             NOP
B7B1 00             NOP
B7B2 00             NOP
B7B3 00             NOP
B7B4 00             NOP
B7B5 00             NOP
B7B6 00             NOP
B7B7 00             NOP
- 
B7B8 00             NOP
B7B9 00             NOP
B7BA 00             NOP
B7BB 00             NOP
B7BC 00             NOP
B7BD 00             NOP
B7BE 00             NOP
B7BF 00             NOP
B7C0 00             NOP
B7C1 00             NOP
B7C2 00             NOP
B7C3 00             NOP
B7C4 00             NOP
B7C5 00             NOP
B7C6 00             NOP
B7C7 00             NOP
B7C8 00             NOP
B7C9 00             NOP
B7CA 00             NOP
B7CB 00             NOP
- 
B7CC 00             NOP
B7CD 00             NOP
B7CE 00             NOP
B7CF 00             NOP
B7D0 00             NOP
B7D1 00             NOP
B7D2 00             NOP
B7D3 00             NOP
B7D4 00             NOP
B7D5 00             NOP
B7D6 00             NOP
B7D7 00             NOP
B7D8 00             NOP
B7D9 00             NOP
B7DA 00             NOP
B7DB 00             NOP
B7DC 00             NOP
B7DD 00             NOP
B7DE 00             NOP
B7DF 00             NOP
- 
B7E0 00             NOP
B7E1 00             NOP
B7E2 00             NOP
B7E3 00             NOP
B7E4 00             NOP
B7E5 00             NOP
B7E6 00             NOP
B7E7 00             NOP
B7E8 00             NOP
B7E9 00             NOP
B7EA 00             NOP
B7EB 00             NOP
B7EC 00             NOP
B7ED 00             NOP
B7EE 00             NOP
B7EF 00             NOP
B7F0 80             ADD	A,B
B7F1 88             ADC	A,B
B7F2 00             NOP
B7F3 00             NOP
- 
B7F4 00             NOP
B7F5 00             NOP
B7F6 00             NOP
B7F7 10 10          DJNZ	B809
B7F9 FC 00 00       CALL	M,0000 ; CALL	M,START
B7FC 00             NOP
B7FD 00             NOP
B7FE 00             NOP
B7FF 04             INC	B
B800 04             INC	B
B801 7C             LD	A,H
B802 00             NOP
B803 00             NOP
B804 00             NOP
B805 00             NOP
B806 00             NOP
B807 00             NOP
B808 40             LD	B,B
B809 71             LD	(HL),C
B80A 00             NOP
- 
B80B 00             NOP
B80C 00             NOP
B80D 00             NOP
B80E 00             NOP
B80F 00             NOP
B810 00             NOP
B811 00             NOP
B812 00             NOP
B813 00             NOP
B814 00             NOP
B815 00             NOP
B816 00             NOP
B817 00             NOP
B818 00             NOP
B819 00             NOP
B81A 00             NOP
B81B 00             NOP
B81C 00             NOP
B81D 00             NOP
B81E 00             NOP
- 
B81F 00             NOP
B820 00             NOP
B821 00             NOP
B822 00             NOP
B823 00             NOP
B824 00             NOP
B825 00             NOP
B826 00             NOP
B827 00             NOP
B828 00             NOP
B829 00             NOP
B82A 00             NOP
B82B 00             NOP
B82C 00             NOP
B82D 00             NOP
B82E 81             ADD	A,C
B82F C3 FF FF       JP	FFFF
B832 00             NOP
B833 00             NOP
B834 00             NOP
- 
B835 00             NOP
B836 00             NOP
B837 00             NOP
B838 00             NOP
B839 00             NOP
B83A 00             NOP
B83B 00             NOP
B83C 00             NOP
B83D 00             NOP
B83E 00             NOP
B83F 00             NOP
B840 00             NOP
B841 00             NOP
B842 00             NOP
B843 00             NOP
B844 00             NOP
B845 00             NOP
B846 00             NOP
B847 00             NOP
B848 00             NOP
- 
B849 00             NOP
B84A 00             NOP
B84B 00             NOP
B84C 00             NOP
B84D 00             NOP
B84E 00             NOP
B84F 00             NOP
B850 00             NOP
B851 00             NOP
B852 00             NOP
B853 00             NOP
B854 00             NOP
B855 00             NOP
B856 00             NOP
B857 00             NOP
B858 00             NOP
B859 FF             RST	38
B85A 00             NOP
B85B 00             NOP
B85C 00             NOP
- 
B85D 00             NOP
B85E 00             NOP
B85F 00             NOP
B860 00             NOP
B861 00             NOP
B862 00             NOP
B863 00             NOP
B864 00             NOP
B865 00             NOP
B866 00             NOP
B867 00             NOP
B868 00             NOP
B869 00             NOP
B86A 00             NOP
B86B 00             NOP
B86C 00             NOP
B86D 00             NOP
B86E 00             NOP
B86F 00             NOP
B870 00             NOP
- 
B871 00             NOP
B872 00             NOP
B873 00             NOP
B874 00             NOP
B875 00             NOP
B876 00             NOP
B877 00             NOP
B878 00             NOP
B879 80             ADD	A,B
B87A 00             NOP
B87B 00             NOP
B87C 00             NOP
B87D 00             NOP
B87E 00             NOP
B87F 00             NOP
B880 00             NOP
B881 80             ADD	A,B
B882 FF             RST	38
B883 FF             RST	38
B884 FF             RST	38
- 
B885 FF             RST	38
B886 FF             RST	38
B887 FF             RST	38
B888 FF             RST	38
B889 FF             RST	38
B88A FF             RST	38
B88B FF             RST	38
B88C FF             RST	38
B88D FF             RST	38
B88E FF             RST	38
B88F FF             RST	38
B890 FF             RST	38
B891 FF             RST	38
B892 80             ADD	A,B
B893 00             NOP
B894 00             NOP
B895 00             NOP
B896 00             NOP
B897 00             NOP
B898 00             NOP
- 
B899 00             NOP
B89A 03             INC	BC
B89B 01 01 00       LD	BC,0001
B89E 00             NOP
B89F 00             NOP
B8A0 00             NOP
B8A1 00             NOP
B8A2 00             NOP
B8A3 00             NOP
B8A4 00             NOP
B8A5 00             NOP
B8A6 00             NOP
B8A7 00             NOP
B8A8 00             NOP
B8A9 80             ADD	A,B
B8AA 00             NOP
B8AB 00             NOP
B8AC 00             NOP
B8AD 00             NOP
B8AE 00             NOP
- 
B8AF 01 01 03       LD	BC,0301
B8B2 00             NOP
B8B3 00             NOP
B8B4 00             NOP
B8B5 00             NOP
B8B6 00             NOP
B8B7 00             NOP
B8B8 00             NOP
B8B9 FF             RST	38
B8BA 00             NOP
B8BB 00             NOP
B8BC 00             NOP
B8BD 00             NOP
B8BE 00             NOP
B8BF 00             NOP
B8C0 00             NOP
B8C1 FF             RST	38
B8C2 FF             RST	38
B8C3 FF             RST	38
B8C4 FF             RST	38
- 
B8C5 FE FC          CP	FC
B8C7 FC F8 F8       CALL	M,F8F8
B8CA FF             RST	38
B8CB C3 00 00       JP	0000 ; JP	START
B8CE 00             NOP
B8CF 00             NOP
B8D0 00             NOP
B8D1 00             NOP
B8D2 FF             RST	38
B8D3 FF             RST	38
B8D4 FF             RST	38
B8D5 7F             LD	A,A
B8D6 3F             CCF
B8D7 3F             CCF
B8D8 1F             RRA
B8D9 1F             RRA
B8DA F8             RET	M
B8DB 00             NOP
B8DC 00             NOP
B8DD 00             NOP
- 
B8DE 00             NOP
B8DF 00             NOP
B8E0 00             NOP
B8E1 00             NOP
B8E2 00             NOP
B8E3 00             NOP
B8E4 00             NOP
B8E5 00             NOP
B8E6 00             NOP
B8E7 00             NOP
B8E8 00             NOP
B8E9 00             NOP
B8EA 1F             RRA
B8EB 00             NOP
B8EC 00             NOP
B8ED 00             NOP
B8EE 00             NOP
B8EF 00             NOP
B8F0 00             NOP
B8F1 00             NOP
- 
B8F2 00             NOP
B8F3 00             NOP
B8F4 00             NOP
B8F5 F0             RET	P
B8F6 F0             RET	P
B8F7 F0             RET	P
B8F8 F0             RET	P
B8F9 F0             RET	P
B8FA 00             NOP
B8FB 00             NOP
B8FC 00             NOP
B8FD 00             NOP
B8FE 00             NOP
B8FF 00             NOP
B900 00             NOP
B901 00             NOP
B902 00             NOP
B903 00             NOP
B904 00             NOP
B905 0F             RRCA
- 
B906 0F             RRCA
B907 0F             RRCA
B908 0F             RRCA
B909 0F             RRCA
B90A 00             NOP
B90B 00             NOP
B90C 00             NOP
B90D 00             NOP
B90E 00             NOP
B90F 00             NOP
B910 00             NOP
B911 00             NOP
B912 00             NOP
B913 00             NOP
B914 00             NOP
B915 00             NOP
B916 00             NOP
B917 00             NOP
B918 22 FF 00       LD	(00FF),HL
B91B 00             NOP
- 
B91C 00             NOP
B91D 00             NOP
B91E 00             NOP
B91F 00             NOP
B920 00             NOP
B921 00             NOP
B922 00             NOP
B923 00             NOP
B924 00             NOP
B925 00             NOP
B926 00             NOP
B927 00             NOP
B928 00             NOP
B929 00             NOP
B92A 00             NOP
B92B 00             NOP
B92C 00             NOP
B92D 81             ADD	A,C
B92E 81             ADD	A,C
B92F 81             ADD	A,C
- 
B930 81             ADD	A,C
B931 C3 00 00       JP	0000 ; JP	START
B934 00             NOP
B935 00             NOP
B936 00             NOP
B937 00             NOP
B938 00             NOP
B939 00             NOP
B93A 00             NOP
B93B 00             NOP
B93C 00             NOP
B93D 00             NOP
B93E 00             NOP
B93F 00             NOP
B940 00             NOP
B941 00             NOP
B942 00             NOP
B943 00             NOP
B944 00             NOP
B945 00             NOP
- 
B946 00             NOP
B947 00             NOP
B948 00             NOP
B949 00             NOP
B94A 00             NOP
B94B 00             NOP
B94C 00             NOP
B94D 00             NOP
B94E 00             NOP
B94F 00             NOP
B950 00             NOP
B951 00             NOP
B952 00             NOP
B953 00             NOP
B954 00             NOP
B955 00             NOP
B956 00             NOP
B957 00             NOP
B958 00             NOP
B959 00             NOP
- 
B95A 00             NOP
B95B 00             NOP
B95C 00             NOP
B95D 00             NOP
B95E 00             NOP
B95F 00             NOP
B960 00             NOP
B961 00             NOP
B962 00             NOP
B963 00             NOP
B964 00             NOP
B965 00             NOP
B966 00             NOP
B967 00             NOP
B968 00             NOP
B969 00             NOP
B96A 00             NOP
B96B 00             NOP
B96C 00             NOP
B96D 00             NOP
- 
B96E 00             NOP
B96F 00             NOP
B970 00             NOP
B971 00             NOP
B972 00             NOP
B973 00             NOP
B974 00             NOP
B975 00             NOP
B976 00             NOP
B977 00             NOP
B978 00             NOP
B979 00             NOP
B97A 00             NOP
B97B 00             NOP
B97C 00             NOP
B97D 00             NOP
B97E 00             NOP
B97F 00             NOP
B980 00             NOP
B981 00             NOP
- 
B982 00             NOP
B983 00             NOP
B984 00             NOP
B985 00             NOP
B986 00             NOP
B987 00             NOP
B988 00             NOP
B989 00             NOP
B98A 00             NOP
B98B 00             NOP
B98C 00             NOP
B98D 00             NOP
B98E 00             NOP
B98F 00             NOP
B990 00             NOP
B991 00             NOP
B992 C0             RET	NZ
B993 80             ADD	A,B
B994 00             NOP
B995 00             NOP
- 
B996 00             NOP
B997 00             NOP
B998 00             NOP
B999 00             NOP
B99A 03             INC	BC
B99B 01 00 00       LD	BC,0000 ; LD	BC,START
B99E 00             NOP
B99F 00             NOP
B9A0 00             NOP
B9A1 00             NOP
B9A2 00             NOP
B9A3 00             NOP
B9A4 00             NOP
B9A5 00             NOP
B9A6 80             ADD	A,B
B9A7 80             ADD	A,B
B9A8 C0             RET	NZ
B9A9 E0             RET	PO
B9AA 00             NOP
B9AB 00             NOP
- 
B9AC 00             NOP
B9AD 00             NOP
B9AE 01 01 03       LD	BC,0301
B9B1 07             RLCA
B9B2 C0             RET	NZ
B9B3 80             ADD	A,B
B9B4 00             NOP
B9B5 00             NOP
B9B6 00             NOP
B9B7 80             ADD	A,B
B9B8 C0             RET	NZ
B9B9 C0             RET	NZ
B9BA 03             INC	BC
B9BB 01 00 00       LD	BC,0000 ; LD	BC,START
B9BE 00             NOP
B9BF 01 03 03       LD	BC,0303
B9C2 00             NOP
B9C3 00             NOP
B9C4 00             NOP
B9C5 83             ADD	A,E
- 
B9C6 FF             RST	38
B9C7 FF             RST	38
B9C8 FF             RST	38
B9C9 FF             RST	38
B9CA 00             NOP
B9CB 00             NOP
B9CC 00             NOP
B9CD 00             NOP
B9CE 00             NOP
B9CF 00             NOP
B9D0 00             NOP
B9D1 00             NOP
B9D2 00             NOP
B9D3 00             NOP
B9D4 00             NOP
B9D5 00             NOP
B9D6 00             NOP
B9D7 00             NOP
B9D8 00             NOP
B9D9 00             NOP
- 
B9DA 00             NOP
B9DB 00             NOP
B9DC 00             NOP
B9DD 00             NOP
B9DE 00             NOP
B9DF 00             NOP
B9E0 00             NOP
B9E1 00             NOP
B9E2 00             NOP
B9E3 00             NOP
B9E4 00             NOP
B9E5 00             NOP
B9E6 00             NOP
B9E7 00             NOP
B9E8 00             NOP
B9E9 00             NOP
B9EA 00             NOP
B9EB 00             NOP
B9EC 00             NOP
B9ED 00             NOP
- 
B9EE 00             NOP
B9EF 01 83 FF       LD	BC,FF83
B9F2 C1             POP	BC
B9F3 81             ADD	A,C
B9F4 80             ADD	A,B
B9F5 00             NOP
B9F6 00             NOP
B9F7 00             NOP
B9F8 00             NOP
B9F9 00             NOP
B9FA FC FC FE       CALL	M,FEFC
B9FD FF             RST	38
B9FE FF             RST	38
B9FF 7F             LD	A,A
BA00 3F             CCF
BA01 1F             RRA
BA02 03             INC	BC
BA03 00             NOP
BA04 00             NOP
BA05 00             NOP
- 
BA06 80             ADD	A,B
BA07 00             NOP
BA08 00             NOP
BA09 00             NOP
BA0A FF             RST	38
BA0B 7F             LD	A,A
BA0C 3F             CCF
BA0D 1F             RRA
BA0E 07             RLCA
BA0F 03             INC	BC
BA10 01 00 00       LD	BC,0000 ; LD	BC,START
BA13 00             NOP
BA14 00             NOP
BA15 00             NOP
BA16 00             NOP
BA17 00             NOP
BA18 00             NOP
BA19 80             ADD	A,B
BA1A 00             NOP
BA1B 00             NOP
- 
BA1C 00             NOP
BA1D 00             NOP
BA1E 00             NOP
BA1F 00             NOP
BA20 00             NOP
BA21 FF             RST	38
BA22 00             NOP
BA23 00             NOP
BA24 00             NOP
BA25 00             NOP
BA26 00             NOP
BA27 00             NOP
BA28 08             EX	AF,AF'
BA29 FC 00 00       CALL	M,0000 ; CALL	M,START
BA2C 00             NOP
BA2D 03             INC	BC
BA2E 03             INC	BC
BA2F 03             INC	BC
BA30 03             INC	BC
BA31 07             RLCA
- 
BA32 C0             RET	NZ
BA33 C0             RET	NZ
BA34 C0             RET	NZ
BA35 C0             RET	NZ
BA36 C0             RET	NZ
BA37 C0             RET	NZ
BA38 C0             RET	NZ
BA39 C0             RET	NZ
BA3A 00             NOP
BA3B 00             NOP
BA3C 00             NOP
BA3D 00             NOP
BA3E 00             NOP
BA3F 00             NOP
BA40 00             NOP
BA41 00             NOP
BA42 00             NOP
BA43 00             NOP
BA44 00             NOP
BA45 00             NOP
- 
BA46 00             NOP
BA47 00             NOP
BA48 00             NOP
BA49 00             NOP
BA4A 0F             RRCA
BA4B 0F             RRCA
BA4C 08             EX	AF,AF'
BA4D 08             EX	AF,AF'
BA4E 08             EX	AF,AF'
BA4F 08             EX	AF,AF'
BA50 00             NOP
BA51 00             NOP
BA52 00             NOP
BA53 00             NOP
BA54 00             NOP
BA55 00             NOP
BA56 00             NOP
BA57 00             NOP
BA58 00             NOP
BA59 00             NOP
- 
BA5A C0             RET	NZ
BA5B C0             RET	NZ
BA5C C0             RET	NZ
BA5D C0             RET	NZ
BA5E 00             NOP
BA5F 00             NOP
BA60 00             NOP
BA61 00             NOP
BA62 00             NOP
BA63 00             NOP
BA64 00             NOP
BA65 00             NOP
BA66 00             NOP
BA67 01 01 00       LD	BC,0001
BA6A 00             NOP
BA6B 00             NOP
BA6C 00             NOP
BA6D 00             NOP
BA6E 00             NOP
BA6F 00             NOP
- 
BA70 00             NOP
BA71 00             NOP
BA72 00             NOP
BA73 00             NOP
BA74 00             NOP
BA75 00             NOP
BA76 00             NOP
BA77 00             NOP
BA78 00             NOP
BA79 00             NOP
BA7A 00             NOP
BA7B 00             NOP
BA7C 00             NOP
BA7D C3 C3 C3       JP	C3C3
BA80 C3 C3 00       JP	00C3
BA83 00             NOP
BA84 00             NOP
BA85 FF             RST	38
BA86 FF             RST	38
BA87 FF             RST	38
- 
BA88 FF             RST	38
BA89 FF             RST	38
BA8A F0             RET	P
BA8B 20 00          JR	NZ,BA8D
BA8D 00             NOP
BA8E 00             NOP
BA8F 00             NOP
BA90 20 F0          JR	NZ,BA82
BA92 0F             RRCA
BA93 0F             RRCA
BA94 01 01 01       LD	BC,0101
BA97 01 00 00       LD	BC,0000 ; LD	BC,START
BA9A 06 00          LD	B,00
BA9C 00             NOP
BA9D 00             NOP
BA9E 00             NOP
BA9F 00             NOP
BAA0 00             NOP
BAA1 00             NOP
BAA2 00             NOP
- 
BAA3 00             NOP
BAA4 00             NOP
BAA5 00             NOP
BAA6 00             NOP
BAA7 00             NOP
BAA8 00             NOP
BAA9 00             NOP
BAAA 00             NOP
BAAB 00             NOP
BAAC 00             NOP
BAAD 00             NOP
BAAE 00             NOP
BAAF 08             EX	AF,AF'
BAB0 08             EX	AF,AF'
BAB1 00             NOP
BAB2 00             NOP
BAB3 00             NOP
BAB4 00             NOP
BAB5 00             NOP
BAB6 00             NOP
- 
BAB7 00             NOP
BAB8 00             NOP
BAB9 00             NOP
BABA 00             NOP
BABB 00             NOP
BABC 00             NOP
BABD 00             NOP
BABE 00             NOP
BABF 00             NOP
BAC0 00             NOP
BAC1 00             NOP
BAC2 00             NOP
BAC3 00             NOP
BAC4 00             NOP
BAC5 00             NOP
BAC6 00             NOP
BAC7 00             NOP
BAC8 00             NOP
BAC9 00             NOP
BACA 00             NOP
- 
BACB 00             NOP
BACC 00             NOP
BACD 00             NOP
BACE 00             NOP
BACF 00             NOP
BAD0 00             NOP
BAD1 00             NOP
BAD2 00             NOP
BAD3 00             NOP
BAD4 00             NOP
BAD5 00             NOP
BAD6 00             NOP
BAD7 00             NOP
BAD8 00             NOP
BAD9 00             NOP
BADA 00             NOP
BADB 00             NOP
BADC 00             NOP
BADD 00             NOP
BADE 00             NOP
- 
BADF 00             NOP
BAE0 00             NOP
BAE1 00             NOP
BAE2 00             NOP
BAE3 00             NOP
BAE4 00             NOP
BAE5 00             NOP
BAE6 00             NOP
BAE7 00             NOP
BAE8 00             NOP
BAE9 00             NOP
BAEA 00             NOP
BAEB 00             NOP
BAEC 00             NOP
BAED 00             NOP
BAEE 00             NOP
BAEF 00             NOP
BAF0 00             NOP
BAF1 00             NOP
BAF2 00             NOP
- 
BAF3 00             NOP
BAF4 00             NOP
BAF5 00             NOP
BAF6 00             NOP
BAF7 00             NOP
BAF8 00             NOP
BAF9 00             NOP
BAFA 00             NOP
BAFB 00             NOP
BAFC 00             NOP
BAFD 00             NOP
BAFE 00             NOP
BAFF 00             NOP
BB00 00             NOP
BB01 00             NOP
BB02 00             NOP
BB03 00             NOP
BB04 00             NOP
BB05 00             NOP
BB06 00             NOP
- 
BB07 00             NOP
BB08 00             NOP
BB09 00             NOP
BB0A 00             NOP
BB0B 00             NOP
BB0C 00             NOP
BB0D 00             NOP
BB0E 00             NOP
BB0F 00             NOP
BB10 00             NOP
BB11 00             NOP
BB12 00             NOP
BB13 00             NOP
BB14 00             NOP
BB15 00             NOP
BB16 00             NOP
BB17 00             NOP
BB18 00             NOP
BB19 00             NOP
BB1A 00             NOP
- 
BB1B 00             NOP
BB1C 00             NOP
BB1D 00             NOP
BB1E 00             NOP
BB1F 00             NOP
BB20 00             NOP
BB21 00             NOP
BB22 00             NOP
BB23 00             NOP
BB24 00             NOP
BB25 00             NOP
BB26 00             NOP
BB27 80             ADD	A,B
BB28 F1             POP	AF
BB29 FF             RST	38
BB2A 00             NOP
BB2B 00             NOP
BB2C 00             NOP
BB2D 00             NOP
BB2E 00             NOP
- 
BB2F 00             NOP
BB30 00             NOP
BB31 00             NOP
BB32 00             NOP
BB33 00             NOP
BB34 00             NOP
BB35 00             NOP
BB36 00             NOP
BB37 00             NOP
BB38 00             NOP
BB39 00             NOP
BB3A 00             NOP
BB3B 00             NOP
BB3C 00             NOP
BB3D 00             NOP
BB3E 00             NOP
BB3F 00             NOP
BB40 00             NOP
BB41 00             NOP
BB42 00             NOP
- 
BB43 00             NOP
BB44 00             NOP
BB45 00             NOP
BB46 00             NOP
BB47 00             NOP
BB48 00             NOP
BB49 00             NOP
BB4A 00             NOP
BB4B 00             NOP
BB4C 00             NOP
BB4D 00             NOP
BB4E 00             NOP
BB4F 00             NOP
BB50 00             NOP
BB51 00             NOP
BB52 00             NOP
BB53 00             NOP
BB54 00             NOP
BB55 00             NOP
BB56 00             NOP
- 
BB57 00             NOP
BB58 00             NOP
BB59 00             NOP
BB5A C0             RET	NZ
BB5B 00             NOP
BB5C 00             NOP
BB5D 00             NOP
BB5E 00             NOP
BB5F 00             NOP
BB60 00             NOP
BB61 00             NOP
BB62 03             INC	BC
BB63 00             NOP
BB64 00             NOP
BB65 00             NOP
BB66 00             NOP
BB67 00             NOP
BB68 00             NOP
BB69 00             NOP
BB6A 00             NOP
- 
BB6B 00             NOP
BB6C 00             NOP
BB6D 00             NOP
BB6E 00             NOP
BB6F 00             NOP
BB70 00             NOP
BB71 00             NOP
BB72 00             NOP
BB73 00             NOP
BB74 00             NOP
BB75 00             NOP
BB76 00             NOP
BB77 00             NOP
BB78 00             NOP
BB79 00             NOP
BB7A 00             NOP
BB7B 00             NOP
BB7C 00             NOP
BB7D 00             NOP
BB7E 00             NOP
- 
BB7F 00             NOP
BB80 00             NOP
BB81 00             NOP
BB82 00             NOP
BB83 00             NOP
BB84 00             NOP
BB85 00             NOP
BB86 00             NOP
BB87 00             NOP
BB88 00             NOP
BB89 00             NOP
BB8A 00             NOP
BB8B 00             NOP
BB8C 00             NOP
BB8D 01 0F FF       LD	BC,FF0F
BB90 FF             RST	38
BB91 FF             RST	38
BB92 F0             RET	P
BB93 E0             RET	PO
BB94 C0             RET	NZ
- 
BB95 C0             RET	NZ
BB96 80             ADD	A,B
BB97 80             ADD	A,B
BB98 80             ADD	A,B
BB99 80             ADD	A,B
BB9A 0F             RRCA
BB9B 07             RLCA
BB9C 03             INC	BC
BB9D 03             INC	BC
BB9E 01 01 01       LD	BC,0101
BBA1 01 C0 C0       LD	BC,C0C0
BBA4 E0             RET	PO
BBA5 F0             RET	P
BBA6 F8             RET	M
BBA7 F8             RET	M
BBA8 F8             RET	M
BBA9 F8             RET	M
BBAA 03             INC	BC
BBAB 03             INC	BC
BBAC 07             RLCA
- 
BBAD 0F             RRCA
BBAE 1F             RRA
BBAF 1F             RRA
BBB0 1F             RRA
BBB1 1F             RRA
BBB2 F8             RET	M
BBB3 F8             RET	M
BBB4 F8             RET	M
BBB5 F8             RET	M
BBB6 F8             RET	M
BBB7 F8             RET	M
BBB8 F8             RET	M
BBB9 F8             RET	M
BBBA 1F             RRA
BBBB 1F             RRA
BBBC 1F             RRA
BBBD 1F             RRA
BBBE 1F             RRA
BBBF 1F             RRA
BBC0 1F             RRA
- 
BBC1 1F             RRA
BBC2 00             NOP
BBC3 00             NOP
BBC4 00             NOP
BBC5 00             NOP
BBC6 00             NOP
BBC7 00             NOP
BBC8 00             NOP
BBC9 00             NOP
BBCA 00             NOP
BBCB 00             NOP
BBCC 00             NOP
BBCD 00             NOP
BBCE 00             NOP
BBCF 00             NOP
BBD0 00             NOP
BBD1 00             NOP
BBD2 00             NOP
BBD3 00             NOP
BBD4 00             NOP
- 
BBD5 00             NOP
BBD6 00             NOP
BBD7 00             NOP
BBD8 00             NOP
BBD9 00             NOP
BBDA 00             NOP
BBDB 00             NOP
BBDC 00             NOP
BBDD 00             NOP
BBDE 00             NOP
BBDF 00             NOP
BBE0 00             NOP
BBE1 00             NOP
BBE2 00             NOP
BBE3 00             NOP
BBE4 00             NOP
BBE5 00             NOP
BBE6 00             NOP
BBE7 00             NOP
BBE8 00             NOP
- 
BBE9 00             NOP
BBEA 00             NOP
BBEB 00             NOP
BBEC 00             NOP
BBED 00             NOP
BBEE 00             NOP
BBEF 00             NOP
BBF0 00             NOP
BBF1 00             NOP
BBF2 00             NOP
BBF3 00             NOP
BBF4 00             NOP
BBF5 00             NOP
BBF6 00             NOP
BBF7 00             NOP
BBF8 00             NOP
BBF9 00             NOP
BBFA 00             NOP
BBFB 00             NOP
BBFC 00             NOP
- 
BBFD 00             NOP
BBFE 00             NOP
BBFF 00             NOP
BC00 00             NOP
BC01 00             NOP
BC02 80             ADD	A,B
BC03 80             ADD	A,B
BC04 80             ADD	A,B
BC05 80             ADD	A,B
BC06 80             ADD	A,B
BC07 C0             RET	NZ
BC08 C0             RET	NZ
BC09 C0             RET	NZ
BC0A 01 01 01       LD	BC,0101
BC0D 01 01 03       LD	BC,0301
BC10 03             INC	BC
BC11 03             INC	BC
BC12 C0             RET	NZ
BC13 C0             RET	NZ
BC14 C0             RET	NZ
- 
BC15 E0             RET	PO
BC16 F8             RET	M
BC17 F8             RET	M
BC18 F0             RET	P
BC19 F0             RET	P
BC1A 03             INC	BC
BC1B 03             INC	BC
BC1C 03             INC	BC
BC1D 07             RLCA
BC1E 1F             RRA
BC1F 1F             RRA
BC20 0F             RRCA
BC21 0F             RRCA
BC22 FF             RST	38
BC23 FF             RST	38
BC24 FF             RST	38
BC25 FF             RST	38
BC26 C0             RET	NZ
BC27 80             ADD	A,B
BC28 00             NOP
- 
BC29 00             NOP
BC2A FF             RST	38
BC2B F8             RET	M
BC2C F8             RET	M
BC2D F8             RET	M
BC2E 00             NOP
BC2F 00             NOP
BC30 00             NOP
BC31 00             NOP
BC32 FF             RST	38
BC33 1F             RRA
BC34 1F             RRA
BC35 1F             RRA
BC36 00             NOP
BC37 00             NOP
BC38 00             NOP
BC39 00             NOP
BC3A FF             RST	38
BC3B FF             RST	38
BC3C FF             RST	38
- 
BC3D FF             RST	38
BC3E 07             RLCA
BC3F 07             RLCA
BC40 07             RLCA
BC41 07             RLCA
BC42 00             NOP
BC43 00             NOP
BC44 00             NOP
BC45 80             ADD	A,B
BC46 C0             RET	NZ
BC47 FF             RST	38
BC48 FF             RST	38
BC49 FF             RST	38
BC4A 00             NOP
BC4B 00             NOP
BC4C 00             NOP
BC4D 00             NOP
BC4E 00             NOP
BC4F F8             RET	M
BC50 F8             RET	M
- 
BC51 F8             RET	M
BC52 00             NOP
BC53 00             NOP
BC54 00             NOP
BC55 00             NOP
BC56 00             NOP
BC57 1F             RRA
BC58 1F             RRA
BC59 1F             RRA
BC5A 07             RLCA
BC5B 07             RLCA
BC5C 07             RLCA
BC5D 07             RLCA
BC5E 07             RLCA
BC5F FF             RST	38
BC60 FF             RST	38
BC61 FF             RST	38
BC62 00             NOP
BC63 02             LD	(BC),A
BC64 02             LD	(BC),A
- 
BC65 02             LD	(BC),A
BC66 02             LD	(BC),A
BC67 02             LD	(BC),A
BC68 01 01 01       LD	BC,0101
BC6B 04             INC	B
BC6C 02             LD	(BC),A
BC6D 00             NOP
BC6E 00             NOP
BC6F 02             LD	(BC),A
BC70 02             LD	(BC),A
BC71 02             LD	(BC),A
BC72 02             LD	(BC),A
BC73 02             LD	(BC),A
BC74 02             LD	(BC),A
BC75 02             LD	(BC),A
BC76 02             LD	(BC),A
BC77 01 01 01       LD	BC,0101
BC7A 01 02 02       LD	BC,0202
BC7D 02             LD	(BC),A
BC7E 02             LD	(BC),A
- 
BC7F 01 80 80       LD	BC,8080
BC82 80             ADD	A,B
BC83 40             LD	B,B
BC84 01 20 01       LD	BC,0120
BC87 01 00 00       LD	BC,0000 ; LD	BC,START
BC8A 00             NOP
BC8B 00             NOP
BC8C 01 01 00       LD	BC,0001
BC8F 00             NOP
BC90 01 01 00       LD	BC,0001
BC93 00             NOP
BC94 00             NOP
BC95 00             NOP
BC96 00             NOP
BC97 00             NOP
BC98 00             NOP
BC99 00             NOP
BC9A 00             NOP
BC9B 02             LD	(BC),A
BC9C 01 20 02       LD	BC,0220
- 
BC9F 01 22 00       LD	BC,0022
BCA2 00             NOP
BCA3 00             NOP
BCA4 00             NOP
BCA5 00             NOP
BCA6 00             NOP
BCA7 00             NOP
BCA8 00             NOP
BCA9 00             NOP
BCAA 80             ADD	A,B
BCAB 80             ADD	A,B
BCAC 00             NOP
BCAD 00             NOP
BCAE 00             NOP
BCAF 00             NOP
BCB0 00             NOP
BCB1 00             NOP
BCB2 01 02 02       LD	BC,0202
BCB5 02             LD	(BC),A
BCB6 02             LD	(BC),A
- 
BCB7 01 00 00       LD	BC,0000 ; LD	BC,START
BCBA 00             NOP
BCBB 00             NOP
BCBC 00             NOP
BCBD 00             NOP
BCBE 00             NOP
BCBF 00             NOP
BCC0 00             NOP
BCC1 20 02          JR	NZ,BCC5
BCC3 01 01 01       LD	BC,0101
BCC6 00             NOP
BCC7 00             NOP
BCC8 00             NOP
BCC9 01 01 01       LD	BC,0101
BCCC 01 01 01       LD	BC,0101
BCCF 00             NOP
BCD0 00             NOP
BCD1 00             NOP
BCD2 02             LD	(BC),A
BCD3 02             LD	(BC),A
- 
BCD4 01 01 00       LD	BC,0001
BCD7 00             NOP
BCD8 01 01 00       LD	BC,0001
BCDB 00             NOP
BCDC 20 02          JR	NZ,BCE0
BCDE 01 01 01       LD	BC,0101
BCE1 00             NOP
BCE2 00             NOP
BCE3 00             NOP
BCE4 00             NOP
BCE5 00             NOP
BCE6 00             NOP
BCE7 08             EX	AF,AF'
BCE8 08             EX	AF,AF'
BCE9 08             EX	AF,AF'
BCEA 08             EX	AF,AF'
BCEB 01 00 00       LD	BC,0000 ; LD	BC,START
BCEE 00             NOP
BCEF 00             NOP
BCF0 00             NOP
- 
BCF1 00             NOP
BCF2 00             NOP
BCF3 00             NOP
BCF4 00             NOP
BCF5 00             NOP
BCF6 00             NOP
BCF7 00             NOP
BCF8 00             NOP
BCF9 00             NOP
BCFA 00             NOP
BCFB 00             NOP
BCFC 00             NOP
BCFD 00             NOP
BCFE 00             NOP
BCFF 00             NOP
BD00 00             NOP
BD01 00             NOP
BD02 00             NOP
BD03 00             NOP
BD04 00             NOP
- 
BD05 00             NOP
BD06 44             LD	B,H
BD07 4F             LD	C,A
BD08 57             LD	D,A
BD09 4E             LD	C,(HL)
BD0A 40             LD	B,B
BD0B 54             LD	D,H
BD0C 48             LD	C,B
BD0D 45             LD	B,L
BD0E 40             LD	B,B
BD0F 44             LD	B,H
BD10 52             LD	D,D
BD11 41             LD	B,C
BD12 49             LD	C,C
BD13 CE 4F          ADC	A,4F
BD15 55             LD	D,L
BD16 54             LD	D,H
BD17 4C             LD	C,H
BD18 45             LD	B,L
BD19 D4 57 41       CALL	NC,4157
- 
BD1C 53             LD	D,E
BD1D 48             LD	C,B
BD1E 52             LD	D,D
BD1F 4F             LD	C,A
BD20 4F             LD	C,A
BD21 CD 53 45       CALL	4553
BD24 52             LD	D,D
BD25 56             LD	D,(HL)
BD26 49             LD	C,C
BD27 43             LD	B,E
BD28 45             LD	B,L
BD29 40             LD	B,B
BD2A 54             LD	D,H
BD2B 55             LD	D,L
BD2C 4E             LD	C,(HL)
BD2D 4E             LD	C,(HL)
BD2E 45             LD	B,L
BD2F CC 43 41       CALL	Z,4143
BD32 52             LD	D,D
BD33 45             LD	B,L
- 
BD34 54             LD	D,H
BD35 41             LD	B,C
BD36 4B             LD	C,E
BD37 45             LD	B,L
BD38 52             LD	D,D
BD39 3C             INC	A
BD3A 53             LD	D,E
BD3B 40             LD	B,B
BD3C 4F             LD	C,A
BD3D 46             LD	B,(HL)
BD3E 46             LD	B,(HL)
BD3F 49             LD	C,C
BD40 43             LD	B,E
BD41 C5             PUSH	BC
BD42 43             LD	B,E
BD43 41             LD	B,C
BD44 53             LD	D,E
BD45 54             LD	D,H
BD46 4C             LD	C,H
BD47 45             LD	B,L
- 
BD48 40             LD	B,B
BD49 57             LD	D,A
BD4A 41             LD	B,C
BD4B 4C             LD	C,H
BD4C 4C             LD	C,H
BD4D D3 54          OUT	(54),A
BD4F 4F             LD	C,A
BD50 50             LD	D,B
BD51 40             LD	B,B
BD52 4F             LD	C,A
BD53 46             LD	B,(HL)
BD54 40             LD	B,B
BD55 57             LD	D,A
BD56 41             LD	B,C
BD57 4C             LD	C,H
BD58 CC 42 41       CALL	Z,4142
BD5B 54             LD	D,H
BD5C 54             LD	D,H
BD5D 4C             LD	C,H
BD5E 45             LD	B,L
- 
BD5F 4D             LD	C,L
BD60 45             LD	B,L
BD61 4E             LD	C,(HL)
BD62 54             LD	D,H
BD63 D3 52          OUT	(52),A
BD65 4F             LD	C,A
BD66 4F             LD	C,A
BD67 46             LD	B,(HL)
BD68 40             LD	B,B
BD69 41             LD	B,C
BD6A 43             LD	B,E
BD6B 43             LD	B,E
BD6C 45             LD	B,L
BD6D 53             LD	D,E
BD6E D3 52          OUT	(52),A
BD70 4F             LD	C,A
BD71 4F             LD	C,A
BD72 46             LD	B,(HL)
BD73 54             LD	D,H
BD74 4F             LD	C,A
- 
BD75 D0             RET	NC
BD76 42             LD	B,D
BD77 4C             LD	C,H
BD78 41             LD	B,C
BD79 43             LD	B,E
BD7A 4B             LD	C,E
BD7B 53             LD	D,E
BD7C 4D             LD	C,L
BD7D 49             LD	C,C
BD7E 54             LD	D,H
BD7F C8             RET	Z
BD80 43             LD	B,E
BD81 4F             LD	C,A
BD82 55             LD	D,L
BD83 52             LD	D,D
BD84 54             LD	D,H
BD85 59             LD	E,C
BD86 41             LD	B,C
BD87 52             LD	D,D
BD88 C4 53 54       CALL	NZ,5453
- 
BD8B 41             LD	B,C
BD8C 42             LD	B,D
BD8D 4C             LD	C,H
BD8E 45             LD	B,L
BD8F D3 42          OUT	(42),A
BD91 45             LD	B,L
BD92 45             LD	B,L
BD93 52             LD	D,D
BD94 40             LD	B,B
BD95 43             LD	B,E
BD96 45             LD	B,L
BD97 4C             LD	C,H
BD98 4C             LD	C,H
BD99 41             LD	B,C
BD9A D2 52 4F       JP	NC,4F52
BD9D 43             LD	B,E
BD9E 4B             LD	C,E
BD9F 45             LD	B,L
BDA0 54             LD	D,H
BDA1 40             LD	B,B
- 
BDA2 4D             LD	C,L
BDA3 41             LD	B,C
BDA4 CE 4F          ADC	A,4F
BDA6 4C             LD	C,H
BDA7 44             LD	B,H
BDA8 40             LD	B,B
BDA9 54             LD	D,H
BDAA 41             LD	B,C
BDAB 4E             LD	C,(HL)
BDAC 4E             LD	C,(HL)
BDAD 45             LD	B,L
BDAE 52             LD	D,D
BDAF D9             EXX
BDB0 45             LD	B,L
BDB1 4E             LD	C,(HL)
BDB2 47             LD	B,A
BDB3 45             LD	B,L
BDB4 4E             LD	C,(HL)
BDB5 44             LD	B,H
BDB6 52             LD	D,D
- 
BDB7 45             LD	B,L
BDB8 44             LD	B,H
BDB9 40             LD	B,B
BDBA 49             LD	C,C
BDBB 53             LD	D,E
BDBC 40             LD	B,B
BDBD 54             LD	D,H
BDBE 48             LD	C,B
BDBF 45             LD	B,L
BDC0 40             LD	B,B
BDC1 46             LD	B,(HL)
BDC2 4C             LD	C,H
BDC3 4F             LD	C,A
BDC4 55             LD	D,L
BDC5 D2 4D 49       JP	NC,494D
BDC8 4C             LD	C,H
BDC9 CC 47 52       CALL	Z,5247
BDCC 41             LD	B,C
BDCD 49             LD	C,C
BDCE 4E             LD	C,(HL)
- 
BDCF 40             LD	B,B
BDD0 53             LD	D,E
BDD1 54             LD	D,H
BDD2 4F             LD	C,A
BDD3 52             LD	D,D
BDD4 C5             PUSH	BC
BDD5 5A             LD	E,D
BDD6 41             LD	B,C
BDD7 4D             LD	C,L
BDD8 42             LD	B,D
BDD9 45             LD	B,L
BDDA 5A             LD	E,D
BDDB C9             RET
BDDC 4D             LD	C,L
BDDD 41             LD	B,C
BDDE 52             LD	D,D
BDDF 4B             LD	C,E
BDE0 45             LD	B,L
BDE1 54             LD	D,H
BDE2 40             LD	B,B
- 
BDE3 50             LD	D,B
BDE4 4C             LD	C,H
BDE5 41             LD	B,C
BDE6 43             LD	B,E
BDE7 C5             PUSH	BC
BDE8 54             LD	D,H
BDE9 4F             LD	C,A
BDEA 57             LD	D,A
BDEB 4E             LD	C,(HL)
BDEC 40             LD	B,B
BDED 53             LD	D,E
BDEE 51             LD	D,C
BDEF 55             LD	D,L
BDF0 41             LD	B,C
BDF1 52             LD	D,D
BDF2 C5             PUSH	BC
BDF3 48             LD	C,B
BDF4 41             LD	B,C
BDF5 55             LD	D,L
BDF6 4E             LD	C,(HL)
- 
BDF7 54             LD	D,H
BDF8 45             LD	B,L
BDF9 44             LD	B,H
BDFA 40             LD	B,B
BDFB 48             LD	C,B
BDFC 4F             LD	C,A
BDFD 55             LD	D,L
BDFE 53             LD	D,E
BDFF C5             PUSH	BC
BE00 41             LD	B,C
BE01 54             LD	D,H
BE02 54             LD	D,H
BE03 49             LD	C,C
BE04 C3 50 49       JP	4950
BE07 50             LD	D,B
BE08 45             LD	B,L
BE09 57             LD	D,A
BE0A 4F             LD	C,A
BE0B 52             LD	D,D
BE0C CB 41          BIT	0,C
- 
BE0E 52             LD	D,D
BE0F 45             LD	B,L
BE10 41             LD	B,C
BE11 40             LD	B,B
BE12 35             DEC	(HL)
BE13 B1             OR	C
BE14 42             LD	B,D
BE15 41             LD	B,C
BE16 52             LD	D,D
BE17 4F             LD	C,A
BE18 4E             LD	C,(HL)
BE19 40             LD	B,B
BE1A 4F             LD	C,A
BE1B 46             LD	B,(HL)
BE1C 40             LD	B,B
BE1D 42             LD	B,D
BE1E 45             LD	B,L
BE1F 45             LD	B,L
BE20 C6 46          ADD	A,46
BE22 55             LD	D,L
- 
BE23 4E             LD	C,(HL)
BE24 43             LD	B,E
BE25 54             LD	D,H
BE26 49             LD	C,C
BE27 4F             LD	C,A
BE28 4E             LD	C,(HL)
BE29 40             LD	B,B
BE2A 52             LD	D,D
BE2B 4F             LD	C,A
BE2C 4F             LD	C,A
BE2D CD 4D 4F       CALL	4F4D
BE30 52             LD	D,D
BE31 45             LD	B,L
BE32 40             LD	B,B
BE33 54             LD	D,H
BE34 45             LD	B,L
BE35 41             LD	B,C
BE36 3B             DEC 	SP
BE37 40             LD	B,B
BE38 56             LD	D,(HL)
- 
BE39 49             LD	C,C
BE3A 43             LD	B,E
BE3B 41             LD	B,C
BE3C 52             LD	D,D
BE3D BF             CP	A
BE3E 42             LD	B,D
BE3F 41             LD	B,C
BE40 43             LD	B,E
BE41 4B             LD	C,E
BE42 40             LD	B,B
BE43 52             LD	D,D
BE44 4F             LD	C,A
BE45 4F             LD	C,A
BE46 CD 43 55       CALL	5543
BE49 52             LD	D,D
BE4A 49             LD	C,C
BE4B 4F             LD	C,A
BE4C 53             LD	D,E
BE4D 49             LD	C,C
BE4E 54             LD	D,H
- 
BE4F 59             LD	E,C
BE50 40             LD	B,B
BE51 53             LD	D,E
BE52 48             LD	C,B
BE53 4F             LD	C,A
BE54 D0             RET	NC
BE55 56             LD	D,(HL)
BE56 45             LD	B,L
BE57 47             LD	B,A
BE58 41             LD	B,C
BE59 5C             LD	E,H
BE5A 40             LD	B,B
BE5B 50             LD	D,B
BE5C 52             LD	D,D
BE5D 4F             LD	C,A
BE5E 44             LD	B,H
BE5F 55             LD	D,L
BE60 43             LD	B,E
BE61 54             LD	D,H
BE62 49             LD	C,C
- 
BE63 4F             LD	C,A
BE64 4E             LD	C,(HL)
BE65 40             LD	B,B
BE66 4C             LD	C,H
BE67 49             LD	C,C
BE68 4E             LD	C,(HL)
BE69 C5             PUSH	BC
BE6A 4D             LD	C,L
BE6B 55             LD	D,L
BE6C 43             LD	B,E
BE6D 48             LD	C,B
BE6E 40             LD	B,B
BE6F 41             LD	B,C
BE70 44             LD	B,H
BE71 CF             RST	08
BE72 4E             LD	C,(HL)
BE73 49             LD	C,C
BE74 4E             LD	C,(HL)
BE75 45             LD	B,L
BE76 40             LD	B,B
- 
BE77 43             LD	B,E
BE78 4F             LD	C,A
BE79 52             LD	D,D
BE7A 4E             LD	C,(HL)
BE7B 45             LD	B,L
BE7C 52             LD	D,D
BE7D D3 48          OUT	(48),A
BE7F 4F             LD	C,A
BE80 43             LD	B,E
BE81 4B             LD	C,E
BE82 4C             LD	C,H
BE83 45             LD	B,L
BE84 D9             EXX
BE85 48             LD	C,B
BE86 4F             LD	C,A
BE87 4D             LD	C,L
BE88 45             LD	B,L
BE89 42             LD	B,D
BE8A 52             LD	D,D
BE8B 45             LD	B,L
- 
BE8C D7             RST	10
BE8D 44             LD	B,H
BE8E 4F             LD	C,A
BE8F 56             LD	D,(HL)
BE90 45             LD	B,L
BE91 40             LD	B,B
BE92 48             LD	C,B
BE93 4F             LD	C,A
BE94 4C             LD	C,H
BE95 C5             PUSH	BC
BE96 45             LD	B,L
BE97 41             LD	B,C
BE98 53             LD	D,E
BE99 54             LD	D,H
BE9A 40             LD	B,B
BE9B 54             LD	D,H
BE9C 4F             LD	C,A
BE9D 57             LD	D,A
BE9E 45             LD	B,L
BE9F D2 4E 4F       JP	NC,4F4E
- 
BEA2 54             LD	D,H
BEA3 40             LD	B,B
BEA4 54             LD	D,H
BEA5 48             LD	C,B
BEA6 45             LD	B,L
BEA7 40             LD	B,B
BEA8 45             LD	B,L
BEA9 4E             LD	C,(HL)
BEAA 44             LD	B,H
BEAB 40             LD	B,B
BEAC 4F             LD	C,A
BEAD 46             LD	B,(HL)
BEAE 40             LD	B,B
BEAF 54             LD	D,H
BEB0 48             LD	C,B
BEB1 45             LD	B,L
BEB2 40             LD	B,B
BEB3 57             LD	D,A
BEB4 4F             LD	C,A
BEB5 52             LD	D,D
- 
BEB6 4C             LD	C,H
BEB7 C4 43 48       CALL	NZ,4843
BEBA 41             LD	B,C
BEBB 53             LD	D,E
BEBC CD 55 4E       CALL	4E55
BEBF 44             LD	B,H
BEC0 49             LD	C,C
BEC1 53             LD	D,E
BEC2 43             LD	B,E
BEC3 4F             LD	C,A
BEC4 56             LD	D,(HL)
BEC5 45             LD	B,L
BEC6 52             LD	D,D
BEC7 45             LD	B,L
BEC8 44             LD	B,H
BEC9 40             LD	B,B
BECA 43             LD	B,E
BECB 48             LD	C,B
BECC 41             LD	B,C
BECD 4D             LD	C,L
- 
BECE 42             LD	B,D
BECF 45             LD	B,L
BED0 D2 45 41       JP	NC,4145
BED3 53             LD	D,E
BED4 59             LD	E,C
BED5 40             LD	B,B
BED6 43             LD	B,E
BED7 4F             LD	C,A
BED8 4D             LD	C,L
BED9 45             LD	B,L
BEDA 40             LD	B,B
BEDB 45             LD	B,L
BEDC 41             LD	B,C
BEDD 53             LD	D,E
BEDE 59             LD	E,C
BEDF 40             LD	B,B
BEE0 47             LD	B,A
BEE1 CF             RST	08
BEE2 49             LD	C,C
BEE3 54             LD	D,H
- 
BEE4 53             LD	D,E
BEE5 59             LD	E,C
BEE6 40             LD	B,B
BEE7 41             LD	B,C
BEE8 4E             LD	C,(HL)
BEE9 44             LD	B,H
BEEA 40             LD	B,B
BEEB 42             LD	B,D
BEEC 49             LD	C,C
BEED 54             LD	D,H
BEEE 53             LD	D,E
BEEF D9             EXX
BEF0 4D             LD	C,L
BEF1 45             LD	B,L
BEF2 40             LD	B,B
BEF3 54             LD	D,H
BEF4 41             LD	B,C
BEF5 52             LD	D,D
BEF6 5A             LD	E,D
BEF7 41             LD	B,C
- 
BEF8 CE 43          ADC	A,43
BEFA 41             LD	B,C
BEFB 52             LD	D,D
BEFC 52             LD	D,D
BEFD 59             LD	E,C
BEFE 40             LD	B,B
BEFF 4F             LD	C,A
BF00 CE 44          ADC	A,44
BF02 52             LD	D,D
BF03 55             LD	D,L
BF04 4E             LD	C,(HL)
BF05 4B             LD	C,E
BF06 40             LD	B,B
BF07 41             LD	B,C
BF08 4C             LD	C,H
BF09 49             LD	C,C
BF0A 45             LD	B,L
BF0B CE 42          ADC	A,42
BF0D 4F             LD	C,A
BF0E 58             LD	E,B
- 
BF0F 40             LD	B,B
BF10 52             LD	D,D
BF11 4F             LD	C,A
BF12 4F             LD	C,A
BF13 CD 53 49       CALL	4953
BF16 52             LD	D,D
BF17 40             LD	B,B
BF18 43             LD	B,E
BF19 4C             LD	C,H
BF1A 49             LD	C,C
BF1B 56             LD	D,(HL)
BF1C 45             LD	B,L
BF1D 3C             INC	A
BF1E 53             LD	D,E
BF1F 40             LD	B,B
BF20 47             LD	B,A
BF21 41             LD	B,C
BF22 52             LD	D,D
BF23 41             LD	B,C
BF24 47             LD	B,A
- 
BF25 C5             PUSH	BC
BF26 57             LD	D,A
BF27 4F             LD	C,A
BF28 52             LD	D,D
BF29 4B             LD	C,E
BF2A 53             LD	D,E
BF2B 48             LD	C,B
BF2C 4F             LD	C,A
BF2D D0             RET	NC
BF2E 42             LD	B,D
BF2F 52             LD	D,D
BF30 4F             LD	C,A
BF31 41             LD	B,C
BF32 44             LD	B,H
BF33 40             LD	B,B
BF34 4D             LD	C,L
BF35 41             LD	B,C
BF36 52             LD	D,D
BF37 53             LD	D,E
BF38 C8             RET	Z
- 
BF39 44             LD	B,H
BF3A 41             LD	B,C
BF3B 52             LD	D,D
BF3C 4B             LD	C,E
BF3D 40             LD	B,B
BF3E 41             LD	B,C
BF3F 4C             LD	C,H
BF40 4C             LD	C,H
BF41 45             LD	B,L
BF42 D9             EXX
BF43 50             LD	D,B
BF44 52             LD	D,D
BF45 49             LD	C,C
BF46 4E             LD	C,(HL)
BF47 54             LD	D,H
BF48 49             LD	C,C
BF49 4E             LD	C,(HL)
BF4A 47             LD	B,A
BF4B 40             LD	B,B
BF4C 50             LD	D,B
- 
BF4D 52             LD	D,D
BF4E 45             LD	B,L
BF4F 53             LD	D,E
BF50 D3 42          OUT	(42),A
BF52 41             LD	B,C
BF53 52             LD	D,D
BF54 42             LD	B,D
BF55 45             LD	B,L
BF56 52             LD	D,D
BF57 40             LD	B,B
BF58 53             LD	D,E
BF59 48             LD	C,B
BF5A 4F             LD	C,A
BF5B D0             RET	NC
BF5C 4F             LD	C,A
BF5D 46             LD	B,(HL)
BF5E 46             LD	B,(HL)
BF5F 40             LD	B,B
BF60 4C             LD	C,H
BF61 49             LD	C,C
- 
BF62 43             LD	B,E
BF63 45             LD	B,L
BF64 4E             LD	C,(HL)
BF65 43             LD	B,E
BF66 C5             PUSH	BC
BF67 42             LD	B,D
BF68 4F             LD	C,A
BF69 4F             LD	C,A
BF6A 4B             LD	C,E
BF6B 53             LD	D,E
BF6C 54             LD	D,H
BF6D 4F             LD	C,A
BF6E 52             LD	D,D
BF6F C5             PUSH	BC
BF70 53             LD	D,E
BF71 4F             LD	C,A
BF72 52             LD	D,D
BF73 54             LD	D,H
BF74 49             LD	C,C
BF75 4E             LD	C,(HL)
- 
BF76 47             LD	B,A
BF77 40             LD	B,B
BF78 4F             LD	C,A
BF79 46             LD	B,(HL)
BF7A 46             LD	B,(HL)
BF7B 49             LD	C,C
BF7C 43             LD	B,E
BF7D C5             PUSH	BC
BF7E 4E             LD	C,(HL)
BF7F 4F             LD	C,A
BF80 4F             LD	C,A
BF81 4B             LD	C,E
BF82 40             LD	B,B
BF83 45             LD	B,L
BF84 4E             LD	C,(HL)
BF85 C4 53 43       CALL	NZ,4353
BF88 41             LD	B,C
BF89 46             LD	B,(HL)
BF8A 46             LD	B,(HL)
BF8B 4F             LD	C,A
- 
BF8C 4C             LD	C,H
BF8D 44             LD	B,H
BF8E 49             LD	C,C
BF8F 4E             LD	C,(HL)
BF90 C7             RST	00
BF91 53             LD	D,E
BF92 45             LD	B,L
BF93 57             LD	D,A
BF94 41             LD	B,C
BF95 47             LD	B,A
BF96 45             LD	B,L
BF97 40             LD	B,B
BF98 57             LD	D,A
BF99 4F             LD	C,A
BF9A 52             LD	D,D
BF9B 4B             LD	C,E
BF9C D3 44          OUT	(44),A
BF9E 49             LD	C,C
BF9F 53             LD	D,E
BFA0 54             LD	D,H
- 
BFA1 52             LD	D,D
BFA2 49             LD	C,C
BFA3 42             LD	B,D
BFA4 55             LD	D,L
BFA5 54             LD	D,H
BFA6 49             LD	C,C
BFA7 4F             LD	C,A
BFA8 4E             LD	C,(HL)
BFA9 40             LD	B,B
BFAA 43             LD	B,E
BFAB 45             LD	B,L
BFAC 4E             LD	C,(HL)
BFAD 54             LD	D,H
BFAE 52             LD	D,D
BFAF C5             PUSH	BC
BFB0 4E             LD	C,(HL)
BFB1 49             LD	C,C
BFB2 43             LD	B,E
BFB3 48             LD	C,B
BFB4 C5             PUSH	BC
- 
BFB5 54             LD	D,H
BFB6 49             LD	C,C
BFB7 4D             LD	C,L
BFB8 45             LD	B,L
BFB9 58             LD	E,B
BFBA 40             LD	B,B
BFBB 50             LD	D,B
BFBC 4C             LD	C,H
BFBD 41             LD	B,C
BFBE 4E             LD	C,(HL)
BFBF D4 53 54       CALL	NC,5453
BFC2 4F             LD	C,A
BFC3 52             LD	D,D
BFC4 41             LD	B,C
BFC5 47             LD	B,A
BFC6 45             LD	B,L
BFC7 40             LD	B,B
BFC8 46             LD	B,(HL)
BFC9 41             LD	B,C
BFCA 43             LD	B,E
- 
BFCB 49             LD	C,C
BFCC 4C             LD	C,H
BFCD 49             LD	C,C
BFCE 54             LD	D,H
BFCF D9             EXX
BFD0 49             LD	C,C
BFD1 54             LD	D,H
BFD2 40             LD	B,B
BFD3 53             LD	D,E
BFD4 54             LD	D,H
BFD5 49             LD	C,C
BFD6 50             LD	D,B
BFD7 55             LD	D,L
BFD8 4C             LD	C,H
BFD9 41             LD	B,C
BFDA 54             LD	D,H
BFDB 45             LD	B,L
BFDC 44             LD	B,H
BFDD 40             LD	B,B
BFDE 42             LD	B,D
- 
BFDF 52             LD	D,D
BFE0 49             LD	C,C
BFE1 C5             PUSH	BC
BFE2 42             LD	B,D
BFE3 59             LD	E,C
BFE4 54             LD	D,H
BFE5 45             LD	B,L
BFE6 40             LD	B,B
BFE7 4D             LD	C,L
BFE8 C5             PUSH	BC
BFE9 47             LD	B,A
BFEA 55             LD	D,L
BFEB 4E             LD	C,(HL)
BFEC 4B             LD	C,E
BFED 40             LD	B,B
BFEE 52             LD	D,D
BFEF 45             LD	B,L
BFF0 46             LD	B,(HL)
BFF1 49             LD	C,C
BFF2 4E             LD	C,(HL)
- 
BFF3 45             LD	B,L
BFF4 52             LD	D,D
BFF5 D9             EXX
BFF6 42             LD	B,D
BFF7 41             LD	B,C
BFF8 4B             LD	C,E
BFF9 45             LD	B,L
BFFA 52             LD	D,D
BFFB D9             EXX
BFFC 50             LD	D,B
BFFD 4F             LD	C,A
BFFE 54             LD	D,H
BFFF 54             LD	D,H
C000 45             LD	B,L
C001 52             LD	D,D
C002 D9             EXX
C003 53             LD	D,E
C004 55             LD	D,L
C005 41             LD	B,C
C006 56             LD	D,(HL)
- 
C007 49             LD	C,C
C008 54             LD	D,H
C009 45             LD	B,L
C00A 52             LD	D,D
C00B 40             LD	B,B
C00C 49             LD	C,C
C00D 4E             LD	C,(HL)
C00E 40             LD	B,B
C00F 4D             LD	C,L
C010 4F             LD	C,A
C011 44             LD	B,H
C012 CF             RST	08
C013 43             LD	B,E
C014 4F             LD	C,A
C015 4D             LD	C,L
C016 4D             LD	C,L
C017 4F             LD	C,A
C018 44             LD	B,H
C019 4F             LD	C,A
C01A 52             LD	D,D
- 
C01B 45             LD	B,L
C01C 40             LD	B,B
C01D 36 34          LD	(HL),34
C01F 40             LD	B,B
C020 45             LD	B,L
C021 4D             LD	C,L
C022 42             LD	B,D
C023 41             LD	B,C
C024 53             LD	D,E
C025 53             LD	D,E
C026 D9             EXX
C027 44             LD	B,H
C028 49             LD	C,C
C029 53             LD	D,E
C02A 55             LD	D,L
C02B 53             LD	D,E
C02C 45             LD	B,L
C02D 44             LD	B,H
C02E 40             LD	B,B
C02F 51             LD	D,C
- 
C030 55             LD	D,L
C031 41             LD	B,C
C032 52             LD	D,D
C033 52             LD	D,D
C034 D9             EXX
C035 53             LD	D,E
C036 54             LD	D,H
C037 45             LD	B,L
C038 50             LD	D,B
C039 53             LD	D,E
C03A 40             LD	B,B
C03B 54             LD	D,H
C03C 4F             LD	C,A
C03D 40             LD	B,B
C03E 42             LD	B,D
C03F 41             LD	B,C
C040 43             LD	B,E
C041 4B             LD	C,E
C042 40             LD	B,B
C043 53             LD	D,E
- 
C044 54             LD	D,H
C045 52             LD	D,D
C046 45             LD	B,L
C047 45             LD	B,L
C048 D4 42 41       CALL	NC,4142
C04B 43             LD	B,E
C04C 4B             LD	C,E
C04D 40             LD	B,B
C04E 53             LD	D,E
C04F 54             LD	D,H
C050 52             LD	D,D
C051 45             LD	B,L
C052 45             LD	B,L
C053 D4 43 41       CALL	NC,4143
C056 54             LD	D,H
C057 41             LD	B,C
C058 43             LD	B,E
C059 4F             LD	C,A
C05A 4D             LD	C,L
C05B 42             LD	B,D
- 
C05C D3 43          OUT	(43),A
C05E 4F             LD	C,A
C05F 42             LD	B,D
C060 42             LD	B,D
C061 4C             LD	C,H
C062 45             LD	B,L
C063 52             LD	D,D
C064 D3 48          OUT	(48),A
C066 49             LD	C,C
C067 47             LD	B,A
C068 48             LD	C,B
C069 40             LD	B,B
C06A 53             LD	D,E
C06B 54             LD	D,H
C06C 52             LD	D,D
C06D 45             LD	B,L
C06E 45             LD	B,L
C06F 54             LD	D,H
C070 40             LD	B,B
C071 42             LD	B,D
- 
C072 41             LD	B,C
C073 4E             LD	C,(HL)
C074 CB 4D          BIT	1,L
C076 45             LD	B,L
C077 44             LD	B,H
C078 49             LD	C,C
C079 43             LD	B,E
C07A 41             LD	B,C
C07B 4C             LD	C,H
C07C 40             LD	B,B
C07D 43             LD	B,E
C07E 45             LD	B,L
C07F 4E             LD	C,(HL)
C080 54             LD	D,H
C081 52             LD	D,D
C082 C5             PUSH	BC
C083 50             LD	D,B
C084 55             LD	D,L
C085 42             LD	B,D
C086 4C             LD	C,H
- 
C087 49             LD	C,C
C088 43             LD	B,E
C089 40             LD	B,B
C08A 49             LD	C,C
C08B 4E             LD	C,(HL)
C08C 43             LD	B,E
C08D 4F             LD	C,A
C08E 4E             LD	C,(HL)
C08F 56             LD	D,(HL)
C090 45             LD	B,L
C091 4E             LD	C,(HL)
C092 49             LD	C,C
C093 45             LD	B,L
C094 4E             LD	C,(HL)
C095 43             LD	B,E
C096 C5             PUSH	BC
C097 5A             LD	E,D
C098 45             LD	B,L
C099 42             LD	B,D
C09A 52             LD	D,D
- 
C09B 41             LD	B,C
C09C 40             LD	B,B
C09D 43             LD	B,E
C09E 52             LD	D,D
C09F 4F             LD	C,A
C0A0 53             LD	D,E
C0A1 53             LD	D,E
C0A2 49             LD	C,C
C0A3 4E             LD	C,(HL)
C0A4 C7             RST	00
C0A5 54             LD	D,H
C0A6 48             LD	C,B
C0A7 45             LD	B,L
C0A8 40             LD	B,B
C0A9 52             LD	D,D
C0AA 4F             LD	C,A
C0AB 41             LD	B,C
C0AC 44             LD	B,H
C0AD 40             LD	B,B
C0AE 54             LD	D,H
- 
C0AF 4F             LD	C,A
C0B0 40             LD	B,B
C0B1 41             LD	B,C
C0B2 53             LD	D,E
C0B3 48             LD	C,B
C0B4 42             LD	B,D
C0B5 D9             EXX
C0B6 4F             LD	C,A
C0B7 4C             LD	C,H
C0B8 44             LD	B,H
C0B9 40             LD	B,B
C0BA 42             LD	B,D
C0BB 52             LD	D,D
C0BC 49             LD	C,C
C0BD 44             LD	B,H
C0BE 47             LD	B,A
C0BF C5             PUSH	BC
C0C0 56             LD	D,(HL)
C0C1 41             LD	B,C
C0C2 55             LD	D,L
- 
C0C3 4C             LD	C,H
C0C4 54             LD	D,H
C0C5 D3 54          OUT	(54),A
C0C7 48             LD	C,B
C0C8 45             LD	B,L
C0C9 40             LD	B,B
C0CA 45             LD	B,L
C0CB 4E             LD	C,(HL)
C0CC 44             LD	B,H
C0CD 40             LD	B,B
C0CE 4F             LD	C,A
C0CF 46             LD	B,(HL)
C0D0 40             LD	B,B
C0D1 54             LD	D,H
C0D2 48             LD	C,B
C0D3 45             LD	B,L
C0D4 40             LD	B,B
C0D5 57             LD	D,A
C0D6 4F             LD	C,A
C0D7 52             LD	D,D
- 
C0D8 4C             LD	C,H
C0D9 C4 49 53       CALL	NZ,5349
C0DC 41             LD	B,C
C0DD 4D             LD	C,L
C0DE 42             LD	B,D
C0DF 41             LD	B,C
C0E0 52             LD	D,D
C0E1 44             LD	B,H
C0E2 3C             INC	A
C0E3 53             LD	D,E
C0E4 40             LD	B,B
C0E5 4C             LD	C,H
C0E6 45             LD	B,L
C0E7 47             LD	B,A
C0E8 41             LD	B,C
C0E9 43             LD	B,E
C0EA D9             EXX
C0EB 41             LD	B,C
C0EC 42             LD	B,D
C0ED 41             LD	B,C
- 
C0EE 4E             LD	C,(HL)
C0EF 44             LD	B,H
C0F0 4F             LD	C,A
C0F1 4E             LD	C,(HL)
C0F2 45             LD	B,L
C0F3 44             LD	B,H
C0F4 40             LD	B,B
C0F5 48             LD	C,B
C0F6 45             LD	B,L
C0F7 52             LD	D,D
C0F8 4D             LD	C,L
C0F9 49             LD	C,C
C0FA 54             LD	D,H
C0FB 41             LD	B,C
C0FC 47             LD	B,A
C0FD C5             PUSH	BC
C0FE 55             LD	D,L
C0FF 4E             LD	C,(HL)
C100 44             LD	B,H
C101 45             LD	B,L
- 
C102 52             LD	D,D
C103 40             LD	B,B
C104 54             LD	D,H
C105 48             LD	C,B
C106 45             LD	B,L
C107 40             LD	B,B
C108 48             LD	C,B
C109 45             LD	B,L
C10A 52             LD	D,D
C10B 4D             LD	C,L
C10C 49             LD	C,C
C10D 54             LD	D,H
C10E 41             LD	B,C
C10F 47             LD	B,A
C110 C5             PUSH	BC
C111 53             LD	D,E
C112 4D             LD	C,L
C113 55             LD	D,L
C114 47             LD	B,A
C115 47             LD	B,A
- 
C116 4C             LD	C,H
C117 45             LD	B,L
C118 52             LD	D,D
C119 3C             INC	A
C11A 53             LD	D,E
C11B 40             LD	B,B
C11C 48             LD	C,B
C11D 49             LD	C,C
C11E 44             LD	B,H
C11F 45             LD	B,L
C120 4F             LD	C,A
C121 55             LD	D,L
C122 D4 48 41       CALL	NC,4148
C125 52             LD	D,D
C126 42             LD	B,D
C127 4F             LD	C,A
C128 55             LD	D,L
C129 52             LD	D,D
C12A 40             LD	B,B
C12B 57             LD	D,A
- 
C12C 41             LD	B,C
C12D 4C             LD	C,H
C12E CC FA 05       CALL	Z,05FA
C131 00             NOP
C132 00             NOP
C133 04             INC	B
C134 10 FA          DJNZ	C130
C136 00             NOP
C137 01 03 03       LD	BC,0303
C13A 02             LD	(BC),A
C13B FA 0D 08       JP	M,080D
C13E 00             NOP
C13F 0C             INC	C
C140 03             INC	BC
C141 FD 0D          DEC	C
C143 13             INC	DE
C144 03             INC	BC
C145 1D             DEC	E
C146 FA 0D 10       JP	M,100D
C149 10 03          DJNZ	C14E
- 
C14B 03             INC	BC
C14C FA 05 08       JP	M,0805
C14F 05             DEC	B
C150 09             ADD	HL,BC
C151 03             INC	BC
C152 FA 04 08       JP	M,0804
C155 0A             LD	A,(BC)
C156 04             INC	B
C157 04             INC	B
C158 FD 04          INC	B
C15A 00             NOP
C15B 12             LD	(DE),A
C15C 0E FE          LD	C,FE
C15E 04             INC	B
C15F 01 1F 0A       LD	BC,0A1F
C162 FE 0D          CP	0D
C164 0D             DEC	C
C165 1F             RRA
C166 06 FE          LD	B,FE
C168 05             DEC	B
- 
C169 0D             DEC	C
C16A 1C             INC	E
C16B 04             INC	B
C16C FB             EI
C16D 0D             DEC	C
C16E 1D             DEC	E
C16F 06 FB          LD	B,FB
C171 00             NOP
C172 10 03          DJNZ	C177
C174 FD 07          RLCA
C176 03             INC	BC
C177 10 0D          DJNZ	C186
C179 FD 07          RLCA
C17B 0A             LD	A,(BC)
C17C 10 03          DJNZ	C181
C17E FD 06 0D       LD	B,0D
C181 14             INC	D
C182 04             INC	B
C183 FE 04          CP	04
C185 08             EX	AF,AF'
- 
C186 18 06          JR	C18E
C188 FD 06 08       LD	B,08
C18B 19             ADD	HL,DE
C18C 06 FB          LD	B,FB
C18E 03             INC	BC
C18F 1D             DEC	E
C190 05             DEC	B
C191 FC 0B 04       CALL	M,040B
C194 06 FC          LD	B,FC
C196 0C             INC	C
C197 04             INC	B
C198 0B             DEC	BC
C199 FC 0B 04       CALL	M,040B
C19C 0D             DEC	C
C19D FF             RST	38
C19E 68             LD	L,B
C19F 01 18 08       LD	BC,0818
C1A2 88             ADC	A,B
C1A3 01 70 02       LD	BC,0270
C1A6 70             LD	(HL),B
- 
C1A7 20 88          JR	NZ,C131
C1A9 03             INC	BC
C1AA 2C             INC	L
C1AB 00             NOP
C1AC 88             ADC	A,B
C1AD 98             SBC	A,B
C1AE D0             RET	NC
C1AF 02             LD	(BC),A
C1B0 68             LD	L,B
C1B1 81             ADD	A,C
C1B2 40             LD	B,B
C1B3 20 88          JR	NZ,C13D
C1B5 04             INC	B
C1B6 64             LD	H,H
C1B7 01 B0 30       LD	BC,30B0
C1BA 58             LD	E,B
C1BB 05             DEC	B
C1BC FF             RST	38
C1BD FD 04          INC	B
C1BF 0F             RRCA
- 
C1C0 00             NOP
C1C1 02             LD	(BC),A
C1C2 FA 04 0F       JP	M,0F04
C1C5 06 05          LD	B,05
C1C7 0A             LD	A,(BC)
C1C8 FD 1F          RRA
C1CA 12             LD	(DE),A
C1CB 00             NOP
C1CC 06 FD          LD	B,FD
C1CE 20 13          JR	NZ,C1E3
C1D0 00             NOP
C1D1 06 FA          LD	B,FA
C1D3 04             INC	B
C1D4 08             EX	AF,AF'
C1D5 10 0C          DJNZ	C1E3
C1D7 10 FB          DJNZ	C1D4
C1D9 08             EX	AF,AF'
C1DA 0E 07          LD	C,07
C1DC FA 03 10       JP	M,1003
C1DF 07             RLCA
- 
C1E0 04             INC	B
C1E1 0A             LD	A,(BC)
C1E2 FA 03 09       JP	M,0903
C1E5 11 0B 0F       LD	DE,0F0B
C1E8 FA 04 00       JP	M,0004
C1EB 10 04          DJNZ	C1F1
C1ED 10 FA          DJNZ	C1E9
C1EF 03             INC	BC
C1F0 00             NOP
C1F1 11 03 0F       LD	DE,0F03
C1F4 FB             EI
C1F5 0F             RRCA
C1F6 0B             DEC	BC
C1F7 05             DEC	B
C1F8 FC 0B 04       CALL	M,040B
C1FB 1B             DEC	DE
C1FC FC 0C 04       CALL	M,040C
C1FF 1D             DEC	E
C200 FF             RST	38
C201 64             LD	H,H
- 
C202 81             ADD	A,C
C203 70             LD	(HL),B
C204 00             NOP
C205 30 01          JR	NC,C208
C207 98             SBC	A,B
C208 20 A8          JR	NZ,C1B2
C20A 30 FF          JR	NC,C20B
C20C FD 0A          LD	A,(BC)
C20E 00             NOP
C20F 00             NOP
C210 20 FA          JR	NZ,C20C
C212 0A             LD	A,(BC)
C213 01 00 07       LD	BC,0700
C216 03             INC	BC
C217 FD 0A          LD	A,(BC)
C219 03             INC	BC
C21A 05             DEC	B
C21B 1B             DEC	DE
C21C FA 05 04       JP	M,0405
C21F 03             INC	BC
- 
C220 0A             LD	A,(BC)
C221 03             INC	BC
C222 FE 05          CP	05
C224 04             INC	B
C225 05             DEC	B
C226 0A             LD	A,(BC)
C227 FE 0A          CP	0A
C229 03             INC	BC
C22A 1F             RRA
C22B 07             RLCA
C22C FE 01          CP	01
C22E 0A             LD	A,(BC)
C22F 1F             RRA
C230 0A             LD	A,(BC)
C231 FD 01 13 00    LD	BC,0013
C235 1F             RRA
C236 FE 05          CP	05
C238 08             EX	AF,AF'
C239 00             NOP
C23A 08             EX	AF,AF'
- 
C23B FA 01 10       JP	M,1001 ; JP	M,ED_STOP
C23E 00             NOP
C23F 03             INC	BC
C240 08             EX	AF,AF'
C241 FE 01          CP	01
C243 0C             INC	C
C244 08             EX	AF,AF'
C245 07             RLCA
C246 FD 07          RLCA
C248 0A             LD	A,(BC)
C249 03             INC	BC
C24A 02             LD	(BC),A
C24B FB             EI
C24C 03             INC	BC
C24D 03             INC	BC
C24E 07             RLCA
C24F FB             EI
C250 0A             LD	A,(BC)
C251 01 06 FB       LD	BC,FB06
C254 0C             INC	C
- 
C255 06 04          LD	B,04
C257 FE 01          CP	01
C259 0A             LD	A,(BC)
C25A 0F             RRCA
C25B 09             ADD	HL,BC
C25C FA 01 10       JP	M,1001 ; JP	M,ED_STOP
C25F 1C             INC	E
C260 03             INC	BC
C261 03             INC	BC
C262 FE 01          CP	01
C264 10 12          DJNZ	C278
C266 03             INC	BC
C267 FB             EI
C268 10 10          DJNZ	C27A
C26A 04             INC	B
C26B FD 07          RLCA
C26D 0A             LD	A,(BC)
C26E 1D             DEC	E
C26F 02             LD	(BC),A
C270 FE 05          CP	05
- 
C272 06 17          LD	B,17
C274 08             EX	AF,AF'
C275 FD 07          RLCA
C277 07             RLCA
C278 15             DEC	D
C279 02             LD	(BC),A
C27A FD 06 07       LD	B,07
C27D 18 03          JR	C282
C27F FD 07          RLCA
C281 0A             LD	A,(BC)
C282 10 04          DJNZ	C288
C284 FD 06 0D       LD	B,0D
C287 18 02          JR	C28B
C289 FF             RST	38
C28A 74             LD	(HL),H
C28B 01 58 30       LD	BC,3058
C28E 78             LD	A,B
C28F 42             LD	B,D
C290 48             LD	C,B
C291 80             ADD	A,B
- 
C292 88             ADC	A,B
C293 98             SBC	A,B
C294 D0             RET	NC
C295 03             INC	BC
C296 FF             RST	38
C297 FA 04 00       JP	M,0004
C29A 00             NOP
C29B 04             INC	B
C29C 06 FE          LD	B,FE
C29E 04             INC	B
C29F 04             INC	B
C2A0 00             NOP
C2A1 07             RLCA
C2A2 FA 04 09       JP	M,0904
C2A5 00             NOP
C2A6 02             LD	(BC),A
C2A7 07             RLCA
C2A8 FD 04          INC	B
C2AA 09             ADD	HL,BC
C2AB 09             ADD	HL,BC
- 
C2AC 09             ADD	HL,BC
C2AD FD 04          INC	B
C2AF 0A             LD	A,(BC)
C2B0 09             ADD	HL,BC
C2B1 07             RLCA
C2B2 FA 04 09       JP	M,0904
C2B5 19             ADD	HL,DE
C2B6 02             LD	(BC),A
C2B7 07             RLCA
C2B8 FE 0D          CP	0D
C2BA 0B             DEC	BC
C2BB 1F             RRA
C2BC 09             ADD	HL,BC
C2BD FD 0D          DEC	C
C2BF 0D             DEC	C
C2C0 00             NOP
C2C1 12             LD	(DE),A
C2C2 FD 0D          DEC	C
C2C4 0E 00          LD	C,00
C2C6 13             INC	DE
- 
C2C7 FD 0D          DEC	C
C2C9 0F             RRCA
C2CA 00             NOP
C2CB 14             INC	D
C2CC FD 0D          DEC	C
C2CE 10 00          DJNZ	C2D0
C2D0 15             DEC	D
C2D1 FD 0D          DEC	C
C2D3 11 00 16       LD	DE,1600
C2D6 FA 0D 12       JP	M,120D
C2D9 00             NOP
C2DA 02             LD	(BC),A
C2DB 1D             DEC	E
C2DC FB             EI
C2DD 09             ADD	HL,BC
C2DE 1D             DEC	E
C2DF 0B             DEC	BC
C2E0 FB             EI
C2E1 00             NOP
C2E2 01 09 FC       LD	BC,FC09
- 
C2E5 0B             DEC	BC
C2E6 0B             DEC	BC
C2E7 1A             LD	A,(DE)
C2E8 FF             RST	38
C2E9 74             LD	(HL),H
C2EA 01 38 20       LD	BC,2038
C2ED 58             LD	E,B
C2EE 45             LD	B,L
C2EF 2C             INC	L
C2F0 00             NOP
C2F1 38 48          JR 	C,C33B
C2F3 80             ADD	A,B
C2F4 43             LD	B,E
C2F5 FF             RST	38
C2F6 FD 03          INC	BC
C2F8 00             NOP
C2F9 00             NOP
C2FA 1D             DEC	E
C2FB FB             EI
C2FC 00             NOP
- 
C2FD 1D             DEC	E
C2FE 05             DEC	B
C2FF FE 04          CP	04
C301 00             NOP
C302 1F             RRA
C303 0A             LD	A,(BC)
C304 FD 0A          LD	A,(BC)
C306 03             INC	BC
C307 00             NOP
C308 13             INC	DE
C309 FC 0A 04       CALL	M,040A
C30C 13             INC	DE
C30D FC 0A 05       CALL	M,050A
C310 14             INC	D
C311 FC 0A 06       CALL	M,060A
C314 15             DEC	D
C315 FC 0A 07       CALL	M,070A
C318 16 FC          LD	D,FC
C31A 0A             LD	A,(BC)
C31B 08             EX	AF,AF'
- 
C31C 17             RLA
C31D FD 04          INC	B
C31F 09             ADD	HL,BC
C320 18 07          JR	C329
C322 FE 04          CP	04
C324 0A             LD	A,(BC)
C325 18 08          JR	C32F
C327 FD 07          RLCA
C329 05             DEC	B
C32A 1B             DEC	DE
C32B 04             INC	B
C32C FE 05          CP	05
C32E 04             INC	B
C32F 00             NOP
C330 10 FB          DJNZ	C32D
C332 11 01 03       LD	DE,0301
C335 FD 05          DEC	B
C337 11 03 04       LD	DE,0403
C33A FD 04          INC	B
C33C 11 07 11       LD	DE,1107
- 
C33F FE 05          CP	05
C341 12             LD	(DE),A
C342 03             INC	BC
C343 02             LD	(BC),A
C344 FD 04          INC	B
C346 12             LD	(DE),A
C347 04             INC	B
C348 04             INC	B
C349 FD 04          INC	B
C34B 13             INC	DE
C34C 04             INC	B
C34D 02             LD	(BC),A
C34E FB             EI
C34F 07             RLCA
C350 01 05 FD       LD	BC,FD05
C353 06 07          LD	B,07
C355 03             INC	BC
C356 07             RLCA
C357 FE 05          CP	05
C359 07             RLCA
- 
C35A 0A             LD	A,(BC)
C35B 0A             LD	A,(BC)
C35C FD 07          RLCA
C35E 09             ADD	HL,BC
C35F 0B             DEC	BC
C360 03             INC	BC
C361 FD 06 0B       LD	B,0B
C364 13             INC	DE
C365 05             DEC	B
C366 FD 06 0E       LD	B,0E
C369 0E 03          LD	C,03
C36B FD 07          RLCA
C36D 0C             INC	C
C36E 01 07 FB       LD	BC,FB07
C371 0C             INC	C
C372 08             EX	AF,AF'
C373 05             DEC	B
C374 FF             RST	38
C375 6C             LD	L,H
C376 81             ADD	A,C
- 
C377 78             LD	A,B
C378 20 60          JR	NZ,C3DA
C37A 02             LD	(BC),A
C37B 44             LD	B,H
C37C 00             NOP
C37D 50             LD	D,B
C37E 18 40          JR	C3C0
C380 44             LD	B,H
C381 44             LD	B,H
C382 82             ADD	A,D
C383 78             LD	A,B
C384 58             LD	E,B
C385 B0             OR	B
C386 42             LD	B,D
C387 FF             RST	38
C388 FA 0D 0B       JP	M,0B0D
C38B 00             NOP
C38C 09             ADD	HL,BC
C38D 03             INC	BC
C38E FA 0D 12       JP	M,120D
- 
C391 03             INC	BC
C392 02             LD	(BC),A
C393 0C             INC	C
C394 FA 11 12       JP	M,1211
C397 0F             RRCA
C398 02             LD	(BC),A
C399 11 FA 11       LD	DE,11FA
C39C 00             NOP
C39D 1D             DEC	E
C39E 12             LD	(DE),A
C39F 03             INC	BC
C3A0 FA 04 09       JP	M,0904
C3A3 00             NOP
C3A4 02             LD	(BC),A
C3A5 04             INC	B
C3A6 FA 04 09       JP	M,0904
C3A9 09             ADD	HL,BC
C3AA 02             LD	(BC),A
C3AB 04             INC	B
C3AC FA 11 09       JP	M,0911
- 
C3AF 0F             RRCA
C3B0 02             LD	(BC),A
C3B1 03             INC	BC
C3B2 FE 11          CP	11
C3B4 0B             DEC	BC
C3B5 0F             RRCA
C3B6 07             RLCA
C3B7 FB             EI
C3B8 09             ADD	HL,BC
C3B9 0D             DEC	C
C3BA 09             ADD	HL,BC
C3BB FB             EI
C3BC 00             NOP
C3BD 16 04          LD	D,04
C3BF FD 15          DEC	D
C3C1 04             INC	B
C3C2 14             INC	D
C3C3 06 FD          LD	B,FD
C3C5 15             DEC	D
C3C6 07             RLCA
- 
C3C7 1B             DEC	DE
C3C8 02             LD	(BC),A
C3C9 FD 15          DEC	D
C3CB 0A             LD	A,(BC)
C3CC 17             RLA
C3CD 03             INC	BC
C3CE FD 15          DEC	D
C3D0 0D             DEC	C
C3D1 1B             DEC	DE
C3D2 02             LD	(BC),A
C3D3 FD 15          DEC	D
C3D5 0F             RRCA
C3D6 16 03          LD	D,03
C3D8 FD 15          DEC	D
C3DA 0F             RRCA
C3DB 10 02          DJNZ	C3DF
C3DD FD 15          DEC	D
C3DF 10 03          DJNZ	C3E4
C3E1 02             LD	(BC),A
C3E2 FD 15          DEC	D
- 
C3E4 0E 03          LD	C,03
C3E6 04             INC	B
C3E7 FF             RST	38
C3E8 6C             LD	L,H
C3E9 81             ADD	A,C
C3EA 28 38          JR	Z,C424
C3EC 60             LD	H,B
C3ED 02             LD	(BC),A
C3EE 6C             LD	L,H
C3EF 82             ADD	A,D
C3F0 98             SBC	A,B
C3F1 28 70          JR	Z,C463
C3F3 44             LD	B,H
C3F4 2C             INC	L
C3F5 00             NOP
C3F6 80             ADD	A,B
C3F7 80             ADD	A,B
C3F8 C8             RET	Z
C3F9 01 FF FA       LD	BC,FAFF
C3FC 11 0D 1D       LD	DE,1D0D
- 
C3FF 07             RLCA
C400 03             INC	BC
C401 FD 15          DEC	D
C403 10 15          DJNZ	C41A
C405 07             RLCA
C406 FB             EI
C407 10 16          DJNZ	C41F
C409 04             INC	B
C40A FF             RST	38
C40B FF             RST	38
C40C FA 11 0D       JP	M,0D11
C40F 00             NOP
C410 07             RLCA
C411 03             INC	BC
C412 FA 11 0C       JP	M,0C11
C415 0E 08          LD	C,08
C417 03             INC	BC
C418 FD 15          DEC	D
C41A 10 03          DJNZ	C41F
C41C 0B             DEC	BC
- 
C41D FA 19 12       JP	M,1219 ; JP	M,RAM_SET
C420 11 02 08       LD	DE,0802 ; LD	DE,LD_BLOCK
C423 FC 19 13       CALL	M,1319
C426 19             ADD	HL,DE
C427 FB             EI
C428 10 07          DJNZ	C431
C42A 04             INC	B
C42B FC 69 0E       CALL	M,0E69
C42E 0D             DEC	C
C42F FF             RST	38
C430 9B             SBC	A,E
C431 73             LD	(HL),E
C432 66             LD	H,(HL)
C433 FF             RST	38
C434 FF             RST	38
C435 00             NOP
C436 00             NOP
C437 00             NOP
C438 00             NOP
C439 00             NOP
- 
C43A 00             NOP
C43B 00             NOP
C43C 00             NOP
C43D 00             NOP
C43E 00             NOP
C43F 00             NOP
C440 00             NOP
C441 00             NOP
C442 00             NOP
C443 00             NOP
C444 00             NOP
C445 00             NOP
C446 00             NOP
C447 00             NOP
C448 00             NOP
C449 00             NOP
C44A 00             NOP
C44B 00             NOP
C44C 00             NOP
C44D 00             NOP
- 
C44E 00             NOP
C44F 00             NOP
C450 00             NOP
C451 00             NOP
C452 00             NOP
C453 00             NOP
C454 00             NOP
C455 00             NOP
C456 00             NOP
C457 00             NOP
C458 00             NOP
C459 00             NOP
C45A 00             NOP
C45B 00             NOP
C45C 00             NOP
C45D 00             NOP
C45E 00             NOP
C45F 00             NOP
C460 00             NOP
C461 00             NOP
- 
C462 00             NOP
C463 00             NOP
C464 00             NOP
C465 00             NOP
C466 00             NOP
C467 00             NOP
C468 00             NOP
C469 00             NOP
C46A 00             NOP
C46B 00             NOP
C46C 00             NOP
C46D 00             NOP
C46E 00             NOP
C46F 00             NOP
C470 00             NOP
C471 00             NOP
C472 00             NOP
C473 00             NOP
C474 00             NOP
C475 00             NOP
- 
C476 00             NOP
C477 00             NOP
C478 00             NOP
C479 00             NOP
C47A 00             NOP
C47B 00             NOP
C47C 00             NOP
C47D 00             NOP
C47E 00             NOP
C47F 00             NOP
C480 00             NOP
C481 00             NOP
C482 00             NOP
C483 00             NOP
C484 00             NOP
C485 00             NOP
C486 00             NOP
C487 00             NOP
C488 00             NOP
C489 00             NOP
- 
C48A 00             NOP
C48B 00             NOP
C48C 00             NOP
C48D 00             NOP
C48E 00             NOP
C48F 00             NOP
C490 00             NOP
C491 00             NOP
C492 00             NOP
C493 00             NOP
C494 00             NOP
C495 00             NOP
C496 00             NOP
C497 00             NOP
C498 00             NOP
C499 00             NOP
C49A 00             NOP
C49B 00             NOP
C49C 00             NOP
C49D 00             NOP
- 
C49E 00             NOP
C49F 00             NOP
C4A0 00             NOP
C4A1 00             NOP
C4A2 00             NOP
C4A3 00             NOP
C4A4 00             NOP
C4A5 00             NOP
C4A6 00             NOP
C4A7 00             NOP
C4A8 00             NOP
C4A9 00             NOP
C4AA 00             NOP
C4AB 00             NOP
C4AC 00             NOP
C4AD 00             NOP
C4AE 00             NOP
C4AF 00             NOP
C4B0 00             NOP
C4B1 00             NOP
- 
C4B2 00             NOP
C4B3 00             NOP
C4B4 00             NOP
C4B5 00             NOP
C4B6 00             NOP
C4B7 00             NOP
C4B8 00             NOP
C4B9 00             NOP
C4BA 00             NOP
C4BB 00             NOP
C4BC 00             NOP
C4BD 00             NOP
C4BE 00             NOP
C4BF 00             NOP
C4C0 00             NOP
C4C1 00             NOP
C4C2 00             NOP
C4C3 00             NOP
C4C4 00             NOP
C4C5 00             NOP
- 
C4C6 00             NOP
C4C7 00             NOP
C4C8 00             NOP
C4C9 00             NOP
C4CA 00             NOP
C4CB 00             NOP
C4CC 00             NOP
C4CD 00             NOP
C4CE 00             NOP
C4CF 00             NOP
C4D0 00             NOP
C4D1 00             NOP
C4D2 00             NOP
C4D3 00             NOP
C4D4 00             NOP
C4D5 00             NOP
C4D6 00             NOP
C4D7 00             NOP
C4D8 00             NOP
C4D9 00             NOP
- 
C4DA 00             NOP
C4DB 00             NOP
C4DC 00             NOP
C4DD 00             NOP
C4DE 00             NOP
C4DF 00             NOP
C4E0 00             NOP
C4E1 00             NOP
C4E2 00             NOP
C4E3 00             NOP
C4E4 00             NOP
C4E5 00             NOP
C4E6 00             NOP
C4E7 00             NOP
C4E8 00             NOP
C4E9 00             NOP
C4EA 00             NOP
C4EB 00             NOP
C4EC 00             NOP
C4ED 00             NOP
- 
C4EE 00             NOP
C4EF 00             NOP
C4F0 00             NOP
C4F1 00             NOP
C4F2 00             NOP
C4F3 00             NOP
C4F4 00             NOP
C4F5 15             DEC	D
C4F6 15             DEC	D
C4F7 15             DEC	D
C4F8 15             DEC	D
C4F9 09             ADD	HL,BC
C4FA 09             ADD	HL,BC
C4FB 15             DEC	D
C4FC 15             DEC	D
C4FD 00             NOP
C4FE 00             NOP
C4FF 00             NOP
C500 00             NOP
C501 00             NOP
- 
C502 00             NOP
C503 00             NOP
C504 00             NOP
C505 00             NOP
C506 00             NOP
C507 00             NOP
C508 00             NOP
C509 00             NOP
C50A 00             NOP
C50B 00             NOP
C50C 00             NOP
C50D 00             NOP
C50E 00             NOP
C50F 00             NOP
C510 00             NOP
C511 15             DEC	D
C512 15             DEC	D
C513 15             DEC	D
C514 00             NOP
C515 00             NOP
- 
C516 00             NOP
C517 00             NOP
C518 00             NOP
C519 09             ADD	HL,BC
C51A 09             ADD	HL,BC
C51B 00             NOP
C51C 00             NOP
C51D 00             NOP
C51E 00             NOP
C51F 00             NOP
C520 00             NOP
C521 00             NOP
C522 00             NOP
C523 00             NOP
C524 00             NOP
C525 00             NOP
C526 00             NOP
C527 00             NOP
C528 00             NOP
C529 00             NOP
- 
C52A 00             NOP
C52B 00             NOP
C52C 00             NOP
C52D 00             NOP
C52E 00             NOP
C52F 00             NOP
C530 00             NOP
C531 00             NOP
C532 00             NOP
C533 00             NOP
C534 00             NOP
C535 00             NOP
C536 00             NOP
C537 00             NOP
C538 00             NOP
C539 09             ADD	HL,BC
C53A 09             ADD	HL,BC
C53B 00             NOP
C53C 00             NOP
C53D 00             NOP
- 
C53E 00             NOP
C53F 00             NOP
C540 00             NOP
C541 00             NOP
C542 00             NOP
C543 00             NOP
C544 00             NOP
C545 00             NOP
C546 00             NOP
C547 00             NOP
C548 00             NOP
C549 00             NOP
C54A 00             NOP
C54B 00             NOP
C54C 00             NOP
C54D 00             NOP
C54E 00             NOP
C54F 00             NOP
C550 00             NOP
C551 00             NOP
- 
C552 00             NOP
C553 00             NOP
C554 00             NOP
C555 00             NOP
C556 00             NOP
C557 00             NOP
C558 00             NOP
C559 06 06          LD	B,06
C55B 06 06          LD	B,06
C55D 00             NOP
C55E 00             NOP
C55F 00             NOP
C560 00             NOP
C561 15             DEC	D
C562 15             DEC	D
C563 15             DEC	D
C564 15             DEC	D
C565 00             NOP
C566 00             NOP
C567 00             NOP
- 
C568 00             NOP
C569 15             DEC	D
C56A 15             DEC	D
C56B 15             DEC	D
C56C 15             DEC	D
C56D 00             NOP
C56E 00             NOP
C56F 00             NOP
C570 00             NOP
C571 06 06          LD	B,06
C573 06 00          LD	B,00
C575 00             NOP
C576 00             NOP
C577 00             NOP
C578 00             NOP
C579 00             NOP
C57A 00             NOP
C57B 00             NOP
C57C 00             NOP
C57D 00             NOP
- 
C57E 00             NOP
C57F 00             NOP
C580 00             NOP
C581 00             NOP
C582 00             NOP
C583 00             NOP
C584 00             NOP
C585 00             NOP
C586 00             NOP
C587 00             NOP
C588 00             NOP
C589 00             NOP
C58A 00             NOP
C58B 00             NOP
C58C 00             NOP
C58D 00             NOP
C58E 00             NOP
C58F 00             NOP
C590 00             NOP
C591 00             NOP
- 
C592 00             NOP
C593 00             NOP
C594 00             NOP
C595 00             NOP
C596 00             NOP
C597 00             NOP
C598 00             NOP
C599 00             NOP
C59A 00             NOP
C59B 00             NOP
C59C 00             NOP
C59D 00             NOP
C59E 00             NOP
C59F 00             NOP
C5A0 00             NOP
C5A1 00             NOP
C5A2 00             NOP
C5A3 00             NOP
C5A4 00             NOP
C5A5 00             NOP
- 
C5A6 00             NOP
C5A7 00             NOP
C5A8 00             NOP
C5A9 00             NOP
C5AA 00             NOP
C5AB 00             NOP
C5AC 00             NOP
C5AD 00             NOP
C5AE 00             NOP
C5AF 00             NOP
C5B0 00             NOP
C5B1 00             NOP
C5B2 00             NOP
C5B3 00             NOP
C5B4 00             NOP
C5B5 00             NOP
C5B6 00             NOP
C5B7 00             NOP
C5B8 00             NOP
C5B9 00             NOP
- 
C5BA 00             NOP
C5BB 00             NOP
C5BC 15             DEC	D
C5BD 15             DEC	D
C5BE 15             DEC	D
C5BF 15             DEC	D
C5C0 15             DEC	D
C5C1 15             DEC	D
C5C2 15             DEC	D
C5C3 15             DEC	D
C5C4 15             DEC	D
C5C5 15             DEC	D
C5C6 15             DEC	D
C5C7 15             DEC	D
C5C8 15             DEC	D
C5C9 15             DEC	D
C5CA 15             DEC	D
C5CB 15             DEC	D
C5CC 15             DEC	D
C5CD 15             DEC	D
- 
C5CE 15             DEC	D
C5CF 00             NOP
C5D0 00             NOP
C5D1 00             NOP
C5D2 00             NOP
C5D3 00             NOP
C5D4 00             NOP
C5D5 00             NOP
C5D6 00             NOP
C5D7 00             NOP
C5D8 00             NOP
C5D9 00             NOP
C5DA 00             NOP
C5DB 00             NOP
C5DC 00             NOP
C5DD 00             NOP
C5DE 00             NOP
C5DF 00             NOP
C5E0 00             NOP
C5E1 00             NOP
- 
C5E2 00             NOP
C5E3 00             NOP
C5E4 00             NOP
C5E5 00             NOP
C5E6 00             NOP
C5E7 00             NOP
C5E8 00             NOP
C5E9 00             NOP
C5EA 00             NOP
C5EB 00             NOP
C5EC 00             NOP
C5ED 00             NOP
C5EE 00             NOP
C5EF 00             NOP
C5F0 00             NOP
C5F1 00             NOP
C5F2 00             NOP
C5F3 00             NOP
C5F4 00             NOP
C5F5 00             NOP
- 
C5F6 00             NOP
C5F7 00             NOP
C5F8 00             NOP
C5F9 00             NOP
C5FA 00             NOP
C5FB 00             NOP
C5FC 00             NOP
C5FD 00             NOP
C5FE 00             NOP
C5FF 00             NOP
C600 00             NOP
C601 00             NOP
C602 00             NOP
C603 00             NOP
C604 00             NOP
C605 00             NOP
C606 00             NOP
C607 00             NOP
C608 00             NOP
C609 00             NOP
- 
C60A 00             NOP
C60B 00             NOP
C60C 00             NOP
C60D 00             NOP
C60E 00             NOP
C60F 00             NOP
C610 00             NOP
C611 00             NOP
C612 00             NOP
C613 00             NOP
C614 00             NOP
C615 19             ADD	HL,DE
C616 19             ADD	HL,DE
C617 19             ADD	HL,DE
C618 19             ADD	HL,DE
C619 19             ADD	HL,DE
C61A 19             ADD	HL,DE
C61B 19             ADD	HL,DE
C61C 19             ADD	HL,DE
C61D 19             ADD	HL,DE
- 
C61E 19             ADD	HL,DE
C61F 19             ADD	HL,DE
C620 19             ADD	HL,DE
C621 19             ADD	HL,DE
C622 19             ADD	HL,DE
C623 19             ADD	HL,DE
C624 19             ADD	HL,DE
C625 19             ADD	HL,DE
C626 19             ADD	HL,DE
C627 19             ADD	HL,DE
C628 19             ADD	HL,DE
C629 19             ADD	HL,DE
C62A 19             ADD	HL,DE
C62B 19             ADD	HL,DE
C62C 19             ADD	HL,DE
C62D 19             ADD	HL,DE
C62E 19             ADD	HL,DE
C62F 19             ADD	HL,DE
C630 19             ADD	HL,DE
C631 19             ADD	HL,DE
- 
C632 09             ADD	HL,BC
C633 09             ADD	HL,BC
C634 19             ADD	HL,DE
C635 19             ADD	HL,DE
C636 19             ADD	HL,DE
C637 19             ADD	HL,DE
C638 19             ADD	HL,DE
C639 19             ADD	HL,DE
C63A 19             ADD	HL,DE
C63B 19             ADD	HL,DE
C63C 19             ADD	HL,DE
C63D 19             ADD	HL,DE
C63E 19             ADD	HL,DE
C63F 19             ADD	HL,DE
C640 19             ADD	HL,DE
C641 19             ADD	HL,DE
C642 19             ADD	HL,DE
C643 19             ADD	HL,DE
C644 19             ADD	HL,DE
C645 19             ADD	HL,DE
- 
C646 19             ADD	HL,DE
C647 19             ADD	HL,DE
C648 19             ADD	HL,DE
C649 19             ADD	HL,DE
C64A 19             ADD	HL,DE
C64B 19             ADD	HL,DE
C64C 19             ADD	HL,DE
C64D 19             ADD	HL,DE
C64E 19             ADD	HL,DE
C64F 19             ADD	HL,DE
C650 19             ADD	HL,DE
C651 19             ADD	HL,DE
C652 09             ADD	HL,BC
C653 09             ADD	HL,BC
C654 19             ADD	HL,DE
C655 19             ADD	HL,DE
C656 19             ADD	HL,DE
C657 19             ADD	HL,DE
C658 19             ADD	HL,DE
C659 19             ADD	HL,DE
- 
C65A 19             ADD	HL,DE
C65B 19             ADD	HL,DE
C65C 19             ADD	HL,DE
C65D 19             ADD	HL,DE
C65E 19             ADD	HL,DE
C65F 19             ADD	HL,DE
C660 19             ADD	HL,DE
C661 19             ADD	HL,DE
C662 19             ADD	HL,DE
C663 19             ADD	HL,DE
C664 19             ADD	HL,DE
C665 19             ADD	HL,DE
C666 19             ADD	HL,DE
C667 19             ADD	HL,DE
C668 19             ADD	HL,DE
C669 19             ADD	HL,DE
C66A 19             ADD	HL,DE
C66B 19             ADD	HL,DE
C66C 19             ADD	HL,DE
C66D 19             ADD	HL,DE
- 
C66E 19             ADD	HL,DE
C66F 19             ADD	HL,DE
C670 19             ADD	HL,DE
C671 19             ADD	HL,DE
C672 09             ADD	HL,BC
C673 09             ADD	HL,BC
C674 19             ADD	HL,DE
C675 19             ADD	HL,DE
C676 19             ADD	HL,DE
C677 19             ADD	HL,DE
C678 19             ADD	HL,DE
C679 19             ADD	HL,DE
C67A 19             ADD	HL,DE
C67B 19             ADD	HL,DE
C67C 19             ADD	HL,DE
C67D 19             ADD	HL,DE
C67E 19             ADD	HL,DE
C67F 19             ADD	HL,DE
C680 19             ADD	HL,DE
C681 19             ADD	HL,DE
- 
C682 19             ADD	HL,DE
C683 19             ADD	HL,DE
C684 19             ADD	HL,DE
C685 19             ADD	HL,DE
C686 19             ADD	HL,DE
C687 19             ADD	HL,DE
C688 19             ADD	HL,DE
C689 19             ADD	HL,DE
C68A 19             ADD	HL,DE
C68B 19             ADD	HL,DE
C68C 19             ADD	HL,DE
C68D 19             ADD	HL,DE
C68E 19             ADD	HL,DE
C68F 19             ADD	HL,DE
C690 19             ADD	HL,DE
C691 19             ADD	HL,DE
C692 09             ADD	HL,BC
C693 09             ADD	HL,BC
C694 19             ADD	HL,DE
C695 19             ADD	HL,DE
- 
C696 19             ADD	HL,DE
C697 19             ADD	HL,DE
C698 19             ADD	HL,DE
C699 19             ADD	HL,DE
C69A 19             ADD	HL,DE
C69B 19             ADD	HL,DE
C69C 19             ADD	HL,DE
C69D 19             ADD	HL,DE
C69E 19             ADD	HL,DE
C69F 19             ADD	HL,DE
C6A0 19             ADD	HL,DE
C6A1 19             ADD	HL,DE
C6A2 19             ADD	HL,DE
C6A3 19             ADD	HL,DE
C6A4 19             ADD	HL,DE
C6A5 19             ADD	HL,DE
C6A6 19             ADD	HL,DE
C6A7 19             ADD	HL,DE
C6A8 19             ADD	HL,DE
C6A9 19             ADD	HL,DE
- 
C6AA 19             ADD	HL,DE
C6AB 19             ADD	HL,DE
C6AC 19             ADD	HL,DE
C6AD 19             ADD	HL,DE
C6AE 19             ADD	HL,DE
C6AF 19             ADD	HL,DE
C6B0 19             ADD	HL,DE
C6B1 19             ADD	HL,DE
C6B2 09             ADD	HL,BC
C6B3 09             ADD	HL,BC
C6B4 19             ADD	HL,DE
C6B5 6C             LD	L,H
C6B6 81             ADD	A,C
C6B7 48             LD	C,B
C6B8 18 50          JR	C70A
C6BA 01 6C 01       LD	BC,016C
C6BD 88             ADC	A,B
C6BE 18 40          JR	C700
C6C0 02             LD	(BC),A
C6C1 6C             LD	L,H
- 
C6C2 81             ADD	A,C
C6C3 C8             RET	Z
C6C4 18 50          JR	C716
C6C6 03             INC	BC
C6C7 48             LD	C,B
C6C8 01 50 58       LD	BC,5850
C6CB B8             CP	B
C6CC 04             INC	B
C6CD 44             LD	B,H
C6CE 82             ADD	A,D
C6CF 68             LD	L,B
C6D0 20 C8          JR	NZ,C69A
C6D2 42             LD	B,D
C6D3 FF             RST	38
C6D4 FA 19 12       JP	M,1219 ; JP	M,RAM_SET
C6D7 00             NOP
C6D8 02             LD	(BC),A
C6D9 20 FD          JR	NZ,C6D8
C6DB 19             ADD	HL,DE
C6DC 11 01 1F       LD	DE,1F01
- 
C6DF FD 19          ADD	IY,DE
C6E1 10 02          DJNZ	C6E5
C6E3 1E FD          LD	E,FD
C6E5 19             ADD	HL,DE
C6E6 0F             RRCA
C6E7 03             INC	BC
C6E8 1D             DEC	E
C6E9 FA 04 09       JP	M,0904
C6EC 07             RLCA
C6ED 06 04          LD	B,04
C6EF FD 15          DEC	D
C6F1 0C             INC	C
C6F2 00             NOP
C6F3 03             INC	BC
C6F4 FD 06 07       LD	B,07
C6F7 0F             RRCA
C6F8 03             INC	BC
C6F9 FD 06 08       LD	B,08
C6FC 16 04          LD	D,04
C6FE FD 15          DEC	D
- 
C700 06 1C          LD	B,1C
C702 04             INC	B
C703 F8             RET	M
C704 83             ADD	A,E
C705 0C             INC	C
C706 0B             DEC	BC
C707 03             INC	BC
C708 02             LD	(BC),A
C709 FF             RST	38
C70A 6C             LD	L,H
C70B 01 20 20       LD	BC,2020
C70E 60             LD	H,B
C70F 44             LD	B,H
C710 6C             LD	L,H
C711 81             ADD	A,C
C712 60             LD	H,B
C713 18 50          JR	C765
C715 01 FF FA       LD	BC,FAFF
C718 11 00 00       LD	DE,0000 ; LD	DE,START
C71B 0D             DEC	C
- 
C71C 03             INC	BC
C71D FD 0D          DEC	C
C71F 0D             DEC	C
C720 00             NOP
C721 06 FA          LD	B,FA
C723 0D             DEC	C
C724 0E 00          LD	C,00
C726 02             LD	(BC),A
C727 08             EX	AF,AF'
C728 FD 0D          DEC	C
C72A 10 00          DJNZ	C72C
C72C 0A             LD	A,(BC)
C72D FD 0D          DEC	C
C72F 11 00 0C       LD	DE,0C00
C732 FA 0D 12       JP	M,120D
C735 00             NOP
C736 02             LD	(BC),A
C737 20 FD          JR	NZ,C736
C739 15             DEC	D
C73A 08             EX	AF,AF'
- 
C73B 03             INC	BC
C73C 03             INC	BC
C73D FB             EI
C73E 00             NOP
C73F 07             RLCA
C740 05             DEC	B
C741 FD 06 05       LD	B,05
C744 05             DEC	B
C745 08             EX	AF,AF'
C746 FA 11 00       JP	M,0011
C749 0D             DEC	C
C74A 09             ADD	HL,BC
C74B 03             INC	BC
C74C FD 19          ADD	IY,DE
C74E 00             NOP
C74F 10 0B          DJNZ	C75C
C751 FD 19          ADD	IY,DE
C753 01 10 0C       LD	BC,0C10 ; LD	BC,PO_TOKENS
C756 FD 19          ADD	IY,DE
C758 02             LD	(BC),A
- 
C759 10 0D          DJNZ	C768
C75B FD 19          ADD	IY,DE
C75D 03             INC	BC
C75E 10 0E          DJNZ	C76E
C760 FE 11          CP	11
C762 04             INC	B
C763 1C             INC	E
C764 06 FD          LD	B,FD
C766 06 08          LD	B,08
C768 15             DEC	D
C769 07             RLCA
C76A FD 15          DEC	D
C76C 0B             DEC	BC
C76D 0B             DEC	BC
C76E 08             EX	AF,AF'
C76F FA 11 0B       JP	M,0B11
C772 0D             DEC	C
C773 02             LD	(BC),A
C774 03             INC	BC
C775 FA 0D 0D       JP	M,0D0D
- 
C778 0D             DEC	C
C779 02             LD	(BC),A
C77A 0B             DEC	BC
C77B FA 0D 0D       JP	M,0D0D
C77E 1A             LD	A,(DE)
C77F 02             LD	(BC),A
C780 06 FF          LD	B,FF
C782 6C             LD	L,H
C783 81             ADD	A,C
C784 88             ADC	A,B
C785 20 48          JR	NZ,C7CF
C787 04             INC	B
C788 6C             LD	L,H
C789 81             ADD	A,C
C78A 40             LD	B,B
C78B 30 70          JR	NC,C7FD
C78D 43             LD	B,E
C78E 6C             LD	L,H
C78F 81             ADD	A,C
C790 C0             RET	NZ
- 
C791 48             LD	C,B
C792 80             ADD	A,B
C793 44             LD	B,H
C794 98             SBC	A,B
C795 20 C0          JR	NZ,C757
C797 78             LD	A,B
C798 FF             RST	38
C799 FA 0D 0D       JP	M,0D0D
C79C 00             NOP
C79D 07             RLCA
C79E 20 FA          JR	NZ,C79A
C7A0 00             NOP
C7A1 0F             RRCA
C7A2 00             NOP
C7A3 03             INC	BC
C7A4 18 FB          JR	C7A1
C7A6 12             LD	(DE),A
C7A7 16 02          LD	D,02
C7A9 FD 1D          DEC	E
C7AB 0A             LD	A,(BC)
- 
C7AC 06 09          LD	B,09
C7AE FD 06 09       LD	B,09
C7B1 13             INC	DE
C7B2 07             RLCA
C7B3 FD 1D          DEC	E
C7B5 07             RLCA
C7B6 1A             LD	A,(DE)
C7B7 04             INC	B
C7B8 FD 1D          DEC	E
C7BA 05             DEC	B
C7BB 13             INC	DE
C7BC 05             DEC	B
C7BD FD 06 05       LD	B,05
C7C0 07             RLCA
C7C1 08             EX	AF,AF'
C7C2 FA 05 02       JP	M,0205 ; JP	M,MAIN_KEYS
C7C5 1E 08          LD	E,08
C7C7 02             LD	(BC),A
C7C8 FD 19          ADD	IY,DE
C7CA 00             NOP
- 
C7CB 1D             DEC	E
C7CC 03             INC	BC
C7CD FD 19          ADD	IY,DE
C7CF 01 1C 04       LD	BC,041C
C7D2 FF             RST	38
C7D3 70             LD	(HL),B
C7D4 05             DEC	B
C7D5 80             ADD	A,B
C7D6 08             EX	AF,AF'
C7D7 58             LD	E,B
C7D8 03             INC	BC
C7D9 44             LD	B,H
C7DA 81             ADD	A,C
C7DB 58             LD	E,B
C7DC 30 68          JR	NC,C846
C7DE 06 44          LD	B,44
C7E0 01 40 30       LD	BC,3040
C7E3 68             LD	L,B
C7E4 05             DEC	B
C7E5 98             SBC	A,B
- 
C7E6 78             LD	A,B
C7E7 88             ADC	A,B
C7E8 34             INC	(HL)
C7E9 FF             RST	38
C7EA FD 19          ADD	IY,DE
C7EC 00             NOP
C7ED 00             NOP
C7EE 1E FD          LD	E,FD
C7F0 19             ADD	HL,DE
C7F1 01 00 1F       LD	BC,1F00
C7F4 FD 00          NOP
C7F6 01 09 02       LD	BC,0209
C7F9 FD 00          NOP
C7FB 01 13 02       LD	BC,0213
C7FE FE 05          CP	05
C800 02             LD	(BC),A
C801 00             NOP
C802 08             EX	AF,AF'
C803 FD 05          DEC	B
C805 09             ADD	HL,BC
- 
C806 01 07 FA       LD	BC,FA07
C809 0D             DEC	C
C80A 12             LD	(DE),A
C80B 00             NOP
C80C 02             LD	(BC),A
C80D 20 FD          JR	NZ,C80C
C80F 0D             DEC	C
C810 11 00 0D       LD	DE,0D00 ; LD	DE,REPORT_D
C813 FD 0D          DEC	C
C815 10 00          DJNZ	C817
C817 0B             DEC	BC
C818 FD 0D          DEC	C
C81A 0F             RRCA
C81B 00             NOP
C81C 09             ADD	HL,BC
C81D FD 0D          DEC	C
C81F 0E 00          LD	C,00
C821 07             RLCA
C822 FD 0D          DEC	C
C824 0D             DEC	C
- 
C825 00             NOP
C826 05             DEC	B
C827 FA 05 02       JP	M,0205 ; JP	M,MAIN_KEYS
C82A 1A             LD	A,(DE)
C82B 0D             DEC	C
C82C 03             INC	BC
C82D FD 1D          DEC	E
C82F 0E 0F          LD	C,0F
C831 0B             DEC	BC
C832 FB             EI
C833 0A             LD	A,(BC)
C834 18 04          JR	C83A
C836 FD 05          DEC	B
C838 0A             LD	A,(BC)
C839 16 02          LD	D,02
C83B FD 1D          DEC	E
C83D 0A             LD	A,(BC)
C83E 0C             INC	C
C83F 06 FD          LD	B,FD
C841 1D             DEC	E
- 
C842 06 0C          LD	B,0C
C844 06 FD          LD	B,FD
C846 1D             DEC	E
C847 06 16          LD	B,16
C849 04             INC	B
C84A FF             RST	38
C84B 78             LD	A,B
C84C 81             ADD	A,C
C84D 48             LD	C,B
C84E 08             EX	AF,AF'
C84F 60             LD	H,B
C850 43             LD	B,E
C851 78             LD	A,B
C852 01 98 08       LD	BC,0898
C855 60             LD	H,B
C856 46             LD	B,(HL)
C857 58             LD	E,B
C858 01 80 68       LD	BC,6880
C85B F0             RET	P
C85C 47             LD	B,A
- 
C85D FF             RST	38
C85E FA 0D 00       JP	M,000D
C861 00             NOP
C862 07             RLCA
C863 02             LD	(BC),A
C864 FD 0D          DEC	C
C866 00             NOP
C867 02             LD	(BC),A
C868 1E FC          LD	E,FC
C86A 0B             DEC	BC
C86B 01 02 FA       LD	BC,FA02
C86E 0D             DEC	C
C86F 0A             LD	A,(BC)
C870 00             NOP
C871 0A             LD	A,(BC)
C872 02             LD	(BC),A
C873 FD 0D          DEC	C
C875 13             INC	DE
C876 02             LD	(BC),A
C877 1E FA          LD	E,FA
- 
C879 0D             DEC	C
C87A 0A             LD	A,(BC)
C87B 1E 0A          LD	E,0A
C87D 02             LD	(BC),A
C87E FA 0D 0A       JP	M,0A0D
C881 0C             INC	C
C882 02             LD	(BC),A
C883 14             INC	D
C884 FA 0D 0C       JP	M,0C0D
C887 0C             INC	C
C888 05             DEC	B
C889 07             RLCA
C88A FE 0D          CP	0D
C88C 04             INC	B
C88D 0C             INC	C
C88E 06 FB          LD	B,FB
C890 04             INC	B
C891 0D             DEC	C
C892 06 FA          LD	B,FA
C894 0D             DEC	C
- 
C895 01 0F 07       LD	BC,070F
C898 03             INC	BC
C899 FA 0D 00       JP	M,000D
C89C 12             LD	(DE),A
C89D 08             EX	AF,AF'
C89E 0E FB          LD	C,FB
C8A0 00             NOP
C8A1 16 04          LD	D,04
C8A3 FA 00 02       JP	M,0200
C8A6 18 02          JR	C8AA
C8A8 07             RLCA
C8A9 FB             EI
C8AA 04             INC	B
C8AB 1D             DEC	E
C8AC 06 FA          LD	B,FA
C8AE 00             NOP
C8AF 05             DEC	B
C8B0 12             LD	(DE),A
C8B1 03             INC	BC
C8B2 07             RLCA
- 
C8B3 FE 0D          CP	0D
C8B5 08             EX	AF,AF'
C8B6 1F             RRA
C8B7 02             LD	(BC),A
C8B8 FD 22 0A 02    LD	(020A),IY
C8BC 03             INC	BC
C8BD FD 22 08 09    LD	(0908),IY
C8C1 03             INC	BC
C8C2 FD 22 04 09    LD	(0904),IY
C8C6 03             INC	BC
C8C7 FD 15          DEC	D
C8C9 06 02          LD	B,02
C8CB 03             INC	BC
C8CC FD 22 0E 02    LD	(020E),IY
C8D0 03             INC	BC
C8D1 FD 15          DEC	D
C8D3 0C             INC	C
C8D4 09             ADD	HL,BC
C8D5 03             INC	BC
C8D6 FD 22 10 09    LD	(0910),IY
- 
C8DA 03             INC	BC
C8DB FA 00 10       JP	M,1000
C8DE 1E 03          LD	E,03
C8E0 02             LD	(BC),A
C8E1 FF             RST	38
C8E2 5C             LD	E,H
C8E3 01 40 78       LD	BC,7840
C8E6 D8             RET	C
C8E7 47             LD	B,A
C8E8 70             LD	(HL),B
C8E9 04             INC	B
C8EA 30 10          JR	NC,C8FC
C8EC 88             ADC	A,B
C8ED 05             DEC	B
C8EE 5C             LD	E,H
C8EF 01 88 48       LD	BC,4888
C8F2 E0             RET	PO
C8F3 03             INC	BC
C8F4 FF             RST	38
C8F5 FD 20 13       JR	NZ,C90B
- 
C8F8 00             NOP
C8F9 20 FD          JR	NZ,C8F8
C8FB 1F             RRA
C8FC 12             LD	(DE),A
C8FD 00             NOP
C8FE 20 FD          JR	NZ,C8FD
C900 1D             DEC	E
C901 03             INC	BC
C902 17             RLA
C903 09             ADD	HL,BC
C904 FD 1D          DEC	E
C906 07             RLCA
C907 17             RLA
C908 09             ADD	HL,BC
C909 FD 1D          DEC	E
C90B 0B             DEC	BC
C90C 17             RLA
C90D 09             ADD	HL,BC
C90E FD 04          INC	B
C910 0F             RRCA
- 
C911 17             RLA
C912 09             ADD	HL,BC
C913 FB             EI
C914 03             INC	BC
C915 1A             LD	A,(DE)
C916 04             INC	B
C917 FB             EI
C918 07             RLCA
C919 17             RLA
C91A 04             INC	B
C91B FB             EI
C91C 07             RLCA
C91D 1D             DEC	E
C91E 04             INC	B
C91F FB             EI
C920 0B             DEC	BC
C921 1A             LD	A,(DE)
C922 04             INC	B
C923 FD 1D          DEC	E
C925 03             INC	BC
- 
C926 00             NOP
C927 02             LD	(BC),A
C928 FD 1D          DEC	E
C92A 06 00          LD	B,00
C92C 02             LD	(BC),A
C92D FD 1D          DEC	E
C92F 09             ADD	HL,BC
C930 00             NOP
C931 02             LD	(BC),A
C932 FD 1D          DEC	E
C934 0C             INC	C
C935 00             NOP
C936 02             LD	(BC),A
C937 FD 1D          DEC	E
C939 0F             RRCA
C93A 00             NOP
C93B 02             LD	(BC),A
C93C FF             RST	38
C93D 24             INC	H
C93E 01 90 28       LD	BC,2890
- 
C941 28 46          JR	Z,C989
C943 FF             RST	38
C944 FA 0D 00       JP	M,000D
C947 00             NOP
C948 14             INC	D
C949 20 FA          JR	NZ,C945
C94B 00             NOP
C94C 01 01 12       LD	BC,1201
C94F 1E FB          LD	E,FB
C951 00             NOP
C952 0B             DEC	BC
C953 06 FB          LD	B,FB
C955 06 14          LD	B,14
C957 05             DEC	B
C958 FB             EI
C959 06 1A          LD	B,1A
C95B 05             DEC	B
C95C FD 1D          DEC	E
C95E 06 01          LD	B,01
C960 02             LD	(BC),A
- 
C961 FD 0D          DEC	C
C963 06 08          LD	B,08
C965 0C             INC	C
C966 FD 1D          DEC	E
C968 06 1C          LD	B,1C
C96A 03             INC	BC
C96B FD 1D          DEC	E
C96D 0B             DEC	BC
C96E 01 02 FD       LD	BC,FD02
C971 06 0B          LD	B,0B
C973 0E 08          LD	C,08
C975 FD 1D          DEC	E
C977 10 1A          DJNZ	C993
C979 05             DEC	B
C97A FD 1D          DEC	E
C97C 0B             DEC	BC
C97D 1A             LD	A,(DE)
C97E 05             DEC	B
C97F FC 1E 05       CALL	M,051E
C982 05             DEC	B
- 
C983 FE 00          CP	00
C985 09             ADD	HL,BC
C986 1F             RRA
C987 02             LD	(BC),A
C988 FE 00          CP	00
C98A 11 1F 02       LD	DE,021F
C98D FD 06 0D       LD	B,0D
C990 06 05          LD	B,05
C992 FD 1D          DEC	E
C994 0F             RRCA
C995 0C             INC	C
C996 09             ADD	HL,BC
C997 FB             EI
C998 10 1A          DJNZ	C9B4
C99A 03             INC	BC
C99B FC 69 0E       CALL	M,0E69
C99E 1E F8          LD	E,F8
C9A0 83             ADD	A,E
C9A1 10 02          DJNZ	C9A5
C9A3 03             INC	BC
- 
C9A4 02             LD	(BC),A
C9A5 FF             RST	38
C9A6 58             LD	E,B
C9A7 01 20 68       LD	BC,6820
C9AA A0             AND	B
C9AB 05             DEC	B
C9AC 58             LD	E,B
C9AD 81             ADD	A,C
C9AE 88             ADC	A,B
C9AF 20 90          JR	NZ,C941
C9B1 03             INC	BC
C9B2 7C             LD	A,H
C9B3 02             LD	(BC),A
C9B4 B8             CP	B
C9B5 10 80          DJNZ	C937
C9B7 04             INC	B
C9B8 9B             SBC	A,E
C9B9 73             LD	(HL),E
C9BA EE FF          XOR	FF
C9BC FA 0D 00       JP	M,000D
- 
C9BF 00             NOP
C9C0 04             INC	B
C9C1 20 FE          JR	NZ,C9C1
C9C3 0D             DEC	C
C9C4 04             INC	B
C9C5 00             NOP
C9C6 05             DEC	B
C9C7 FE 0D          CP	0D
C9C9 0B             DEC	BC
C9CA 1F             RRA
C9CB 09             ADD	HL,BC
C9CC FD 0D          DEC	C
C9CE 13             INC	DE
C9CF 00             NOP
C9D0 1F             RRA
C9D1 FA 0D 0B       JP	M,0B0D
C9D4 00             NOP
C9D5 06 06          LD	B,06
C9D7 FA 05 09       JP	M,0905
C9DA 0A             LD	A,(BC)
- 
C9DB 04             INC	B
C9DC 05             DEC	B
C9DD FA 0A 0B       JP	M,0B0A
C9E0 13             INC	DE
C9E1 03             INC	BC
C9E2 0D             DEC	C
C9E3 FC 1E 0E       CALL	M,0E1E
C9E6 0B             DEC	BC
C9E7 FC 1E 0E       CALL	M,0E1E
C9EA 14             INC	D
C9EB FC 1E 06       CALL	M,061E
C9EE 18 FC          JR	C9EC
C9F0 0B             DEC	BC
C9F1 04             INC	B
C9F2 03             INC	BC
C9F3 FC 0C 04       CALL	M,040C
C9F6 05             DEC	B
C9F7 FB             EI
C9F8 13             INC	DE
C9F9 1D             DEC	E
- 
C9FA 01 FF 58       LD	BC,58FF
C9FD 01 88 40       LD	BC,4088
CA00 D8             RET	C
CA01 45             LD	B,L
CA02 58             LD	E,B
CA03 01 48 98       LD	BC,9848
CA06 F0             RET	P
CA07 07             RLCA
CA08 70             LD	(HL),B
CA09 01 38 20       LD	BC,2038
CA0C 78             LD	A,B
CA0D 47             LD	B,A
CA0E 70             LD	(HL),B
CA0F 02             LD	(BC),A
CA10 80             ADD	A,B
CA11 20 78          JR	NZ,CA8B
CA13 05             DEC	B
CA14 FF             RST	38
CA15 FA 0D 00       JP	M,000D
CA18 00             NOP
- 
CA19 04             INC	B
CA1A 20 FE          JR	NZ,CA1A
CA1C 0D             DEC	C
CA1D 0B             DEC	BC
CA1E 00             NOP
CA1F 09             ADD	HL,BC
CA20 FE 0D          CP	0D
CA22 04             INC	B
CA23 1F             RRA
CA24 0A             LD	A,(BC)
CA25 FA 0D 0E       JP	M,0E0D ; JP	M,CL_SCR_2
CA28 1B             DEC	DE
CA29 03             INC	BC
CA2A 05             DEC	B
CA2B FA 0D 0B       JP	M,0B0D
CA2E 01 03 04       LD	BC,0403
CA31 FD 0D          DEC	C
CA33 13             INC	DE
CA34 00             NOP
CA35 20 FA          JR	NZ,CA31
- 
CA37 02             LD	(BC),A
CA38 09             ADD	HL,BC
CA39 09             ADD	HL,BC
CA3A 04             INC	B
CA3B 02             LD	(BC),A
CA3C FA 02 0A       JP	M,0A02
CA3F 0B             DEC	BC
CA40 04             INC	B
CA41 02             LD	(BC),A
CA42 FA 02 0B       JP	M,0B02
CA45 0D             DEC	C
CA46 04             INC	B
CA47 02             LD	(BC),A
CA48 FA 02 0C       JP	M,0C02
CA4B 0F             RRCA
CA4C 03             INC	BC
CA4D 04             INC	B
CA4E FD 02          LD	(BC),A
CA50 0E 13          LD	C,13
CA52 02             LD	(BC),A
- 
CA53 FB             EI
CA54 00             NOP
CA55 1D             DEC	E
CA56 09             ADD	HL,BC
CA57 FB             EI
CA58 0E 19          LD	C,19
CA5A 05             DEC	B
CA5B FB             EI
CA5C 09             ADD	HL,BC
CA5D 11 04 FD       LD	DE,FD04
CA60 08             EX	AF,AF'
CA61 09             ADD	HL,BC
CA62 13             INC	DE
CA63 0C             INC	C
CA64 FC 1E 0E       CALL	M,0E1E
CA67 04             INC	B
CA68 FF             RST	38
CA69 58             LD	E,B
CA6A 01 38 88       LD	BC,8838
CA6D D8             RET	C
- 
CA6E 02             LD	(BC),A
CA6F 58             LD	E,B
CA70 02             LD	(BC),A
CA71 88             ADC	A,B
CA72 08             EX	AF,AF'
CA73 80             ADD	A,B
CA74 03             INC	BC
CA75 70             LD	(HL),B
CA76 02             LD	(BC),A
CA77 30 28          JR	NC,CAA1
CA79 68             LD	L,B
CA7A 42             LD	B,D
CA7B 70             LD	(HL),B
CA7C 01 B0 50       LD	BC,50B0
CA7F 88             ADC	A,B
CA80 43             LD	B,E
CA81 FF             RST	38
CA82 FA 0D 00       JP	M,000D
CA85 00             NOP
CA86 03             INC	BC
- 
CA87 20 FE          JR	NZ,CA87
CA89 0D             DEC	C
CA8A 03             INC	BC
CA8B 00             NOP
CA8C 0E FD          LD	C,FD
CA8E 0D             DEC	C
CA8F 13             INC	DE
CA90 00             NOP
CA91 20 FA          JR	NZ,CA8D
CA93 0D             DEC	C
CA94 0F             RRCA
CA95 06 04          LD	B,04
CA97 04             INC	B
CA98 FA 0D 11       JP	M,110D ; JP	M,KEY_NEXT
CA9B 0C             INC	C
CA9C 02             LD	(BC),A
CA9D 0A             LD	A,(BC)
CA9E FA 0D 0F       JP	M,0F0D
CAA1 18 04          JR	CAA7
CAA3 08             EX	AF,AF'
- 
CAA4 FA 0D 08       JP	M,080D
CAA7 18 04          JR	CAAD
CAA9 08             EX	AF,AF'
CAAA FC 1E 03       CALL	M,031E ; CALL	M,K_TEST
CAAD 1A             LD	A,(DE)
CAAE FC 1E 03       CALL	M,031E ; CALL	M,K_TEST
CAB1 0D             DEC	C
CAB2 FC 1E 09       CALL	M,091E ; CALL	M,ME_OLD_V4
CAB5 06 FD          LD	B,FD
CAB7 06 0D          LD	B,0D
CAB9 01 02 FD       LD	BC,FD02
CABC 06 0B          LD	B,0B
CABE 03             INC	BC
CABF 02             LD	(BC),A
CAC0 FD 06 08       LD	B,08
CAC3 01 03 FD       LD	BC,FD03
CAC6 07             RLCA
CAC7 08             EX	AF,AF'
CAC8 08             EX	AF,AF'
CAC9 0A             LD	A,(BC)
- 
CACA FB             EI
CACB 0F             RRCA
CACC 04             INC	B
CACD 04             INC	B
CACE FA 23 09       JP	M,0923 ; JP	M,ME_VAR_L2
CAD1 19             ADD	HL,DE
CAD2 02             LD	(BC),A
CAD3 06 FF          LD	B,FF
CAD5 5C             LD	E,H
CAD6 01 30 40       LD	BC,4030
CAD9 80             ADD	A,B
CADA 02             LD	(BC),A
CADB 7C             LD	A,H
CADC 01 50 48       LD	BC,4850
CADF 88             ADC	A,B
CAE0 03             INC	BC
CAE1 5C             LD	E,H
CAE2 01 78 60       LD	BC,6078
CAE5 A0             AND	B
CAE6 42             LD	B,D
- 
CAE7 7C             LD	A,H
CAE8 02             LD	(BC),A
CAE9 B0             OR	B
CAEA 28 88          JR	Z,CA74
CAEC 44             LD	B,H
CAED FF             RST	38
CAEE FA 0D 00       JP	M,000D
CAF1 00             NOP
CAF2 14             INC	D
CAF3 20 FA          JR	NZ,CAEF
CAF5 00             NOP
CAF6 03             INC	BC
CAF7 00             NOP
CAF8 05             DEC	B
CAF9 07             RLCA
CAFA FA 00 0C       JP	M,0C00
CAFD 00             NOP
CAFE 07             RLCA
CAFF 1D             DEC	E
CB00 FE 0D          CP	0D
- 
CB02 0F             RRCA
CB03 00             NOP
CB04 05             DEC	B
CB05 FD 06 0F       LD	B,0F
CB08 01 05 FC       LD	BC,FC05
CB0B 1E 10          LD	E,10
CB0D 06 FD          LD	B,FD
CB0F 06 10          LD	B,10
CB11 09             ADD	HL,BC
CB12 05             DEC	B
CB13 FA 00 03       JP	M,0300
CB16 0A             LD	A,(BC)
CB17 09             ADD	HL,BC
CB18 13             INC	DE
CB19 FB             EI
CB1A 0A             LD	A,(BC)
CB1B 0C             INC	C
CB1C 06 FD          LD	B,FD
CB1E 06 0A          LD	B,0A
CB20 0E 02          LD	C,02
- 
CB22 FD 07          RLCA
CB24 0A             LD	A,(BC)
CB25 14             INC	D
CB26 09             ADD	HL,BC
CB27 FD 07          RLCA
CB29 0F             RRCA
CB2A 14             INC	D
CB2B 09             ADD	HL,BC
CB2C FD 1F          RRA
CB2E 11 01 1C       LD	DE,1C01 ; LD	DE,CLASS_TBL
CB31 FD 20 12       JR	NZ,CB46
CB34 01 1C FA       LD	BC,FA1C
CB37 00             NOP
CB38 07             RLCA
CB39 1D             DEC	E
CB3A 03             INC	BC
CB3B 03             INC	BC
CB3C FA 21 03       JP	M,0321
CB3F 11 0E 02       LD	DE,020E
CB42 FF             RST	38
- 
CB43 58             LD	E,B
CB44 01 40 A0       LD	BC,A040
CB47 F0             RET	P
CB48 04             INC	B
CB49 FF             RST	38
CB4A FD 24          INC	Iy
CB4C 0C             INC	C
CB4D 03             INC	BC
CB4E 08             EX	AF,AF'
CB4F FD 26 0D       LD	Iy,0D
CB52 03             INC	BC
CB53 08             EX	AF,AF'
CB54 FD 24          INC	Iy
CB56 0C             INC	C
CB57 0D             DEC	C
CB58 08             EX	AF,AF'
CB59 FD 24          INC	Iy
CB5B 0C             INC	C
CB5C 17             RLA
CB5D 08             EX	AF,AF'
- 
CB5E FD 26 0D       LD	Iy,0D
CB61 0D             DEC	C
CB62 08             EX	AF,AF'
CB63 FD 26 0D       LD	Iy,0D
CB66 17             RLA
CB67 08             EX	AF,AF'
CB68 FA 28 10       JP	M,1028
CB6B 03             INC	BC
CB6C 02             LD	(BC),A
CB6D 08             EX	AF,AF'
CB6E FA 28 10       JP	M,1028
CB71 0D             DEC	C
CB72 02             LD	(BC),A
CB73 08             EX	AF,AF'
CB74 FA 28 10       JP	M,1028
CB77 17             RLA
CB78 02             LD	(BC),A
CB79 08             EX	AF,AF'
CB7A FA 01 12       JP	M,1201
CB7D 00             NOP
- 
CB7E 02             LD	(BC),A
CB7F 20 FD          JR	NZ,CB7E
CB81 1D             DEC	E
CB82 09             ADD	HL,BC
CB83 0D             DEC	C
CB84 02             LD	(BC),A
CB85 FD 1D          DEC	E
CB87 06 03          LD	B,03
CB89 08             EX	AF,AF'
CB8A FC 1E 08       CALL	M,081E
CB8D 0F             RRCA
CB8E FE 01          CP	01
CB90 00             NOP
CB91 02             LD	(BC),A
CB92 07             RLCA
CB93 FF             RST	38
CB94 80             ADD	A,B
CB95 02             LD	(BC),A
CB96 58             LD	E,B
CB97 20 80          JR	NZ,CB19
- 
CB99 44             LD	B,H
CB9A 80             ADD	A,B
CB9B 01 A8 48       LD	BC,48A8
CB9E 80             ADD	A,B
CB9F 42             LD	B,D
CBA0 FF             RST	38
CBA1 FE 04          CP	04
CBA3 00             NOP
CBA4 1F             RRA
CBA5 0D             DEC	C
CBA6 FD 07          RLCA
CBA8 0C             INC	C
CBA9 13             INC	DE
CBAA 0C             INC	C
CBAB FA 01 12       JP	M,1201
CBAE 00             NOP
CBAF 02             LD	(BC),A
CBB0 20 FD          JR	NZ,CBAF
CBB2 24             INC	H
CBB3 0C             INC	C
- 
CBB4 01 08 FD       LD	BC,FD08
CBB7 26 0D          LD	H,0D
CBB9 01 08 F9       LD	BC,F908
CBBC 0E 0D          LD	C,0D
CBBE F9             LD	SP,HL
CBBF 10 0D          DJNZ	CBCE
CBC1 F9             LD	SP,HL
CBC2 10 0F          DJNZ	CBD3
CBC4 FB             EI
CBC5 00             NOP
CBC6 1D             DEC	E
CBC7 0C             INC	C
CBC8 FA 28 10       JP	M,1028
CBCB 01 02 08       LD	BC,0802 ; LD	BC,LD_BLOCK
CBCE FF             RST	38
CBCF 80             ADD	A,B
CBD0 01 50 48       LD	BC,4850
CBD3 80             ADD	A,B
CBD4 44             LD	B,H
CBD5 5C             LD	E,H
- 
CBD6 02             LD	(BC),A
CBD7 80             ADD	A,B
CBD8 88             ADC	A,B
CBD9 F0             RET	P
CBDA 06 FF          LD	B,FF
CBDC FD 19          ADD	IY,DE
CBDE 00             NOP
CBDF 00             NOP
CBE0 08             EX	AF,AF'
CBE1 FD 19          ADD	IY,DE
CBE3 00             NOP
CBE4 17             RLA
CBE5 08             EX	AF,AF'
CBE6 FD 0A          LD	A,(BC)
CBE8 13             INC	DE
CBE9 00             NOP
CBEA 1F             RRA
CBEB FB             EI
CBEC 13             INC	DE
CBED 1D             DEC	E
- 
CBEE 01 FE 11       LD	BC,11FE
CBF1 01 01 07       LD	BC,0701
CBF4 FE 11          CP	11
CBF6 01 1E 07       LD	BC,071E
CBF9 FE 11          CP	11
CBFB 07             RLCA
CBFC 03             INC	BC
CBFD 07             RLCA
CBFE FE 11          CP	11
CC00 07             RLCA
CC01 1B             DEC	DE
CC02 07             RLCA
CC03 FE 11          CP	11
CC05 0D             DEC	C
CC06 00             NOP
CC07 07             RLCA
CC08 FE 11          CP	11
CC0A 0D             DEC	C
CC0B 1F             RRA
CC0C 07             RLCA
- 
CC0D FD 11 0D 01    LD	DE,010D
CC11 1E FD          LD	E,FD
CC13 11 07 02       LD	DE,0207
CC16 1C             INC	E
CC17 FB             EI
CC18 00             NOP
CC19 0B             DEC	BC
CC1A 07             RLCA
CC1B FB             EI
CC1C 07             RLCA
CC1D 17             RLA
CC1E 06 FB          LD	B,FB
CC20 0D             DEC	C
CC21 05             DEC	B
CC22 06 F9          LD	B,F9
CC24 11 02 F9       LD	DE,F902
CC27 05             DEC	B
CC28 03             INC	BC
CC29 F9             LD	SP,HL
CC2A 05             DEC	B
- 
CC2B 05             DEC	B
CC2C F9             LD	SP,HL
CC2D 03             INC	BC
CC2E 04             INC	B
CC2F FC 1E 12       CALL	M,121E
CC32 18 FC          JR	CC30
CC34 0B             DEC	BC
CC35 08             EX	AF,AF'
CC36 07             RLCA
CC37 FC 0C 08       CALL	M,080C
CC3A 0A             LD	A,(BC)
CC3B FC 1E 08       CALL	M,081E
CC3E 10 FC          DJNZ	CC3C
CC40 1E 0E          LD	E,0E
CC42 0B             DEC	BC
CC43 FC 00 0A       CALL	M,0A00
CC46 03             INC	BC
CC47 FF             RST	38
CC48 4C             LD	C,H
CC49 01 88 48       LD	BC,4888
- 
CC4C 80             ADD	A,B
CC4D 47             LD	B,A
CC4E 4C             LD	C,H
CC4F 01 58 40       LD	BC,4058
CC52 A8             XOR	B
CC53 47             LD	B,A
CC54 4C             LD	C,H
CC55 01 28 68       LD	BC,6828
CC58 E0             RET	PO
CC59 47             LD	B,A
CC5A 96             SUB	(HL)
CC5B 52             LD	D,D
CC5C 00             NOP
CC5D FF             RST	38
CC5E FA 19 02       JP	M,0219
CC61 07             RLCA
CC62 08             EX	AF,AF'
CC63 12             LD	(DE),A
CC64 FA 19 0A       JP	M,0A19
CC67 00             NOP
- 
CC68 0A             LD	A,(BC)
CC69 20 FA          JR	NZ,CC65
CC6B 28 0C          JR	Z,CC79
CC6D 08             EX	AF,AF'
CC6E 08             EX	AF,AF'
CC6F 10 FD          DJNZ	CC6E
CC71 29             ADD	HL,HL
CC72 0B             DEC	BC
CC73 08             EX	AF,AF'
CC74 0E FD          LD	C,FD
CC76 01 13 08       LD	BC,0813
CC79 10 FB          DJNZ	CC76
CC7B 13             INC	DE
CC7C 0B             DEC	BC
CC7D 01 FA 28       LD	BC,28FA
CC80 08             EX	AF,AF'
CC81 01 02 02       LD	BC,0202
CC84 FA 21 0F       JP	M,0F21
CC87 1A             LD	A,(DE)
CC88 03             INC	BC
- 
CC89 04             INC	B
CC8A FA 21 0C       JP	M,0C21
CC8D 02             LD	(BC),A
CC8E 06 04          LD	B,04
CC90 FD 11 10 12    LD	DE,1210
CC94 02             LD	(BC),A
CC95 FD 29          ADD	IY,IY
CC97 11 12 02       LD	DE,0212
CC9A FD 11 0E 16    LD	DE,160E ; LD	DE,REPORT_OA
CC9E 02             LD	(BC),A
CC9F FD 29          ADD	IY,IY
CCA1 0F             RRCA
CCA2 16 02          LD	D,02
CCA4 FA 00 08       JP	M,0800 ; JP	M,VR_CONT_3
CCA7 16 03          LD	D,03
CCA9 06 FA          LD	B,FA
CCAB 00             NOP
CCAC 0B             DEC	BC
CCAD 16 02          LD	D,02
CCAF 05             DEC	B
- 
CCB0 FF             RST	38
CCB1 68             LD	L,B
CCB2 01 C8 20       LD	BC,20C8
CCB5 58             LD	E,B
CCB6 44             LD	B,H
CCB7 FF             RST	38
CCB8 FA 0D 00       JP	M,000D
CCBB 00             NOP
CCBC 14             INC	D
CCBD 20 FA          JR	NZ,CCB9
CCBF 00             NOP
CCC0 03             INC	BC
CCC1 02             LD	(BC),A
CCC2 10 1C          DJNZ	CCE0
CCC4 FA 00 10       JP	M,1000
CCC7 00             NOP
CCC8 03             INC	BC
CCC9 20 FA          JR	NZ,CCC5
CCCB 0D             DEC	C
CCCC 06 1A          LD	B,1A
- 
CCCE 0A             LD	A,(BC)
CCCF 02             LD	(BC),A
CCD0 FB             EI
CCD1 06 1C          LD	B,1C
CCD3 0D             DEC	C
CCD4 FD 2F          CPL
CCD6 06 02          LD	B,02
CCD8 18 FD          JR	CCD7
CCDA 2E 09          LD	L,09
CCDC 02             LD	(BC),A
CCDD 18 FD          JR	CCDC
CCDF 2F             CPL
CCE0 0C             INC	C
CCE1 02             LD	(BC),A
CCE2 18 FD          JR	CCE1
CCE4 2E 0F          LD	L,0F
CCE6 02             LD	(BC),A
CCE7 18 F9          JR	CCE2
CCE9 11 04 F9       LD	DE,F904
CCEC 11 17 FB       LD	DE,FB17
- 
CCEF 13             INC	DE
CCF0 06 01          LD	B,01
CCF2 FF             RST	38
CCF3 54             LD	D,H
CCF4 01 20 10       LD	BC,1020
CCF7 E0             RET	PO
CCF8 45             LD	B,L
CCF9 50             LD	D,B
CCFA 02             LD	(BC),A
CCFB 38 10          JR 	C,CD0D
CCFD C0             RET	NZ
CCFE 42             LD	B,D
CCFF 50             LD	D,B
CD00 01 50 20       LD	BC,2050
CD03 B0             OR	B
CD04 44             LD	B,H
CD05 50             LD	D,B
CD06 02             LD	(BC),A
CD07 68             LD	L,B
CD08 18 B8          JR	CCC2
- 
CD0A 43             LD	B,E
CD0B 48             LD	C,B
CD0C 01 88 50       LD	BC,5088
CD0F A0             AND	B
CD10 07             RLCA
CD11 FF             RST	38
CD12 FD 0D          DEC	C
CD14 00             NOP
CD15 00             NOP
CD16 20 FE          JR	NZ,CD16
CD18 0D             DEC	C
CD19 01 00 0F       LD	BC,0F00
CD1C FD 1D          DEC	E
CD1E 13             INC	DE
CD1F 00             NOP
CD20 20 FD          JR	NZ,CD1F
CD22 08             EX	AF,AF'
CD23 0F             RRCA
CD24 08             EX	AF,AF'
CD25 10 FD          DJNZ	CD24
- 
CD27 0D             DEC	C
CD28 0F             RRCA
CD29 00             NOP
CD2A 08             EX	AF,AF'
CD2B FD 08          EX	AF,AF'
CD2D 0B             DEC	BC
CD2E 0A             LD	A,(BC)
CD2F 0A             LD	A,(BC)
CD30 FD 0D          DEC	C
CD32 0B             DEC	BC
CD33 14             INC	D
CD34 0C             INC	C
CD35 F9             LD	SP,HL
CD36 11 1B FA       LD	DE,FA1B
CD39 0D             DEC	C
CD3A 06 06          LD	B,06
CD3C 0A             LD	A,(BC)
CD3D 02             LD	(BC),A
CD3E FB             EI
CD3F 0B             DEC	BC
- 
CD40 08             EX	AF,AF'
CD41 04             INC	B
CD42 FB             EI
CD43 04             INC	B
CD44 01 0B FA       LD	BC,FA0B
CD47 0D             DEC	C
CD48 04             INC	B
CD49 03             INC	BC
CD4A 06 03          LD	B,03
CD4C FA 0D 06       JP	M,060D
CD4F 0A             LD	A,(BC)
CD50 02             LD	(BC),A
CD51 03             INC	BC
CD52 FA 0D 06       JP	M,060D
CD55 0F             RRCA
CD56 02             LD	(BC),A
CD57 02             LD	(BC),A
CD58 FA 0D 09       JP	M,090D
CD5B 14             INC	D
CD5C 02             LD	(BC),A
- 
CD5D 02             LD	(BC),A
CD5E FA 0D 06       JP	M,060D
CD61 1C             INC	E
CD62 05             DEC	B
CD63 04             INC	B
CD64 FA 23 07       JP	M,0723 ; JP	M,SA_LINE_1
CD67 1D             DEC	E
CD68 04             INC	B
CD69 02             LD	(BC),A
CD6A FC 1E 01       CALL	M,011E
CD6D 0B             DEC	BC
CD6E FC 1E 02       CALL	M,021E
CD71 14             INC	D
CD72 FD 08          EX	AF,AF'
CD74 04             INC	B
CD75 16 03          LD	D,03
CD77 FD 08          EX	AF,AF'
CD79 08             EX	AF,AF'
CD7A 1A             LD	A,(DE)
CD7B 02             LD	(BC),A
- 
CD7C FF             RST	38
CD7D 84             ADD	A,H
CD7E 01 40 08       LD	BC,0840
CD81 48             LD	C,B
CD82 04             INC	B
CD83 50             LD	D,B
CD84 01 68 50       LD	BC,5068
CD87 B0             OR	B
CD88 43             LD	B,E
CD89 84             ADD	A,H
CD8A 02             LD	(BC),A
CD8B 68             LD	L,B
CD8C 10 48          DJNZ	CDD6
CD8E 44             LD	B,H
CD8F FF             RST	38
CD90 FA 0A 12       JP	M,120A
CD93 00             NOP
CD94 02             LD	(BC),A
CD95 20 FD          JR	NZ,CD94
CD97 1D             DEC	E
- 
CD98 06 08          LD	B,08
CD9A 0F             RRCA
CD9B F8             RET	M
CD9C 30 0F          JR	NC,CDAD
CD9E 04             INC	B
CD9F 03             INC	BC
CDA0 03             INC	BC
CDA1 FD 01 04 1C    LD	BC,1C04
CDA5 03             INC	BC
CDA6 F8             RET	M
CDA7 30 0F          JR	NC,CDB8
CDA9 09             ADD	HL,BC
CDAA 03             INC	BC
CDAB 03             INC	BC
CDAC FD 01 09 1C    LD	BC,1C09
CDB0 03             INC	BC
CDB1 F8             RET	M
CDB2 30 0F          JR	NC,CDC3
CDB4 0E 03          LD	C,03
CDB6 03             INC	BC
- 
CDB7 FA 11 00       JP	M,0011
CDBA 11 07 02       LD	DE,0207
CDBD F8             RET	M
CDBE 30 0F          JR	NC,CDCF
CDC0 15             DEC	D
CDC1 03             INC	BC
CDC2 03             INC	BC
CDC3 FE 11          CP	11
CDC5 00             NOP
CDC6 1F             RRA
CDC7 0D             DEC	C
CDC8 FE 11          CP	11
CDCA 00             NOP
CDCB 00             NOP
CDCC 0D             DEC	C
CDCD FA 11 07       JP	M,0711
CDD0 01 02 02       LD	BC,0202
CDD3 FD 01 0C 14    LD	BC,140C
CDD7 0B             DEC	BC
CDD8 FA 11 0A       JP	M,0A11 ; JP	M,CTLCHRTAB
- 
CDDB 05             DEC	B
CDDC 03             INC	BC
CDDD 02             LD	(BC),A
CDDE FA 11 0B       JP	M,0B11
CDE1 0D             DEC	C
CDE2 02             LD	(BC),A
CDE3 02             LD	(BC),A
CDE4 FB             EI
CDE5 0C             INC	C
CDE6 12             LD	(DE),A
CDE7 06 FD          LD	B,FD
CDE9 01 0C 03       LD	BC,030C
CDEC 02             LD	(BC),A
CDED FB             EI
CDEE 00             NOP
CDEF 1D             DEC	E
CDF0 04             INC	B
CDF1 FB             EI
CDF2 00             NOP
CDF3 0F             RRCA
- 
CDF4 06 FB          LD	B,FB
CDF6 12             LD	(DE),A
CDF7 1C             INC	E
CDF8 02             LD	(BC),A
CDF9 FF             RST	38
CDFA 88             ADC	A,B
CDFB 01 48 38       LD	BC,3848
CDFE 68             LD	L,B
CDFF 43             LD	B,E
CE00 5C             LD	E,H
CE01 02             LD	(BC),A
CE02 50             LD	D,B
CE03 90             SUB	B
CE04 E0             RET	PO
CE05 07             RLCA
CE06 88             ADC	A,B
CE07 01 C0 10       LD	BC,10C0
CE0A 40             LD	B,B
CE0B 47             LD	B,A
CE0C 97             SUB	A
- 
CE0D 50             LD	D,B
CE0E 68             LD	L,B
CE0F FF             RST	38
CE10 FD 19          ADD	IY,DE
CE12 00             NOP
CE13 00             NOP
CE14 20 FE          JR	NZ,CE14
CE16 11 01 00       LD	DE,0001
CE19 13             INC	DE
CE1A FE 11          CP	11
CE1C 07             RLCA
CE1D 1F             RRA
CE1E 0D             DEC	C
CE1F FD 11 12 00    LD	DE,0012
CE23 20 FE          JR	NZ,CE23
CE25 11 07 03       LD	DE,0307
CE28 09             ADD	HL,BC
CE29 FA 11 07       JP	M,0711
CE2C 11 0C 02       LD	DE,020C
CE2F FA 11 0A       JP	M,0A11 ; JP	M,CTLCHRTAB
- 
CE32 1C             INC	E
CE33 04             INC	B
CE34 04             INC	B
CE35 FD 11 0D 15    LD	DE,150D
CE39 0A             LD	A,(BC)
CE3A FD 03          INC	BC
CE3C 07             RLCA
CE3D 07             RLCA
CE3E 03             INC	BC
CE3F FD 11 07 0E    LD	DE,0E07
CE43 03             INC	BC
CE44 FD 03          INC	BC
CE46 07             RLCA
CE47 15             DEC	D
CE48 04             INC	B
CE49 FA 23 0B       JP	M,0B23
CE4C 1D             DEC	E
CE4D 02             LD	(BC),A
CE4E 02             LD	(BC),A
CE4F FD 11 0D 15    LD	DE,150D
- 
CE53 0A             LD	A,(BC)
CE54 FB             EI
CE55 12             LD	(DE),A
CE56 1D             DEC	E
CE57 02             LD	(BC),A
CE58 FB             EI
CE59 12             LD	(DE),A
CE5A 0F             RRCA
CE5B 02             LD	(BC),A
CE5C FB             EI
CE5D 07             RLCA
CE5E 01 0B FD       LD	BC,FD0B
CE61 07             RLCA
CE62 0E 04          LD	C,04
CE64 06 FD          LD	B,FD
CE66 01 0F 0E       LD	BC,0E0F
CE69 03             INC	BC
CE6A FD 01 0B 0E    LD	BC,0E0B
CE6E 03             INC	BC
CE6F FB             EI
- 
CE70 0D             DEC	C
CE71 13             INC	DE
CE72 05             DEC	B
CE73 FF             RST	38
CE74 48             LD	C,B
CE75 01 80 18       LD	BC,1880
CE78 78             LD	A,B
CE79 07             RLCA
CE7A 74             LD	(HL),H
CE7B 82             ADD	A,D
CE7C 58             LD	E,B
CE7D 18 70          JR	CEEF
CE7F 04             INC	B
CE80 74             LD	(HL),H
CE81 02             LD	(BC),A
CE82 98             SBC	A,B
CE83 10 58          DJNZ	CEDD
CE85 03             INC	BC
CE86 95             SUB	L
CE87 05             DEC	B
- 
CE88 08             EX	AF,AF'
CE89 16 FF          LD	D,FF
CE8B FD 11 00 00    LD	DE,0000 ; LD	DE,START
CE8F 20 FE          JR	NZ,CE8F
CE91 04             INC	B
CE92 01 00 0C       LD	BC,0C00
CE95 FA 39 12       JP	M,1239
CE98 00             NOP
CE99 02             LD	(BC),A
CE9A 20 FD          JR	NZ,CE99
CE9C 39             ADD	HL,SP
CE9D 11 07 07       LD	DE,0707
CEA0 FD 39          ADD	IY,SP
CEA2 10 08          DJNZ	CEAC
CEA4 06 FD          LD	B,FD
CEA6 39             ADD	HL,SP
CEA7 0F             RRCA
CEA8 09             ADD	HL,BC
CEA9 05             DEC	B
CEAA FD 3A 0C 10    LD	A,(100C) ; LD	A,(ED_RIGHT)
- 
CEAE 05             DEC	B
CEAF FE 04          CP	04
CEB1 0A             LD	A,(BC)
CEB2 15             DEC	D
CEB3 03             INC	BC
CEB4 FD 3A 0A 16    LD	A,(160A)
CEB8 09             ADD	HL,BC
CEB9 FE 11          CP	11
CEBB 01 1F 0A       LD	BC,0A1F
CEBE FA 04 04       JP	M,0404
CEC1 01 03 03       LD	BC,0303
CEC4 FD 04          INC	B
CEC6 06 04          LD	B,04
CEC8 17             RLA
CEC9 FB             EI
CECA 06 1B          LD	B,1B
CECC 04             INC	B
CECD FA 04 0A       JP	M,0A04
CED0 03             INC	BC
CED1 03             INC	BC
- 
CED2 04             INC	B
CED3 FD 3A 0A 09    LD	A,(090A)
CED7 04             INC	B
CED8 FD 3B          DEC 	SP
CEDA 0B             DEC	BC
CEDB 04             INC	B
CEDC 02             LD	(BC),A
CEDD FD 3B          DEC 	SP
CEDF 05             DEC	B
CEE0 01 02 FB       LD	BC,FB02
CEE3 00             NOP
CEE4 01 04 FC       LD	BC,FC04
CEE7 1E 01          LD	E,01
CEE9 10 FF          DJNZ	CEEA
CEEB 90             SUB	B
CEEC 02             LD	(BC),A
CEED 08             EX	AF,AF'
CEEE 38 80          JR 	C,CE70
CEF0 47             LD	B,A
CEF1 90             SUB	B
- 
CEF2 82             ADD	A,D
CEF3 70             LD	(HL),B
CEF4 38 80          JR 	C,CE76
CEF6 42             LD	B,D
CEF7 60             LD	H,B
CEF8 01 20 20       LD	BC,2020
CEFB D8             RET	C
CEFC 04             INC	B
CEFD 90             SUB	B
CEFE 02             LD	(BC),A
CEFF C0             RET	NZ
CF00 58             LD	E,B
CF01 80             ADD	A,B
CF02 43             LD	B,E
CF03 95             SUB	L
CF04 03             INC	BC
CF05 07             RLCA
CF06 05             DEC	B
CF07 FF             RST	38
CF08 FD 39          ADD	IY,SP
- 
CF0A 13             INC	DE
CF0B 00             NOP
CF0C 20 FE          JR	NZ,CF0C
CF0E 39             ADD	HL,SP
CF0F 07             RLCA
CF10 00             NOP
CF11 0C             INC	C
CF12 FD 19          ADD	IY,DE
CF14 00             NOP
CF15 00             NOP
CF16 20 FD          JR	NZ,CF15
CF18 3A 07 01       LD	A,(0107)
CF1B 04             INC	B
CF1C FD 3A 0C 01    LD	A,(010C)
CF20 06 FA          LD	B,FA
CF22 05             DEC	B
CF23 09             ADD	HL,BC
CF24 07             RLCA
CF25 04             INC	B
CF26 03             INC	BC
- 
CF27 FD 07          RLCA
CF29 0A             LD	A,(BC)
CF2A 0C             INC	C
CF2B 09             ADD	HL,BC
CF2C FA 05 0E       JP	M,0E05 ; JP	M,CL_SCR_1
CF2F 0E 03          LD	C,03
CF31 06 FB          LD	B,FB
CF33 0A             LD	A,(BC)
CF34 10 04          DJNZ	CF3A
CF36 FA 39 0E       JP	M,0E39
CF39 1A             LD	A,(DE)
CF3A 02             LD	(BC),A
CF3B 05             DEC	B
CF3C FE 05          CP	05
CF3E 01 1F 12       LD	BC,121F
CF41 FB             EI
CF42 0E 1B          LD	C,1B
CF44 05             DEC	B
CF45 FD 3A 09 17    LD	A,(1709)
CF49 03             INC	BC
- 
CF4A FA 05 07       JP	M,0705
CF4D 1C             INC	E
CF4E 03             INC	BC
CF4F 03             INC	BC
CF50 FD 07          RLCA
CF52 05             DEC	B
CF53 12             LD	(DE),A
CF54 04             INC	B
CF55 FD 3A 04 0C    LD	A,(0C04)
CF59 03             INC	BC
CF5A FC 1E 02       CALL	M,021E
CF5D 0A             LD	A,(BC)
CF5E FB             EI
CF5F 13             INC	DE
CF60 01 01 FF       LD	BC,FF01
CF63 68             LD	L,B
CF64 01 28 10       LD	BC,1028
CF67 50             LD	D,B
CF68 04             INC	B
CF69 44             LD	B,H
- 
CF6A 82             ADD	A,D
CF6B 88             ADC	A,B
CF6C 08             EX	AF,AF'
CF6D 68             LD	L,B
CF6E 43             LD	B,E
CF6F 7C             LD	A,H
CF70 82             ADD	A,D
CF71 D0             RET	NC
CF72 20 60          JR	NZ,CFD4
CF74 41             LD	B,C
CF75 64             LD	H,H
CF76 82             ADD	A,D
CF77 50             LD	D,B
CF78 18 50          JR	CFCA
CF7A 06 95          LD	B,95
CF7C 02             LD	(BC),A
CF7D 11 0F FF       LD	DE,FF0F
CF80 FD 3C          INC	A
CF82 00             NOP
CF83 00             NOP
- 
CF84 0A             LD	A,(BC)
CF85 FE 3C          CP	3C
CF87 01 00 0A       LD	BC,0A00
CF8A FA 39 12       JP	M,1239
CF8D 00             NOP
CF8E 02             LD	(BC),A
CF8F 20 FD          JR	NZ,CF8E
CF91 08             EX	AF,AF'
CF92 0A             LD	A,(BC)
CF93 01 07 FE       LD	BC,FE07
CF96 39             ADD	HL,SP
CF97 0A             LD	A,(BC)
CF98 05             DEC	B
CF99 06 FA          LD	B,FA
CF9B 39             ADD	HL,SP
CF9C A5             AND	L
CF9D 02             LD	(BC),A
CF9E 04             INC	B
CF9F FD 06 06       LD	B,06
CFA2 01 04 FD       LD	BC,FD04
- 
CFA5 06 08          LD	B,08
CFA7 0A             LD	A,(BC)
CFA8 08             EX	AF,AF'
CFA9 FD 08          EX	AF,AF'
CFAB 08             EX	AF,AF'
CFAC 14             INC	D
CFAD 09             ADD	HL,BC
CFAE FA 05 0B       JP	M,0B05
CFB1 0F             RRCA
CFB2 05             DEC	B
CFB3 03             INC	BC
CFB4 FD 08          EX	AF,AF'
CFB6 0F             RRCA
CFB7 12             LD	(DE),A
CFB8 0D             DEC	C
CFB9 FB             EI
CFBA 0A             LD	A,(BC)
CFBB 03             INC	BC
CFBC 08             EX	AF,AF'
CFBD FB             EI
- 
CFBE 00             NOP
CFBF 1D             DEC	E
CFC0 0F             RRCA
CFC1 FE 3C          CP	3C
CFC3 00             NOP
CFC4 1C             INC	E
CFC5 05             DEC	B
CFC6 FE 3C          CP	3C
CFC8 00             NOP
CFC9 1F             RRA
CFCA 10 FD          DJNZ	CFC9
CFCC 06 0D          LD	B,0D
CFCE 09             ADD	HL,BC
CFCF 06 FD          LD	B,FD
CFD1 06 06          LD	B,06
CFD3 01 04 FA       LD	BC,FA04
CFD6 39             ADD	HL,SP
CFD7 10 05          DJNZ	CFDE
CFD9 02             LD	(BC),A
CFDA 04             INC	B
- 
CFDB F8             RET	M
CFDC 83             ADD	A,E
CFDD 0A             LD	A,(BC)
CFDE 0D             DEC	C
CFDF 03             INC	BC
CFE0 02             LD	(BC),A
CFE1 FF             RST	38
CFE2 54             LD	D,H
CFE3 02             LD	(BC),A
CFE4 10 20          DJNZ	D006
CFE6 C0             RET	NZ
CFE7 42             LD	B,D
CFE8 6C             LD	L,H
CFE9 01 90 20       LD	BC,2090
CFEC 48             LD	C,B
CFED 05             DEC	B
CFEE 60             LD	H,B
CFEF 81             ADD	A,C
CFF0 68             LD	L,B
CFF1 90             SUB	B
- 
CFF2 D8             RET	C
CFF3 04             INC	B
CFF4 95             SUB	L
CFF5 02             LD	(BC),A
CFF6 10 10          DJNZ	D008
CFF8 FF             RST	38
CFF9 FE 05          CP	05
CFFB 00             NOP
CFFC 1F             RRA
CFFD 14             INC	D
CFFE FB             EI
CFFF 10 1D          DJNZ	D01E
D001 04             INC	B
D002 FE 05          CP	05
D004 10 1C          DJNZ	D022
D006 04             INC	B
D007 FA 3C 10       JP	M,103C
D00A 00             NOP
D00B 04             INC	B
D00C 0A             LD	A,(BC)
- 
D00D FD 08          EX	AF,AF'
D00F 10 0A          DJNZ	D01B
D011 12             LD	(DE),A
D012 FE 3C          CP	3C
D014 00             NOP
D015 00             NOP
D016 13             INC	DE
D017 FD 3D          DEC	A
D019 0C             INC	C
D01A 01 1E FB       LD	BC,FB1E
D01D 0C             INC	C
D01E 06 04          LD	B,04
D020 F8             RET	M
D021 3F             CCF
D022 09             ADD	HL,BC
D023 00             NOP
D024 03             INC	BC
D025 03             INC	BC
D026 FB             EI
D027 08             EX	AF,AF'
- 
D028 1B             DEC	DE
D029 04             INC	B
D02A FD 3D          DEC	A
D02C 08             EX	AF,AF'
D02D 09             ADD	HL,BC
D02E 12             LD	(DE),A
D02F FA 3C 05       JP	M,053C ; JP	M,SA_DELAY
D032 01 04 05       LD	BC,0504
D035 FA 3E 05       JP	M,053E
D038 0B             DEC	BC
D039 03             INC	BC
D03A 03             INC	BC
D03B FD 05          DEC	B
D03D 00             NOP
D03E 03             INC	BC
D03F 1C             INC	E
D040 FC 1E 01       CALL	M,011E
D043 09             ADD	HL,BC
D044 FB             EI
D045 00             NOP
- 
D046 01 05 F8       LD	BC,F805
D049 4A             LD	C,D
D04A 0D             DEC	C
D04B 03             INC	BC
D04C 03             INC	BC
D04D 02             LD	(BC),A
D04E FF             RST	38
D04F 28 02          JR	Z,D053
D051 30 58          JR	NC,D0AB
D053 E8             RET	PE
D054 46             LD	B,(HL)
D055 28 02          JR	Z,D059
D057 30 D8          JR	NC,D031
D059 E8             RET	PE
D05A 46             LD	B,(HL)
D05B 28 02          JR	Z,D05F
D05D 50             LD	D,B
D05E 80             ADD	A,B
D05F E8             RET	PE
D060 46             LD	B,(HL)
- 
D061 FF             RST	38
D062 FD 19          ADD	IY,DE
D064 13             INC	DE
D065 00             NOP
D066 20 FA          JR	NZ,D062
D068 11 04 1B       LD	DE,1B04
D06B 04             INC	B
D06C 02             LD	(BC),A
D06D FA 19 08       JP	M,0819 ; JP	M,LD_CONT_1
D070 05             DEC	B
D071 03             INC	BC
D072 1A             LD	A,(DE)
D073 FE 11          CP	11
D075 0B             DEC	BC
D076 06 05          LD	B,05
D078 FD 11 0F 06    LD	DE,060F
D07C 05             DEC	B
D07D FE 11          CP	11
D07F 0B             DEC	BC
D080 1D             DEC	E
- 
D081 06 FA          LD	B,FA
D083 11 11 19       LD	DE,1911
D086 02             LD	(BC),A
D087 05             DEC	B
D088 FD 1D          DEC	E
D08A 0F             RRCA
D08B 0F             RRCA
D08C 04             INC	B
D08D FB             EI
D08E 08             EX	AF,AF'
D08F 07             RLCA
D090 07             RLCA
D091 FC 1E 10       CALL	M,101E ; CALL	M,ED_IGNORE
D094 15             DEC	D
D095 FB             EI
D096 13             INC	DE
D097 01 01 FF       LD	BC,FF01
D09A 44             LD	B,H
D09B 01 30 38       LD	BC,3830
D09E C8             RET	Z
- 
D09F 47             LD	B,A
D0A0 44             LD	B,H
D0A1 82             ADD	A,D
D0A2 88             ADC	A,B
D0A3 00             NOP
D0A4 B8             CP	B
D0A5 05             DEC	B
D0A6 FF             RST	38
D0A7 FE 11          CP	11
D0A9 06 05          LD	B,05
D0AB 09             ADD	HL,BC
D0AC FD 19          ADD	IY,DE
D0AE 13             INC	DE
D0AF 00             NOP
D0B0 20 FA          JR	NZ,D0AC
D0B2 11 11 0F       LD	DE,0F11
D0B5 02             LD	(BC),A
D0B6 0A             LD	A,(BC)
D0B7 FB             EI
D0B8 0C             INC	C
- 
D0B9 14             INC	D
D0BA 05             DEC	B
D0BB FD 11 0C 0F    LD	DE,0F0C ; LD	DE,COPY_L_2
D0BF 05             DEC	B
D0C0 FE 11          CP	11
D0C2 0C             INC	C
D0C3 16 03          LD	D,03
D0C5 FD 04          INC	B
D0C7 0E 06          LD	C,06
D0C9 05             DEC	B
D0CA FD 04          INC	B
D0CC 09             ADD	HL,BC
D0CD 06 05          LD	B,05
D0CF FF             RST	38
D0D0 50             LD	D,B
D0D1 81             ADD	A,C
D0D2 88             ADC	A,B
D0D3 00             NOP
D0D4 68             LD	L,B
D0D5 03             INC	BC
- 
D0D6 7C             LD	A,H
D0D7 02             LD	(BC),A
D0D8 60             LD	H,B
D0D9 40             LD	B,B
D0DA 70             LD	(HL),B
D0DB 44             LD	B,H
D0DC FF             RST	38
D0DD FE 3C          CP	3C
D0DF 00             NOP
D0E0 00             NOP
D0E1 10 FA          DJNZ	D0DD
D0E3 39             ADD	HL,SP
D0E4 12             LD	(DE),A
D0E5 00             NOP
D0E6 02             LD	(BC),A
D0E7 20 FA          JR	NZ,D0E3
D0E9 0A             LD	A,(BC)
D0EA 0F             RRCA
D0EB 13             INC	DE
D0EC 03             INC	BC
- 
D0ED 02             LD	(BC),A
D0EE FD 3C          INC	A
D0F0 00             NOP
D0F1 01 1F FE       LD	BC,FE1F
D0F4 3C             INC	A
D0F5 01 1F 0E       LD	BC,0E1F
D0F8 FD 01 0E 19    LD	BC,190E
D0FC 06 F9          LD	B,F9
D0FE 0C             INC	C
D0FF 1D             DEC	E
D100 FD 01 0C 01    LD	BC,010C
D104 0E FC          LD	C,FC
D106 49             LD	C,C
D107 08             EX	AF,AF'
D108 13             INC	DE
D109 FD 01 09 05    LD	BC,0509
D10D 03             INC	BC
D10E FD 01 07 0C    LD	BC,0C07
D112 05             DEC	B
D113 FA 0A 06       JP	M,060A
- 
D116 11 04 02       LD	DE,0204
D119 FB             EI
D11A 00             NOP
D11B 17             RLA
D11C 09             ADD	HL,BC
D11D FD 1D          DEC	E
D11F 09             ADD	HL,BC
D120 13             INC	DE
D121 06 FC          LD	B,FC
D123 48             LD	C,B
D124 01 15 F8       LD	BC,F815
D127 30 0F          JR	NC,D138
D129 07             RLCA
D12A 03             INC	BC
D12B 03             INC	BC
D12C F8             RET	M
D12D 30 0F          JR	NC,D13E
D12F 0B             DEC	BC
D130 03             INC	BC
D131 03             INC	BC
- 
D132 FD 07          RLCA
D134 07             RLCA
D135 01 04 FB       LD	BC,FB04
D138 00             NOP
D139 01 07 FF       LD	BC,FF07
D13C 5C             LD	E,H
D13D 01 50 08       LD	BC,0850
D140 68             LD	L,B
D141 44             LD	B,H
D142 88             ADC	A,B
D143 01 B0 50       LD	BC,50B0
D146 80             ADD	A,B
D147 42             LD	B,D
D148 FF             RST	38
D149 FE 11          CP	11
D14B 00             NOP
D14C 00             NOP
D14D 14             INC	D
D14E FD 11 13 01    LD	DE,0113
D152 1F             RRA
- 
D153 FA 11 00       JP	M,0011
D156 1E 13          LD	E,13
D158 02             LD	(BC),A
D159 FB             EI
D15A 0C             INC	C
D15B 01 08 FB       LD	BC,FB08
D15E 00             NOP
D15F 01 08 FD       LD	BC,FD08
D162 11 08 01       LD	DE,0108
D165 02             LD	(BC),A
D166 FD 07          RLCA
D168 08             EX	AF,AF'
D169 03             INC	BC
D16A 02             LD	(BC),A
D16B FE 11          CP	11
D16D 0C             INC	C
D16E 03             INC	BC
D16F 07             RLCA
D170 FD 11 0C 04    LD	DE,040C
D174 05             DEC	B
- 
D175 FA 11 0A       JP	M,0A11 ; JP	M,CTLCHRTAB
D178 07             RLCA
D179 02             LD	(BC),A
D17A 02             LD	(BC),A
D17B FB             EI
D17C 10 04          DJNZ	D182
D17E 03             INC	BC
D17F FB             EI
D180 13             INC	DE
D181 17             RLA
D182 01 FD 11       LD	BC,11FD
D185 10 06          DJNZ	D18D
D187 0C             INC	C
D188 FE 11          CP	11
D18A 0E 12          LD	C,12
D18C 03             INC	BC
D18D FA 11 0C       JP	M,0C11
D190 1A             LD	A,(DE)
D191 02             LD	(BC),A
D192 04             INC	B
- 
D193 FA 11 0E       JP	M,0E11
D196 17             RLA
D197 03             INC	BC
D198 07             RLCA
D199 FA 11 11       JP	M,1111
D19C 19             ADD	HL,DE
D19D 02             LD	(BC),A
D19E 05             DEC	B
D19F FD 07          RLCA
D1A1 09             ADD	HL,BC
D1A2 1C             INC	E
D1A3 02             LD	(BC),A
D1A4 FD 07          RLCA
D1A6 06 0D          LD	B,0D
D1A8 06 FD          LD	B,FD
D1AA 07             RLCA
D1AB 06 17          LD	B,17
D1AD 02             LD	(BC),A
D1AE FE 11          CP	11
D1B0 00             NOP
- 
D1B1 0C             INC	C
D1B2 07             RLCA
D1B3 FA 11 00       JP	M,0011
D1B6 03             INC	BC
D1B7 05             DEC	B
D1B8 09             ADD	HL,BC
D1B9 FD 07          RLCA
D1BB 0C             INC	C
D1BC 09             ADD	HL,BC
D1BD 03             INC	BC
D1BE FC 07 0E       CALL	M,0E07
D1C1 11 FC 00       LD	DE,00FC
D1C4 0A             LD	A,(BC)
D1C5 00             NOP
D1C6 FF             RST	38
D1C7 88             ADC	A,B
D1C8 82             ADD	A,D
D1C9 A0             AND	B
D1CA 10 88          DJNZ	D154
D1CC 42             LD	B,D
- 
D1CD 5C             LD	E,H
D1CE 01 20 68       LD	BC,6820
D1D1 88             ADC	A,B
D1D2 02             LD	(BC),A
D1D3 97             SUB	A
D1D4 78             LD	A,B
D1D5 38 96          JR 	C,D16D
D1D7 52             LD	D,D
D1D8 00             NOP
D1D9 FF             RST	38
D1DA FE 11          CP	11
D1DC 00             NOP
D1DD 00             NOP
D1DE 14             INC	D
D1DF FD 11 13 03    LD	DE,0313
D1E3 0A             LD	A,(BC)
D1E4 FD 1D          DEC	E
D1E6 13             INC	DE
D1E7 0D             DEC	C
D1E8 0E FA          LD	C,FA
- 
D1EA 11 11 1B       LD	DE,1B11
D1ED 03             INC	BC
D1EE 05             DEC	B
D1EF FD 1D          DEC	E
D1F1 10 0A          DJNZ	D1FD
D1F3 03             INC	BC
D1F4 FD 1D          DEC	E
D1F6 0D             DEC	C
D1F7 01 04 FD       LD	BC,FD04
D1FA 07             RLCA
D1FB 0C             INC	C
D1FC 09             ADD	HL,BC
D1FD 03             INC	BC
D1FE FD 07          RLCA
D200 09             ADD	HL,BC
D201 01 04 FC       LD	BC,FC04
D204 00             NOP
D205 07             RLCA
D206 00             NOP
D207 FD 1D          DEC	E
- 
D209 06 09          LD	B,09
D20B 02             LD	(BC),A
D20C FD 1D          DEC	E
D20E 05             DEC	B
D20F 01 04 FB       LD	BC,FB04
D212 00             NOP
D213 01 05 FE       LD	BC,FE05
D216 04             INC	B
D217 00             NOP
D218 03             INC	BC
D219 03             INC	BC
D21A FD 04          INC	B
D21C 00             NOP
D21D 04             INC	B
D21E 09             ADD	HL,BC
D21F FE 04          CP	04
D221 01 0C 05       LD	BC,050C
D224 FE 04          CP	04
D226 09             ADD	HL,BC
D227 0C             INC	C
- 
D228 04             INC	B
D229 FD 19          ADD	IY,DE
D22B 00             NOP
D22C 0D             DEC	C
D22D 02             LD	(BC),A
D22E FD 19          ADD	IY,DE
D230 01 0D 04       LD	BC,040D
D233 FD 19          ADD	IY,DE
D235 02             LD	(BC),A
D236 0D             DEC	C
D237 06 FD          LD	B,FD
D239 19             ADD	HL,DE
D23A 03             INC	BC
D23B 0D             DEC	C
D23C 08             EX	AF,AF'
D23D FD 19          ADD	IY,DE
D23F 04             INC	B
D240 0D             DEC	C
D241 0A             LD	A,(BC)
D242 FD 19          ADD	IY,DE
- 
D244 05             DEC	B
D245 17             RLA
D246 02             LD	(BC),A
D247 FD 19          ADD	IY,DE
D249 06 17          LD	B,17
D24B 04             INC	B
D24C FD 19          ADD	IY,DE
D24E 07             RLCA
D24F 17             RLA
D250 06 FD          LD	B,FD
D252 19             ADD	HL,DE
D253 08             EX	AF,AF'
D254 17             RLA
D255 08             EX	AF,AF'
D256 FA 19 09       JP	M,0919
D259 0D             DEC	C
D25A 04             INC	B
D25B 13             INC	DE
D25C FB             EI
D25D 13             INC	DE
- 
D25E 01 01 FC       LD	BC,FC01
D261 48             LD	C,B
D262 0D             DEC	C
D263 14             INC	D
D264 FF             RST	38
D265 7C             LD	A,H
D266 02             LD	(BC),A
D267 30 08          JR	NC,D271
D269 70             LD	(HL),B
D26A 05             DEC	B
D26B 2C             INC	L
D26C 82             ADD	A,D
D26D 88             ADC	A,B
D26E 08             EX	AF,AF'
D26F C8             RET	Z
D270 03             INC	BC
D271 96             SUB	(HL)
D272 3A 00 97       LD	A,(9700)
D275 40             LD	B,B
D276 90             SUB	B
- 
D277 FF             RST	38
D278 FE 11          CP	11
D27A 07             RLCA
D27B 00             NOP
D27C 0D             DEC	C
D27D FC 00 11       CALL	M,1100
D280 00             NOP
D281 FB             EI
D282 13             INC	DE
D283 01 01 FD       LD	BC,FD01
D286 04             INC	B
D287 13             INC	DE
D288 03             INC	BC
D289 0A             LD	A,(BC)
D28A FE 04          CP	04
D28C 07             RLCA
D28D 0C             INC	C
D28E 0C             INC	C
D28F FD 22 10 0A    LD	(0A10),IY
D293 02             LD	(BC),A
- 
D294 FD 22 0C 0A    LD	(0A0C),IY
D298 02             LD	(BC),A
D299 FD 22 0F 03    LD	(030F),IY
D29D 03             INC	BC
D29E FD 22 0B 01    LD	(010B),IY
D2A2 05             DEC	B
D2A3 FD 19          ADD	IY,DE
D2A5 06 00          LD	B,00
D2A7 0D             DEC	C
D2A8 FD 19          ADD	IY,DE
D2AA 05             DEC	B
D2AB 01 0B FD       LD	BC,FD0B
D2AE 19             ADD	HL,DE
D2AF 04             INC	B
D2B0 02             LD	(BC),A
D2B1 09             ADD	HL,BC
D2B2 FD 19          ADD	IY,DE
D2B4 03             INC	BC
D2B5 03             INC	BC
D2B6 07             RLCA
- 
D2B7 FD 19          ADD	IY,DE
D2B9 02             LD	(BC),A
D2BA 04             INC	B
D2BB 05             DEC	B
D2BC FD 19          ADD	IY,DE
D2BE 01 05 03       LD	BC,0305
D2C1 FC 19 00       CALL	M,0019
D2C4 06 FF          LD	B,FF
D2C6 78             LD	A,B
D2C7 81             ADD	A,C
D2C8 38 38          JR 	C,D302
D2CA 88             ADC	A,B
D2CB 43             LD	B,E
D2CC 96             SUB	(HL)
D2CD 8A             ADC	A,D
D2CE 00             NOP
D2CF FF             RST	38
D2D0 FE 39          CP	39
D2D2 00             NOP
D2D3 00             NOP
- 
D2D4 0F             RRCA
D2D5 FD 0D          DEC	C
D2D7 13             INC	DE
D2D8 00             NOP
D2D9 20 FD          JR	NZ,D2D8
D2DB 0D             DEC	C
D2DC 12             LD	(DE),A
D2DD 1C             INC	E
D2DE 04             INC	B
D2DF FD 0D          DEC	C
D2E1 11 1E 02       LD	DE,021E
D2E4 FD 51          LD	D,C
D2E6 12             LD	(DE),A
D2E7 00             NOP
D2E8 1C             INC	E
D2E9 FD 51          LD	D,C
D2EB 11 1C 02       LD	DE,021C
D2EE FD 51          LD	D,C
D2F0 10 1E          DJNZ	D310
D2F2 02             LD	(BC),A
- 
D2F3 F8             RET	M
D2F4 9C             SBC	A,H
D2F5 0D             DEC	C
D2F6 11 02 04       LD	DE,0402
D2F9 F8             RET	M
D2FA 8E             ADC	A,(HL)
D2FB 0F             RRCA
D2FC 12             LD	(DE),A
D2FD 01 02 F8       LD	BC,F802
D300 8E             ADC	A,(HL)
D301 10 12          DJNZ	D315
D303 01 02 F8       LD	BC,F802
D306 8E             ADC	A,(HL)
D307 11 12 01       LD	DE,0112
D30A 02             LD	(BC),A
D30B FF             RST	38
D30C 94             SUB	H
D30D 02             LD	(BC),A
D30E C0             RET	NZ
D30F E0             RET	PO
- 
D310 06 94          LD	B,94
D312 03             INC	BC
D313 F0             RET	P
D314 A8             XOR	B
D315 44             LD	B,H
D316 94             SUB	H
D317 04             INC	B
D318 D0             RET	NC
D319 68             LD	L,B
D31A 43             LD	B,E
D31B 94             SUB	H
D31C 03             INC	BC
D31D E0             RET	PO
D31E 28 42          JR	Z,D362
D320 FF             RST	38
D321 FD 0D          DEC	C
D323 00             NOP
D324 00             NOP
D325 20 FD          JR	NZ,D324
D327 0D             DEC	C
- 
D328 13             INC	DE
D329 00             NOP
D32A 07             RLCA
D32B FA 0D 0F       JP	M,0F0D
D32E 07             RLCA
D32F 05             DEC	B
D330 02             LD	(BC),A
D331 FA 0D 06       JP	M,060D
D334 00             NOP
D335 06 02          LD	B,02
D337 FA 0D 07       JP	M,070D
D33A 02             LD	(BC),A
D33B 06 02          LD	B,02
D33D FA 0D 08       JP	M,080D
D340 04             INC	B
D341 04             INC	B
D342 02             LD	(BC),A
D343 FA 0D 08       JP	M,080D
D346 06 06          LD	B,06
D348 02             LD	(BC),A
- 
D349 FA 0D 08       JP	M,080D
D34C 0F             RRCA
D34D 03             INC	BC
D34E 02             LD	(BC),A
D34F FA 0D 07       JP	M,070D
D352 11 05 02       LD	DE,0205 ; LD	DE,MAIN_KEYS
D355 FA 0D 06       JP	M,060D
D358 13             INC	DE
D359 08             EX	AF,AF'
D35A 02             LD	(BC),A
D35B FA 0D 05       JP	M,050D
D35E 15             DEC	D
D35F 0A             LD	A,(BC)
D360 02             LD	(BC),A
D361 FA 0D 05       JP	M,050D
D364 17             RLA
D365 0D             DEC	C
D366 03             INC	BC
D367 FA 20 11       JP	M,1120
D36A 09             ADD	HL,BC
- 
D36B 03             INC	BC
D36C 10 FA          DJNZ	D368
D36E 0D             DEC	C
D36F 11 19 03       LD	DE,0319
D372 07             RLCA
D373 FA 0D 08       JP	M,080D
D376 1C             INC	E
D377 03             INC	BC
D378 04             INC	B
D379 FB             EI
D37A 13             INC	DE
D37B 04             INC	B
D37C 01 FB 08       LD	BC,08FB
D37F 1A             LD	A,(DE)
D380 09             ADD	HL,BC
D381 FF             RST	38
D382 8C             ADC	A,H
D383 01 48 20       LD	BC,2048 ; LD	BC,PR_ST_END
D386 58             LD	E,B
D387 44             LD	B,H
- 
D388 8C             ADC	A,H
D389 81             ADD	A,C
D38A 60             LD	H,B
D38B 20 58          JR	NZ,D3E5
D38D 42             LD	B,D
D38E 97             SUB	A
D38F 20 B8          JR	NZ,D349
D391 FF             RST	38
D392 FD 0D          DEC	C
D394 00             NOP
D395 00             NOP
D396 20 FD          JR	NZ,D395
D398 0D             DEC	C
D399 00             NOP
D39A 01 03 FA       LD	BC,FA03
D39D 0D             DEC	C
D39E 00             NOP
D39F 06 04          LD	B,04
D3A1 03             INC	BC
D3A2 FE 0D          CP	0D
- 
D3A4 00             NOP
D3A5 19             ADD	HL,DE
D3A6 05             DEC	B
D3A7 FE 0D          CP	0D
D3A9 01 1F 0E       LD	BC,0E1F
D3AC FA 0D 09       JP	M,090D
D3AF 00             NOP
D3B0 0B             DEC	BC
D3B1 05             DEC	B
D3B2 FD 00          NOP
D3B4 0B             DEC	BC
D3B5 00             NOP
D3B6 05             DEC	B
D3B7 FD 0D          DEC	C
D3B9 13             INC	DE
D3BA 07             RLCA
D3BB 19             ADD	HL,DE
D3BC FC 49 12       CALL	M,1249
D3BF 08             EX	AF,AF'
D3C0 FA 20 00       JP	M,0020 ; JP	M,NEXT_CHAR
- 
D3C3 09             ADD	HL,BC
D3C4 04             INC	B
D3C5 10 FD          DJNZ	D3C4
D3C7 3A 04 1A       LD	A,(1A04)
D3CA 02             LD	(BC),A
D3CB FD 3A 06 1D    LD	A,(1D06)
D3CF 02             LD	(BC),A
D3D0 FD 3A 08 19    LD	A,(1908)
D3D4 02             LD	(BC),A
D3D5 FD 3A 0A 1C    LD	A,(1C0A)
D3D9 03             INC	BC
D3DA FD 3A 0C 17    LD	A,(170C)
D3DE 02             LD	(BC),A
D3DF FA 0D 0C       JP	M,0C0D
D3E2 11 04 02       LD	DE,0204
D3E5 FD 3A 0D 0B    LD	A,(0B0D)
D3E9 04             INC	B
D3EA FD 3A 0C 05    LD	A,(050C)
D3EE 02             LD	(BC),A
D3EF FB             EI
- 
D3F0 00             NOP
D3F1 04             INC	B
D3F2 04             INC	B
D3F3 FB             EI
D3F4 04             INC	B
D3F5 01 05 FB       LD	BC,FB05
D3F8 0D             DEC	C
D3F9 0F             RRCA
D3FA 06 FB          LD	B,FB
D3FC 13             INC	DE
D3FD 05             DEC	B
D3FE 01 FA 23       LD	BC,23FA
D401 0D             DEC	C
D402 01 06 03       LD	BC,0306
D405 FD 0D          DEC	C
D407 04             INC	B
D408 03             INC	BC
D409 17             RLA
D40A FE 0D          CP	0D
D40C 04             INC	B
- 
D40D 00             NOP
D40E 05             DEC	B
D40F FF             RST	38
D410 8C             ADC	A,H
D411 01 40 38       LD	BC,3840
D414 60             LD	H,B
D415 44             LD	B,H
D416 78             LD	A,B
D417 81             ADD	A,C
D418 A0             AND	B
D419 40             LD	B,B
D41A 70             LD	(HL),B
D41B 03             INC	BC
D41C 34             INC	(HL)
D41D 02             LD	(BC),A
D41E 88             ADC	A,B
D41F 88             ADC	A,B
D420 F0             RET	P
D421 42             LD	B,D
D422 54             LD	D,H
- 
D423 02             LD	(BC),A
D424 78             LD	A,B
D425 28 68          JR	Z,D48F
D427 42             LD	B,D
D428 97             SUB	A
D429 58             LD	E,B
D42A 88             ADC	A,B
D42B 96             SUB	(HL)
D42C 58             LD	E,B
D42D 00             NOP
D42E 98             SBC	A,B
D42F 08             EX	AF,AF'
D430 E8             RET	PE
D431 20 FF          JR	NZ,D432
D433 FD 0D          DEC	C
D435 00             NOP
D436 07             RLCA
D437 19             ADD	HL,DE
D438 FA 0D 00       JP	M,000D
D43B 00             NOP
- 
D43C 04             INC	B
D43D 05             DEC	B
D43E FE 0D          CP	0D
D440 04             INC	B
D441 00             NOP
D442 0C             INC	C
D443 FB             EI
D444 00             NOP
D445 05             DEC	B
D446 07             RLCA
D447 FA 13 07       JP	M,0713
D44A 02             LD	(BC),A
D44B 03             INC	BC
D44C 08             EX	AF,AF'
D44D FA 13 10       JP	M,1013
D450 00             NOP
D451 04             INC	B
D452 05             DEC	B
D453 FA 13 12       JP	M,1213
D456 05             DEC	B
- 
D457 02             LD	(BC),A
D458 08             EX	AF,AF'
D459 FA 13 12       JP	M,1213
D45C 0F             RRCA
D45D 02             LD	(BC),A
D45E 11 FD 20       LD	DE,20FD
D461 13             INC	DE
D462 0D             DEC	C
D463 02             LD	(BC),A
D464 FC 00 0B       CALL	M,0B00
D467 00             NOP
D468 FD 0D          DEC	C
D46A 01 0E 04       LD	BC,040E
D46D FA 0D 07       JP	M,070D
D470 0E 02          LD	C,02
D472 04             INC	B
D473 FA 13 07       JP	M,0713
D476 16 03          LD	D,03
D478 03             INC	BC
D479 FA 0D 01       JP	M,010D
- 
D47C 16 03          LD	D,03
D47E 03             INC	BC
D47F FD 50          LD	D,B
D481 03             INC	BC
D482 1A             LD	A,(DE)
D483 02             LD	(BC),A
D484 FD 50          LD	D,B
D486 06 1D          LD	B,1D
D488 02             LD	(BC),A
D489 FD 50          LD	D,B
D48B 0E 0A          LD	C,0A
D48D 11 FE 0D       LD	DE,0DFE ; LD	DE,CL_SC_ALL
D490 01 1F 09       LD	BC,091F
D493 FA 0D 0A       JP	M,0A0D
D496 1D             DEC	E
D497 05             DEC	B
D498 03             INC	BC
D499 FC 1E 0F       CALL	M,0F1E ; CALL	M,COPY_L_5
D49C 1B             DEC	DE
D49D FC 49 11       CALL	M,1149
- 
D4A0 17             RLA
D4A1 FC 49 11       CALL	M,1149
D4A4 12             LD	(DE),A
D4A5 FF             RST	38
D4A6 6C             LD	L,H
D4A7 05             DEC	B
D4A8 58             LD	E,B
D4A9 08             EX	AF,AF'
D4AA 50             LD	D,B
D4AB 45             LD	B,L
D4AC 34             INC	(HL)
D4AD 82             ADD	A,D
D4AE 60             LD	H,B
D4AF 50             LD	D,B
D4B0 C8             RET	Z
D4B1 42             LD	B,D
D4B2 6C             LD	L,H
D4B3 01 98 08       LD	BC,0898
D4B6 50             LD	D,B
D4B7 05             DEC	B
- 
D4B8 96             SUB	(HL)
D4B9 58             LD	E,B
D4BA 00             NOP
D4BB 97             SUB	A
D4BC 30 78          JR	NC,D536
D4BE 95             SUB	L
D4BF 03             INC	BC
D4C0 04             INC	B
D4C1 17             RLA
D4C2 99             SBC	A,C
D4C3 D8             RET	C
D4C4 30 70          JR	NC,D536
D4C6 FF             RST	38
D4C7 FD 0D          DEC	C
D4C9 00             NOP
D4CA 00             NOP
D4CB 20 FE          JR	NZ,D4CB
D4CD 0D             DEC	C
D4CE 01 1F 0C       LD	BC,0C1F
D4D1 FD 0D          DEC	C
- 
D4D3 01 00 04       LD	BC,0400
D4D6 FA 0D 03       JP	M,030D
D4D9 00             NOP
D4DA 03             INC	BC
D4DB 06 FD          LD	B,FD
D4DD 50             LD	D,B
D4DE 04             INC	B
D4DF 0A             LD	A,(BC)
D4E0 07             RLCA
D4E1 FD 50          LD	D,B
D4E3 04             INC	B
D4E4 13             INC	DE
D4E5 07             RLCA
D4E6 FB             EI
D4E7 00             NOP
D4E8 1D             DEC	E
D4E9 04             INC	B
D4EA FA 0D 04       JP	M,040D
D4ED 1C             INC	E
D4EE 04             INC	B
- 
D4EF 03             INC	BC
D4F0 FA 0D 06       JP	M,060D
D4F3 11 02 02       LD	DE,0202
D4F6 FD 0D          DEC	C
D4F8 0B             DEC	BC
D4F9 00             NOP
D4FA 08             EX	AF,AF'
D4FB FE 0D          CP	0D
D4FD 0C             INC	C
D4FE 00             NOP
D4FF 04             INC	B
D500 FA 0D 10       JP	M,100D
D503 00             NOP
D504 04             INC	B
D505 05             DEC	B
D506 FD 20 13       JR	NZ,D51C
D509 04             INC	B
D50A 1C             INC	E
D50B FD 0D          DEC	C
D50D 10 08          DJNZ	D517
- 
D50F 0D             DEC	C
D510 FD 0D          DEC	C
D512 10 19          DJNZ	D52D
D514 07             RLCA
D515 FD 50          LD	D,B
D517 0B             DEC	BC
D518 0A             LD	A,(BC)
D519 13             INC	DE
D51A FE 0D          CP	0D
D51C 08             EX	AF,AF'
D51D 1F             RRA
D51E 05             DEC	B
D51F FB             EI
D520 0B             DEC	BC
D521 1D             DEC	E
D522 05             DEC	B
D523 FC 1E 05       CALL	M,051E
D526 0F             RRCA
D527 FC 1E 05       CALL	M,051E
D52A 14             INC	D
- 
D52B FF             RST	38
D52C 50             LD	D,B
D52D 82             ADD	A,D
D52E 48             LD	C,B
D52F 50             LD	D,B
D530 E8             RET	PE
D531 46             LD	B,(HL)
D532 50             LD	D,B
D533 82             ADD	A,D
D534 70             LD	(HL),B
D535 40             LD	B,B
D536 98             SBC	A,B
D537 42             LD	B,D
D538 98             SBC	A,B
D539 30 18          JR	NC,D553
D53B 7C             LD	A,H
D53C 99             SBC	A,C
D53D 40             LD	B,B
D53E 20 58          JR	NZ,D598
D540 96             SUB	(HL)
- 
D541 10 00          DJNZ	D543
D543 FF             RST	38
D544 FD 20 13       JR	NZ,D55A
D547 00             NOP
D548 20 FD          JR	NZ,D547
D54A 0D             DEC	C
D54B 00             NOP
D54C 00             NOP
D54D 20 FE          JR	NZ,D54D
D54F 0D             DEC	C
D550 01 00 0C       LD	BC,0C00
D553 FE 0D          CP	0D
D555 01 06 02       LD	BC,0206
D558 FD 0D          DEC	C
D55A 10 00          DJNZ	D55C
D55C 03             INC	BC
D55D FA 0D 06       JP	M,060D
D560 01 02 07       LD	BC,0702
D563 FA 0D 06       JP	M,060D
D566 0B             DEC	BC
- 
D567 02             LD	(BC),A
D568 0E FD          LD	C,FD
D56A 50             LD	D,B
D56B 06 19          LD	B,19
D56D 03             INC	BC
D56E FE 0D          CP	0D
D570 07             RLCA
D571 1F             RRA
D572 0A             LD	A,(BC)
D573 FC 07 07       CALL	M,0707
D576 1E FA          LD	E,FA
D578 0D             DEC	C
D579 0F             RRCA
D57A 05             DEC	B
D57B 02             LD	(BC),A
D57C 02             LD	(BC),A
D57D FA 0D 0F       JP	M,0F0D
D580 15             DEC	D
D581 02             LD	(BC),A
D582 05             DEC	B
- 
D583 FF             RST	38
D584 58             LD	E,B
D585 01 20 58       LD	BC,5820
D588 D0             RET	NC
D589 42             LD	B,D
D58A 99             SBC	A,C
D58B E0             RET	PO
D58C 30 78          JR	NC,D606
D58E 95             SUB	L
D58F 03             INC	BC
D590 03             INC	BC
D591 06 9A          LD	B,9A
D593 3E 70          LD	A,70
D595 FF             RST	38
D596 FD 0D          DEC	C
D598 13             INC	DE
D599 00             NOP
D59A 20 FE          JR	NZ,D59A
D59C 0D             DEC	C
D59D 00             NOP
- 
D59E 1F             RRA
D59F 13             INC	DE
D5A0 FD 0D          DEC	C
D5A2 00             NOP
D5A3 10 0F          DJNZ	D5B4
D5A5 FE 0D          CP	0D
D5A7 09             ADD	HL,BC
D5A8 00             NOP
D5A9 06 FA          LD	B,FA
D5AB 0D             DEC	C
D5AC 00             NOP
D5AD 00             NOP
D5AE 07             RLCA
D5AF 02             LD	(BC),A
D5B0 FE 0D          CP	0D
D5B2 00             NOP
D5B3 04             INC	B
D5B4 04             INC	B
D5B5 FB             EI
D5B6 00             NOP
- 
D5B7 02             LD	(BC),A
D5B8 07             RLCA
D5B9 FA 0D 07       JP	M,070D
D5BC 00             NOP
D5BD 02             LD	(BC),A
D5BE 08             EX	AF,AF'
D5BF FD 50          LD	D,B
D5C1 08             EX	AF,AF'
D5C2 0C             INC	C
D5C3 03             INC	BC
D5C4 FD 17          RLA
D5C6 08             EX	AF,AF'
D5C7 1A             LD	A,(DE)
D5C8 03             INC	BC
D5C9 FD 17          RLA
D5CB 0C             INC	C
D5CC 1A             LD	A,(DE)
D5CD 05             DEC	B
D5CE FD 50          LD	D,B
D5D0 10 1A          DJNZ	D5EC
- 
D5D2 03             INC	BC
D5D3 FA 0D 11       JP	M,110D ; JP	M,KEY_NEXT
D5D6 04             INC	B
D5D7 02             LD	(BC),A
D5D8 02             LD	(BC),A
D5D9 FA 0D 0E       JP	M,0E0D ; JP	M,CL_SCR_2
D5DC 06 05          LD	B,05
D5DE 02             LD	(BC),A
D5DF FA 11 0E       JP	M,0E11
D5E2 0C             INC	C
D5E3 02             LD	(BC),A
D5E4 03             INC	BC
D5E5 FA 11 0E       JP	M,0E11
D5E8 13             INC	DE
D5E9 02             LD	(BC),A
D5EA 03             INC	BC
D5EB FB             EI
D5EC 08             EX	AF,AF'
D5ED 1D             DEC	E
D5EE 04             INC	B
- 
D5EF FE 00          CP	00
D5F1 04             INC	B
D5F2 1F             RRA
D5F3 04             INC	B
D5F4 FF             RST	38
D5F5 7C             LD	A,H
D5F6 82             ADD	A,D
D5F7 48             LD	C,B
D5F8 28 78          JR	Z,D672
D5FA 04             INC	B
D5FB 78             LD	A,B
D5FC 05             DEC	B
D5FD 80             ADD	A,B
D5FE 48             LD	C,B
D5FF 78             LD	A,B
D600 45             LD	B,L
D601 60             LD	H,B
D602 82             ADD	A,D
D603 88             ADC	A,B
D604 40             LD	B,B
- 
D605 E8             RET	PE
D606 43             LD	B,E
D607 9A             SBC	A,D
D608 06 A8          LD	B,A8
D60A 97             SUB	A
D60B 80             ADD	A,B
D60C 20 FF          JR	NZ,D60D
D60E FD 11 00 00    LD	DE,0000 ; LD	DE,START
D612 1C             INC	E
D613 FA 11 01       JP	M,0111
D616 18 02          JR	D61A
D618 04             INC	B
D619 FB             EI
D61A 00             NOP
D61B 1C             INC	E
D61C 08             EX	AF,AF'
D61D FA 11 00       JP	M,0011
D620 1E 09          LD	E,09
D622 02             LD	(BC),A
D623 FD 50          LD	D,B
- 
D625 08             EX	AF,AF'
D626 15             DEC	D
D627 09             ADD	HL,BC
D628 FD 1D          DEC	E
D62A 0B             DEC	BC
D62B 11 04 FD       LD	DE,FD04
D62E 50             LD	D,B
D62F 0D             DEC	C
D630 18 08          JR	D63A
D632 FD 1D          DEC	E
D634 08             EX	AF,AF'
D635 07             RLCA
D636 08             EX	AF,AF'
D637 FA 11 06       JP	M,0611
D63A 0F             RRCA
D63B 07             RLCA
D63C 03             INC	BC
D63D FA 0D 0E       JP	M,0E0D ; JP	M,CL_SCR_2
D640 11 06 03       LD	DE,0306
D643 FD 0D          DEC	C
- 
D645 13             INC	DE
D646 14             INC	D
D647 0C             INC	C
D648 FA 0D 08       JP	M,080D
D64B 00             NOP
D64C 03             INC	BC
D64D 02             LD	(BC),A
D64E FA 0D 11       JP	M,110D ; JP	M,KEY_NEXT
D651 00             NOP
D652 03             INC	BC
D653 05             DEC	B
D654 FB             EI
D655 11 02 03       LD	DE,0302
D658 FF             RST	38
D659 84             ADD	A,H
D65A 81             ADD	A,C
D65B 90             SUB	B
D65C 08             EX	AF,AF'
D65D 48             LD	C,B
D65E 45             LD	B,L
- 
D65F 88             ADC	A,B
D660 85             ADD	A,L
D661 48             LD	C,B
D662 08             EX	AF,AF'
D663 30 04          JR	NC,D669
D665 98             SBC	A,B
D666 18 C8          JR	D630
D668 69             LD	L,C
D669 99             SBC	A,C
D66A 28 40          JR	Z,D6AC
D66C 88             ADC	A,B
D66D FF             RST	38
D66E FA 11 00       JP	M,0011
D671 00             NOP
D672 02             LD	(BC),A
D673 20 FA          JR	NZ,D66F
D675 11 02 00       LD	DE,0002
D678 07             RLCA
D679 03             INC	BC
D67A FA 0D 09       JP	M,090D
- 
D67D 1E 0A          LD	E,0A
D67F 02             LD	(BC),A
D680 FD 0D          DEC	C
D682 13             INC	DE
D683 00             NOP
D684 20 FD          JR	NZ,D683
D686 0D             DEC	C
D687 12             LD	(DE),A
D688 06 09          LD	B,09
D68A FA 0D 10       JP	M,100D
D68D 09             ADD	HL,BC
D68E 02             LD	(BC),A
D68F 04             INC	B
D690 FA 0D 0D       JP	M,0D0D
D693 0D             DEC	C
D694 06 02          LD	B,02
D696 FD 51          LD	D,C
D698 0C             INC	C
D699 0D             DEC	C
D69A 02             LD	(BC),A
- 
D69B FD 51          LD	D,C
D69D 0F             RRCA
D69E 09             ADD	HL,BC
D69F 04             INC	B
D6A0 FD 51          LD	D,C
D6A2 11 06 03       LD	DE,0306
D6A5 FD 55          LD	D,iY
D6A7 0D             DEC	C
D6A8 00             NOP
D6A9 05             DEC	B
D6AA FD 1D          DEC	E
D6AC 0A             LD	A,(BC)
D6AD 07             RLCA
D6AE 03             INC	BC
D6AF FD 55          LD	D,iY
D6B1 07             RLCA
D6B2 03             INC	BC
D6B3 03             INC	BC
D6B4 FD 1D          DEC	E
D6B6 0D             DEC	C
- 
D6B7 11 0D FD       LD	DE,FD0D
D6BA 51             LD	D,C
D6BB 12             LD	(DE),A
D6BC 11 0D FD       LD	DE,FD0D
D6BF 51             LD	D,C
D6C0 08             EX	AF,AF'
D6C1 1E 02          LD	E,02
D6C3 FF             RST	38
D6C4 60             LD	H,B
D6C5 02             LD	(BC),A
D6C6 80             ADD	A,B
D6C7 88             ADC	A,B
D6C8 E0             RET	PO
D6C9 42             LD	B,D
D6CA 44             LD	B,H
D6CB 82             ADD	A,D
D6CC 58             LD	E,B
D6CD 88             ADC	A,B
D6CE E0             RET	PO
D6CF 43             LD	B,E
- 
D6D0 9A             SBC	A,D
D6D1 0E B0          LD	C,B0
D6D3 99             SBC	A,C
D6D4 78             LD	A,B
D6D5 3C             INC	A
D6D6 90             SUB	B
D6D7 FF             RST	38
D6D8 FD 0D          DEC	C
D6DA 00             NOP
D6DB 00             NOP
D6DC 20 FA          JR	NZ,D6D8
D6DE 0D             DEC	C
D6DF 01 00 0E       LD	BC,0E00 ; LD	BC,CL_SCROLL
D6E2 03             INC	BC
D6E3 FA 13 12       JP	M,1213
D6E6 00             NOP
D6E7 02             LD	(BC),A
D6E8 20 FD          JR	NZ,D6E7
D6EA 13             INC	DE
D6EB 11 0C 14       LD	DE,140C
- 
D6EE FD 13          INC	DE
D6F0 10 10          DJNZ	D702
D6F2 10 FD          DJNZ	D6F1
D6F4 13             INC	DE
D6F5 0F             RRCA
D6F6 14             INC	D
D6F7 0C             INC	C
D6F8 FD 13          INC	DE
D6FA 0E 18          LD	C,18
D6FC 08             EX	AF,AF'
D6FD F8             RET	M
D6FE 56             LD	D,(HL)
D6FF 0C             INC	C
D700 19             ADD	HL,DE
D701 02             LD	(BC),A
D702 04             INC	B
D703 FD 55          LD	D,iY
D705 09             ADD	HL,BC
D706 10 04          DJNZ	D70C
D708 FD 55          LD	D,iY
- 
D70A 09             ADD	HL,BC
D70B 09             ADD	HL,BC
D70C 03             INC	BC
D70D FD 1D          DEC	E
D70F 0C             INC	C
D710 03             INC	BC
D711 06 FA          LD	B,FA
D713 0D             DEC	C
D714 04             INC	B
D715 05             DEC	B
D716 06 02          LD	B,02
D718 FD 0D          DEC	C
D71A 03             INC	BC
D71B 05             DEC	B
D71C 1B             DEC	DE
D71D FB             EI
D71E 03             INC	BC
D71F 03             INC	BC
D720 09             ADD	HL,BC
D721 F9             LD	SP,HL
- 
D722 0E 12          LD	C,12
D724 FF             RST	38
D725 74             LD	(HL),H
D726 05             DEC	B
D727 68             LD	L,B
D728 20 78          JR	NZ,D7A2
D72A 05             DEC	B
D72B 4C             LD	C,H
D72C 81             ADD	A,C
D72D 80             ADD	A,B
D72E 00             NOP
D72F 50             LD	D,B
D730 44             LD	B,H
D731 99             SBC	A,C
D732 A0             AND	B
D733 48             LD	C,B
D734 70             LD	(HL),B
D735 FF             RST	38
D736 FD 0D          DEC	C
D738 00             NOP
- 
D739 00             NOP
D73A 20 FE          JR	NZ,D73A
D73C 0D             DEC	C
D73D 01 1F 08       LD	BC,081F
D740 FD 0D          DEC	C
D742 03             INC	BC
D743 00             NOP
D744 13             INC	DE
D745 FA 0D 04       JP	M,040D
D748 04             INC	B
D749 02             LD	(BC),A
D74A 0F             RRCA
D74B FD 55          LD	D,iY
D74D 05             DEC	B
D74E 13             INC	DE
D74F 04             INC	B
D750 FD 1D          DEC	E
D752 08             EX	AF,AF'
D753 1B             DEC	DE
D754 04             INC	B
- 
D755 FA 13 0E       JP	M,0E13
D758 00             NOP
D759 06 04          LD	B,04
D75B FD 13          INC	DE
D75D 13             INC	DE
D75E 04             INC	B
D75F 1C             INC	E
D760 FA 13 0E       JP	M,0E13
D763 12             LD	(DE),A
D764 02             LD	(BC),A
D765 02             LD	(BC),A
D766 FA 13 10       JP	M,1013
D769 12             LD	(DE),A
D76A 02             LD	(BC),A
D76B 06 FD          LD	B,FD
D76D 13             INC	DE
D76E 12             LD	(DE),A
D76F 12             LD	(DE),A
D770 0E F9          LD	C,F9
D772 11 04 F8       LD	DE,F804
- 
D775 83             ADD	A,E
D776 10 10          DJNZ	D788
D778 03             INC	BC
D779 02             LD	(BC),A
D77A FB             EI
D77B 12             LD	(DE),A
D77C 1A             LD	A,(DE)
D77D 02             LD	(BC),A
D77E FF             RST	38
D77F 60             LD	H,B
D780 01 88 30       LD	BC,3088
D783 70             LD	(HL),B
D784 07             RLCA
D785 99             SBC	A,C
D786 C0             RET	NZ
D787 28 80          JR	Z,D709
D789 95             SUB	L
D78A 02             LD	(BC),A
D78B 01 0E 9A       LD	BC,9A0E
D78E 2E 54          LD	L,54
- 
D790 FF             RST	38
D791 FD 13          INC	DE
D793 00             NOP
D794 00             NOP
D795 20 FE          JR	NZ,D795
D797 13             INC	DE
D798 01 00 08       LD	BC,0800 ; LD	BC,VR_CONT_3
D79B FE 0D          CP	0D
D79D 00             NOP
D79E 1F             RRA
D79F 0D             DEC	C
D7A0 FD 20 13       JR	NZ,D7B6
D7A3 05             DEC	B
D7A4 16 FD          LD	D,FD
D7A6 51             LD	D,C
D7A7 10 1D          DJNZ	D7C6
D7A9 03             INC	BC
D7AA FD 51          LD	D,C
D7AC 12             LD	(DE),A
D7AD 15             DEC	D
- 
D7AE 02             LD	(BC),A
D7AF FD 0D          DEC	C
D7B1 13             INC	DE
D7B2 15             DEC	D
D7B3 02             LD	(BC),A
D7B4 FA 0D 11       JP	M,110D ; JP	M,KEY_NEXT
D7B7 1D             DEC	E
D7B8 03             INC	BC
D7B9 03             INC	BC
D7BA FD 51          LD	D,C
D7BC 12             LD	(DE),A
D7BD 1B             DEC	DE
D7BE 02             LD	(BC),A
D7BF FD 0D          DEC	C
D7C1 13             INC	DE
D7C2 1B             DEC	DE
D7C3 02             LD	(BC),A
D7C4 FA 13 12       JP	M,1213
D7C7 00             NOP
D7C8 02             LD	(BC),A
- 
D7C9 05             DEC	B
D7CA FD 51          LD	D,C
D7CC 12             LD	(DE),A
D7CD 09             ADD	HL,BC
D7CE 02             LD	(BC),A
D7CF FD 0D          DEC	C
D7D1 13             INC	DE
D7D2 09             ADD	HL,BC
D7D3 02             LD	(BC),A
D7D4 FD 51          LD	D,C
D7D6 12             LD	(DE),A
D7D7 0F             RRCA
D7D8 02             LD	(BC),A
D7D9 FD 0D          DEC	C
D7DB 13             INC	DE
D7DC 0F             RRCA
D7DD 02             LD	(BC),A
D7DE FD 07          RLCA
D7E0 0D             DEC	C
D7E1 1B             DEC	DE
- 
D7E2 02             LD	(BC),A
D7E3 FD 1D          DEC	E
D7E5 0A             LD	A,(BC)
D7E6 15             DEC	D
D7E7 02             LD	(BC),A
D7E8 FD 07          RLCA
D7EA 0C             INC	C
D7EB 0F             RRCA
D7EC 02             LD	(BC),A
D7ED FD 1D          DEC	E
D7EF 0A             LD	A,(BC)
D7F0 09             ADD	HL,BC
D7F1 02             LD	(BC),A
D7F2 FD 07          RLCA
D7F4 0B             DEC	BC
D7F5 03             INC	BC
D7F6 03             INC	BC
D7F7 FD 1D          DEC	E
D7F9 08             EX	AF,AF'
D7FA 01 02 FD       LD	BC,FD02
- 
D7FD 3C             INC	A
D7FE 06 05          LD	B,05
D800 04             INC	B
D801 FD 3C          INC	A
D803 06 0F          LD	B,0F
D805 08             EX	AF,AF'
D806 FD 1D          DEC	E
D808 06 1B          LD	B,1B
D80A 04             INC	B
D80B FB             EI
D80C 00             NOP
D80D 1D             DEC	E
D80E 06 FF          LD	B,FF
D810 70             LD	(HL),B
D811 01 30 38       LD	BC,3830
D814 88             ADC	A,B
D815 05             DEC	B
D816 8C             ADC	A,H
D817 02             LD	(BC),A
D818 60             LD	H,B
- 
D819 38 88          JR 	C,D7A3
D81B 07             RLCA
D81C 58             LD	E,B
D81D 81             ADD	A,C
D81E 20 78          JR	NZ,D898
D820 A8             XOR	B
D821 06 7C          LD	B,7C
D823 85             ADD	A,L
D824 C0             RET	NZ
D825 08             EX	AF,AF'
D826 88             ADC	A,B
D827 03             INC	BC
D828 64             LD	H,H
D829 82             ADD	A,D
D82A 90             SUB	B
D82B 38 88          JR 	C,D7B5
D82D 02             LD	(BC),A
D82E 96             SUB	(HL)
D82F 48             LD	C,B
D830 00             NOP
- 
D831 FF             RST	38
D832 FD 04          INC	B
D834 00             NOP
D835 00             NOP
D836 20 FE          JR	NZ,D836
D838 04             INC	B
D839 01 00 03       LD	BC,0300
D83C FE 04          CP	04
D83E 05             DEC	B
D83F 1F             RRA
D840 08             EX	AF,AF'
D841 FB             EI
D842 05             DEC	B
D843 1D             DEC	E
D844 07             RLCA
D845 FD 07          RLCA
D847 0C             INC	C
D848 17             RLA
D849 08             EX	AF,AF'
D84A FE 13          CP	13
- 
D84C 0F             RRCA
D84D 00             NOP
D84E 04             INC	B
D84F FD 13          INC	DE
D851 13             INC	DE
D852 00             NOP
D853 20 FA          JR	NZ,D84F
D855 3C             INC	A
D856 08             EX	AF,AF'
D857 00             NOP
D858 06 04          LD	B,04
D85A FA 3C 0A       JP	M,0A3C
D85D 08             EX	AF,AF'
D85E 03             INC	BC
D85F 03             INC	BC
D860 FD 3C          INC	A
D862 0C             INC	C
D863 0F             RRCA
D864 02             LD	(BC),A
D865 FB             EI
- 
D866 0C             INC	C
D867 11 04 FA       LD	DE,FA04
D86A 13             INC	DE
D86B 0C             INC	C
D86C 13             INC	DE
D86D 07             RLCA
D86E 02             LD	(BC),A
D86F FD 22 06 11    LD	(1106),IY
D873 04             INC	B
D874 FD 22 10 08    LD	(0810),IY
D878 0B             DEC	BC
D879 FD 13          INC	DE
D87B 12             LD	(DE),A
D87C 17             RLA
D87D 09             ADD	HL,BC
D87E FA 04 05       JP	M,0504
D881 17             RLA
D882 02             LD	(BC),A
D883 06 FF          LD	B,FF
D885 84             ADD	A,H
- 
D886 05             DEC	B
D887 28 18          JR	Z,D8A1
D889 78             LD	A,B
D88A 42             LD	B,D
D88B 54             LD	D,H
D88C 02             LD	(BC),A
D88D 10 88          DJNZ	D817
D88F F0             RET	P
D890 47             LD	B,A
D891 48             LD	C,B
D892 01 88 08       LD	BC,0888
D895 70             LD	(HL),B
D896 44             LD	B,H
D897 90             SUB	B
D898 02             LD	(BC),A
D899 60             LD	H,B
D89A 28 70          JR	Z,D90C
D89C 44             LD	B,H
D89D 99             SBC	A,C
D89E A8             XOR	B
- 
D89F 48             LD	C,B
D8A0 90             SUB	B
D8A1 96             SUB	(HL)
D8A2 70             LD	(HL),B
D8A3 00             NOP
D8A4 FF             RST	38
D8A5 FD 04          INC	B
D8A7 00             NOP
D8A8 00             NOP
D8A9 20 FA          JR	NZ,D8A5
D8AB 04             INC	B
D8AC 01 09 07       LD	BC,0709
D8AF 03             INC	BC
D8B0 FE 04          CP	04
D8B2 05             DEC	B
D8B3 00             NOP
D8B4 08             EX	AF,AF'
D8B5 FD 04          INC	B
D8B7 0C             INC	C
D8B8 01 0C FD       LD	BC,FD0C
- 
D8BB 50             LD	D,B
D8BC 0C             INC	C
D8BD 0D             DEC	C
D8BE 02             LD	(BC),A
D8BF FA 13 12       JP	M,1213
D8C2 00             NOP
D8C3 02             LD	(BC),A
D8C4 20 FA          JR	NZ,D8C0
D8C6 13             INC	DE
D8C7 0E 0E          LD	C,0E
D8C9 04             INC	B
D8CA 05             DEC	B
D8CB FA 3C 0B       JP	M,0B3C
D8CE 13             INC	DE
D8CF 02             LD	(BC),A
D8D0 02             LD	(BC),A
D8D1 FA 3C 05       JP	M,053C ; JP	M,SA_DELAY
D8D4 13             INC	DE
D8D5 02             LD	(BC),A
D8D6 02             LD	(BC),A
- 
D8D7 FA 3C 05       JP	M,053C ; JP	M,SA_DELAY
D8DA 19             ADD	HL,DE
D8DB 07             RLCA
D8DC 02             LD	(BC),A
D8DD FB             EI
D8DE 05             DEC	B
D8DF 1B             DEC	DE
D8E0 06 FA          LD	B,FA
D8E2 04             INC	B
D8E3 05             DEC	B
D8E4 1D             DEC	E
D8E5 02             LD	(BC),A
D8E6 03             INC	BC
D8E7 FE 13          CP	13
D8E9 07             RLCA
D8EA 1F             RRA
D8EB 0B             DEC	BC
D8EC FD 55          LD	D,iY
D8EE 0B             DEC	BC
D8EF 1B             DEC	DE
- 
D8F0 02             LD	(BC),A
D8F1 FD 50          LD	D,B
D8F3 0F             RRCA
D8F4 18 07          JR	D8FD
D8F6 FB             EI
D8F7 0B             DEC	BC
D8F8 1D             DEC	E
D8F9 04             INC	B
D8FA FD 55          LD	D,iY
D8FC 05             DEC	B
D8FD 01 03 FD       LD	BC,FD03
D900 55             LD	D,L
D901 09             ADD	HL,BC
D902 01 03 FD       LD	BC,FD03
D905 50             LD	D,B
D906 07             RLCA
D907 06 03          LD	B,03
D909 FD 55          LD	D,iY
D90B 08             EX	AF,AF'
D90C 0C             INC	C
- 
D90D 03             INC	BC
D90E FB             EI
D90F 12             LD	(DE),A
D910 1D             DEC	E
D911 02             LD	(BC),A
D912 FC 1E 09       CALL	M,091E ; CALL	M,ME_OLD_V4
D915 0F             RRCA
D916 FC 1E 0A       CALL	M,0A1E
D919 15             DEC	D
D91A FF             RST	38
D91B 58             LD	E,B
D91C 01 50 08       LD	BC,0850
D91F 68             LD	L,B
D920 43             LD	B,E
D921 2C             INC	L
D922 81             ADD	A,C
D923 80             ADD	A,B
D924 08             EX	AF,AF'
D925 60             LD	H,B
D926 42             LD	B,D
- 
D927 7C             LD	A,H
D928 02             LD	(BC),A
D929 80             ADD	A,B
D92A 08             EX	AF,AF'
D92B 60             LD	H,B
D92C 05             DEC	B
D92D 8C             ADC	A,H
D92E 82             ADD	A,D
D92F B0             OR	B
D930 08             EX	AF,AF'
D931 80             ADD	A,B
D932 47             LD	B,A
D933 96             SUB	(HL)
D934 6A             LD	L,D
D935 00             NOP
D936 98             SBC	A,B
D937 08             EX	AF,AF'
D938 98             SBC	A,B
D939 5A             LD	E,D
D93A 97             SUB	A
- 
D93B 88             ADC	A,B
D93C C0             RET	NZ
D93D FF             RST	38
D93E FD 04          INC	B
D940 00             NOP
D941 00             NOP
D942 20 FA          JR	NZ,D93E
D944 04             INC	B
D945 01 04 0A       LD	BC,0A04
D948 02             LD	(BC),A
D949 FA 04 01       JP	M,0104
D94C 06 06          LD	B,06
D94E 04             INC	B
D94F FD 04          INC	B
D951 06 0A          LD	B,0A
D953 08             EX	AF,AF'
D954 FB             EI
D955 05             DEC	B
D956 02             LD	(BC),A
D957 08             EX	AF,AF'
- 
D958 FA 13 05       JP	M,0513
D95B 00             NOP
D95C 09             ADD	HL,BC
D95D 02             LD	(BC),A
D95E FD 13          INC	DE
D960 0D             DEC	C
D961 02             LD	(BC),A
D962 06 FE          LD	B,FE
D964 13             INC	DE
D965 0E 00          LD	C,00
D967 05             DEC	B
D968 FD 13          INC	DE
D96A 13             INC	DE
D96B 00             NOP
D96C 20 FD          JR	NZ,D96B
D96E 55             LD	D,L
D96F 10 08          DJNZ	D979
D971 04             INC	B
D972 FA 3C 0E       JP	M,0E3C
D975 14             INC	D
- 
D976 03             INC	BC
D977 02             LD	(BC),A
D978 FA 3C 0E       JP	M,0E3C
D97B 19             ADD	HL,DE
D97C 03             INC	BC
D97D 02             LD	(BC),A
D97E FD 13          INC	DE
D980 12             LD	(DE),A
D981 19             ADD	HL,DE
D982 07             RLCA
D983 FA 13 10       JP	M,1013
D986 1D             DEC	E
D987 02             LD	(BC),A
D988 03             INC	BC
D989 FE 04          CP	04
D98B 01 1F 0B       LD	BC,0B1F
D98E FD 55          LD	D,iY
D990 0B             DEC	BC
D991 1D             DEC	E
D992 02             LD	(BC),A
- 
D993 FD 50          LD	D,B
D995 09             ADD	HL,BC
D996 18 03          JR	D99B
D998 FD 50          LD	D,B
D99A 07             RLCA
D99B 14             INC	D
D99C 02             LD	(BC),A
D99D FD 55          LD	D,iY
D99F 04             INC	B
D9A0 14             INC	D
D9A1 02             LD	(BC),A
D9A2 FA 04 01       JP	M,0104
D9A5 16 04          LD	D,04
D9A7 02             LD	(BC),A
D9A8 FC 5E 02       CALL	M,025E
D9AB 1A             LD	A,(DE)
D9AC FD 5F          LD	E,A
D9AE 02             LD	(BC),A
D9AF 1B             DEC	DE
D9B0 04             INC	B
- 
D9B1 FC 48 01       CALL	M,0148
D9B4 10 FF          DJNZ	D9B5
D9B6 68             LD	L,B
D9B7 05             DEC	B
D9B8 D8             RET	C
D9B9 38 80          JR 	C,D93B
D9BB 44             LD	B,H
D9BC 34             INC	(HL)
D9BD 02             LD	(BC),A
D9BE 88             ADC	A,B
D9BF 08             EX	AF,AF'
D9C0 B8             CP	B
D9C1 05             DEC	B
D9C2 34             INC	(HL)
D9C3 81             ADD	A,C
D9C4 20 50          JR	NZ,DA16
D9C6 80             ADD	A,B
D9C7 07             RLCA
D9C8 95             SUB	L
D9C9 02             LD	(BC),A
- 
D9CA 0B             DEC	BC
D9CB 05             DEC	B
D9CC 9A             SBC	A,D
D9CD 36 70          LD	(HL),70
D9CF FF             RST	38
D9D0 FD 0D          DEC	C
D9D2 00             NOP
D9D3 00             NOP
D9D4 20 FD          JR	NZ,D9D3
D9D6 20 13          JR	NZ,D9EB
D9D8 00             NOP
D9D9 1F             RRA
D9DA FE 0D          CP	0D
D9DC 01 1F 05       LD	BC,051F
D9DF FE 04          CP	04
D9E1 0B             DEC	BC
D9E2 1F             RRA
D9E3 09             ADD	HL,BC
D9E4 FE 0A          CP	0A
D9E6 02             LD	(BC),A
- 
D9E7 07             RLCA
D9E8 06 FD          LD	B,FD
D9EA 07             RLCA
D9EB 07             RLCA
D9EC 08             EX	AF,AF'
D9ED 02             LD	(BC),A
D9EE FD 07          RLCA
D9F0 04             INC	B
D9F1 0C             INC	C
D9F2 11 FE 0A       LD	DE,0AFE
D9F5 04             INC	B
D9F6 0E 08          LD	C,08
D9F8 FA 0D 04       JP	M,040D
D9FB 15             DEC	D
D9FC 02             LD	(BC),A
D9FD 02             LD	(BC),A
D9FE FD 07          RLCA
DA00 09             ADD	HL,BC
DA01 0C             INC	C
DA02 02             LD	(BC),A
- 
DA03 FD 50          LD	D,B
DA05 0C             INC	C
DA06 00             NOP
DA07 0A             LD	A,(BC)
DA08 FD 50          LD	D,B
DA0A 11 00 03       LD	DE,0300
DA0D FD 50          LD	D,B
DA0F 11 05 06       LD	DE,0605 ; LD	DE,SAVE_ETC
DA12 FA 0A 11       JP	M,110A
DA15 07             RLCA
DA16 02             LD	(BC),A
DA17 02             LD	(BC),A
DA18 FA 04 11       JP	M,1104
DA1B 0F             RRCA
DA1C 02             LD	(BC),A
DA1D 02             LD	(BC),A
DA1E FD 06 0B       LD	B,0B
DA21 1A             LD	A,(DE)
DA22 05             DEC	B
DA23 FD 06 0B       LD	B,0B
- 
DA26 13             INC	DE
DA27 02             LD	(BC),A
DA28 FD 06 0F       LD	B,0F
DA2B 18 03          JR	DA30
DA2D FD 06 11       LD	B,11
DA30 15             DEC	D
DA31 02             LD	(BC),A
DA32 FE 0A          CP	0A
DA34 0F             RRCA
DA35 17             RLA
DA36 03             INC	BC
DA37 FE 0A          CP	0A
DA39 0A             LD	A,(BC)
DA3A 17             RLA
DA3B 02             LD	(BC),A
DA3C FC 04 11       CALL	M,1104
DA3F 1D             DEC	E
DA40 FB             EI
DA41 0C             INC	C
DA42 05             DEC	B
- 
DA43 05             DEC	B
DA44 FF             RST	38
DA45 3C             INC	A
DA46 81             ADD	A,C
DA47 50             LD	D,B
DA48 00             NOP
DA49 40             LD	B,B
DA4A 03             INC	BC
DA4B 88             ADC	A,B
DA4C 01 60 50       LD	BC,5060
DA4F 88             ADC	A,B
DA50 04             INC	B
DA51 98             SBC	A,B
DA52 08             EX	AF,AF'
DA53 D0             RET	NC
DA54 55             LD	D,L
DA55 97             SUB	A
DA56 18 A8          JR	DA00
DA58 95             SUB	L
DA59 03             INC	BC
- 
DA5A 01 0E 99       LD	BC,990E
DA5D 88             ADC	A,B
DA5E 58             LD	E,B
DA5F 88             ADC	A,B
DA60 FF             RST	38
DA61 FD 11 00 00    LD	DE,0000 ; LD	DE,START
DA65 26 FE          LD	H,FE
DA67 11 01 05       LD	DE,0501
DA6A 05             DEC	B
DA6B FA 11 01       JP	M,0111
DA6E 1E 0D          LD	E,0D
DA70 02             LD	(BC),A
DA71 FA 60 08       JP	M,0860
DA74 00             NOP
DA75 0C             INC	C
DA76 02             LD	(BC),A
DA77 FA 60 0A       JP	M,0A60
DA7A 02             LD	(BC),A
DA7B 0A             LD	A,(BC)
DA7C 02             LD	(BC),A
- 
DA7D FA 60 0C       JP	M,0C60
DA80 04             INC	B
DA81 08             EX	AF,AF'
DA82 02             LD	(BC),A
DA83 FA 60 0E       JP	M,0E60
DA86 06 06          LD	B,06
DA88 02             LD	(BC),A
DA89 FA 60 10       JP	M,1060
DA8C 08             EX	AF,AF'
DA8D 04             INC	B
DA8E 02             LD	(BC),A
DA8F FA 60 12       JP	M,1260
DA92 0A             LD	A,(BC)
DA93 02             LD	(BC),A
DA94 16 F7          LD	D,F7
DA96 05             DEC	B
DA97 06 F7          LD	B,F7
DA99 05             DEC	B
DA9A 0D             DEC	C
DA9B F7             RST	30
- 
DA9C 05             DEC	B
DA9D 14             INC	D
DA9E F7             RST	30
DA9F 09             ADD	HL,BC
DAA0 1B             DEC	DE
DAA1 F7             RST	30
DAA2 09             ADD	HL,BC
DAA3 0D             DEC	C
DAA4 F7             RST	30
DAA5 0D             DEC	C
DAA6 0D             DEC	C
DAA7 F7             RST	30
DAA8 0D             DEC	C
DAA9 14             INC	D
DAAA FC 69 0A       CALL	M,0A69 ; CALL	M,PO_QUEST
DAAD 1D             DEC	E
DAAE F8             RET	M
DAAF 61             LD	H,C
DAB0 0B             DEC	BC
DAB1 14             INC	D
- 
DAB2 02             LD	(BC),A
DAB3 03             INC	BC
DAB4 F8             RET	M
DAB5 6A             LD	L,D
DAB6 07             RLCA
DAB7 1B             DEC	DE
DAB8 02             LD	(BC),A
DAB9 03             INC	BC
DABA F8             RET	M
DABB 6A             LD	L,D
DABC 03             INC	BC
DABD 06 02          LD	B,02
DABF 03             INC	BC
DAC0 F8             RET	M
DAC1 61             LD	H,C
DAC2 03             INC	BC
DAC3 0D             DEC	C
DAC4 02             LD	(BC),A
DAC5 03             INC	BC
DAC6 F8             RET	M
- 
DAC7 61             LD	H,C
DAC8 03             INC	BC
DAC9 14             INC	D
DACA 02             LD	(BC),A
DACB 03             INC	BC
DACC FF             RST	38
DACD 7C             LD	A,H
DACE 05             DEC	B
DACF 50             LD	D,B
DAD0 10 58          DJNZ	DB2A
DAD2 44             LD	B,H
DAD3 3C             INC	A
DAD4 00             NOP
DAD5 80             ADD	A,B
DAD6 50             LD	D,B
DAD7 F0             RET	P
DAD8 42             LD	B,D
DAD9 9B             SBC	A,E
DADA 53             LD	D,E
DADB E6 FF          AND	FF
- 
DADD FD 11 00 00    LD	DE,0000 ; LD	DE,START
DAE1 21 FA 11       LD	HL,11FA
DAE4 01 1E 09       LD	BC,091E ; LD	BC,ME_OLD_V4
DAE7 02             LD	(BC),A
DAE8 FA 60 12       JP	M,1260
DAEB 00             NOP
DAEC 02             LD	(BC),A
DAED 20 FD          JR	NZ,DAEC
DAEF 1D             DEC	E
DAF0 0D             DEC	C
DAF1 08             EX	AF,AF'
DAF2 0A             LD	A,(BC)
DAF3 FD 1D          DEC	E
DAF5 09             ADD	HL,BC
DAF6 18 03          JR	DAFB
DAF8 FC 1E 0C       CALL	M,0C1E
DAFB 13             INC	DE
DAFC FA 60 0D       JP	M,0D60
DAFF 1C             INC	E
DB00 05             DEC	B
- 
DB01 04             INC	B
DB02 F9             LD	SP,HL
DB03 10 05          DJNZ	DB0A
DB05 FE 39          CP	39
DB07 03             INC	BC
DB08 00             NOP
DB09 0B             DEC	BC
DB0A FE 39          CP	39
DB0C 06 07          LD	B,07
DB0E 08             EX	AF,AF'
DB0F FA 3C 06       JP	M,063C
DB12 15             DEC	D
DB13 06 03          LD	B,03
DB15 FB             EI
DB16 06 13          LD	B,13
DB18 04             INC	B
DB19 FD 08          EX	AF,AF'
DB1B 0D             DEC	C
DB1C 01 02 FD       LD	BC,FD02
DB1F 08             EX	AF,AF'
- 
DB20 0A             LD	A,(BC)
DB21 05             DEC	B
DB22 02             LD	(BC),A
DB23 FD 08          EX	AF,AF'
DB25 07             RLCA
DB26 01 02 FC       LD	BC,FC02
DB29 48             LD	C,B
DB2A 01 10 FC       LD	BC,FC10
DB2D 69             LD	L,C
DB2E 03             INC	BC
DB2F 1D             DEC	E
DB30 FD 22 06 08    LD	(0806),IY ; LD	(REPORT_R),IY
DB34 09             ADD	HL,BC
DB35 FD 1D          DEC	E
DB37 0A             LD	A,(BC)
DB38 11 04 FF       LD	DE,FF04
DB3B 3C             INC	A
DB3C 01 80 38       LD	BC,3880
DB3F B8             CP	B
DB40 02             LD	(BC),A
- 
DB41 60             LD	H,B
DB42 00             NOP
DB43 20 38          JR	NZ,DB7D
DB45 78             LD	A,B
DB46 06 88          LD	B,88
DB48 05             DEC	B
DB49 18 18          JR	DB63
DB4B 70             LD	(HL),B
DB4C 43             LD	B,E
DB4D 9B             SBC	A,E
DB4E 1B             DEC	DE
DB4F E6 96          AND	96
DB51 13             INC	DE
DB52 00             NOP
DB53 99             SBC	A,C
DB54 D0             RET	NC
DB55 68             LD	L,B
DB56 88             ADC	A,B
DB57 FF             RST	38
DB58 FA 0D 01       JP	M,010D
- 
DB5B 00             NOP
DB5C 0D             DEC	C
DB5D 02             LD	(BC),A
DB5E FD 0D          DEC	C
DB60 00             NOP
DB61 00             NOP
DB62 20 FA          JR	NZ,DB5E
DB64 04             INC	B
DB65 0F             RRCA
DB66 00             NOP
DB67 05             DEC	B
DB68 02             LD	(BC),A
DB69 FD 50          LD	D,B
DB6B 11 02 03       LD	DE,0302
DB6E FD 50          LD	D,B
DB70 11 07 04       LD	DE,0407
DB73 FD 20 13       JR	NZ,DB89
DB76 02             LD	(BC),A
DB77 1E FA          LD	E,FA
DB79 0A             LD	A,(BC)
- 
DB7A 10 0F          DJNZ	DB8B
DB7C 02             LD	(BC),A
DB7D 02             LD	(BC),A
DB7E FD 50          LD	D,B
DB80 11 15 0B       LD	DE,0B15
DB83 FD 50          LD	D,B
DB85 06 02          LD	B,02
DB87 03             INC	BC
DB88 FD 07          RLCA
DB8A 0C             INC	C
DB8B 1A             LD	A,(DE)
DB8C 06 FA          LD	B,FA
DB8E 0A             LD	A,(BC)
DB8F 06 18          LD	B,18
DB91 09             ADD	HL,BC
DB92 02             LD	(BC),A
DB93 FB             EI
DB94 06 1A          LD	B,1A
DB96 06 FC          LD	B,FC
DB98 69             LD	L,C
- 
DB99 03             INC	BC
DB9A 1B             DEC	DE
DB9B FA 04 06       JP	M,0604
DB9E 12             LD	(DE),A
DB9F 02             LD	(BC),A
DBA0 02             LD	(BC),A
DBA1 FE 0A          CP	0A
DBA3 03             INC	BC
DBA4 1C             INC	E
DBA5 07             RLCA
DBA6 FA 0D 06       JP	M,060D
DBA9 0C             INC	C
DBAA 02             LD	(BC),A
DBAB 02             LD	(BC),A
DBAC FD 04          INC	B
DBAE 0A             LD	A,(BC)
DBAF 0E 04          LD	C,04
DBB1 FC 04 0B       CALL	M,0B04
DBB4 0E FC          LD	C,FC
DBB6 04             INC	B
- 
DBB7 0B             DEC	BC
DBB8 11 FD 07       LD	DE,07FD
DBBB 0D             DEC	C
DBBC 15             DEC	D
DBBD 03             INC	BC
DBBE FF             RST	38
DBBF 90             SUB	B
DBC0 02             LD	(BC),A
DBC1 78             LD	A,B
DBC2 08             EX	AF,AF'
DBC3 40             LD	B,B
DBC4 41             LD	B,C
DBC5 64             LD	H,H
DBC6 82             ADD	A,D
DBC7 A8             XOR	B
DBC8 08             EX	AF,AF'
DBC9 40             LD	B,B
DBCA 45             LD	B,L
DBCB 99             SBC	A,C
DBCC 28 30          JR	Z,DBFE
- 
DBCE 88             ADC	A,B
DBCF 98             SBC	A,B
DBD0 58             LD	E,B
DBD1 78             LD	A,B
DBD2 3E 9B          LD	A,9B
DBD4 1B             DEC	DE
DBD5 D6 96          SUB	96
DBD7 73             LD	(HL),E
DBD8 00             NOP
DBD9 FF             RST	38
DBDA FA 19 0A       JP	M,0A19
DBDD 00             NOP
DBDE 09             ADD	HL,BC
DBDF 06 FD          LD	B,FD
DBE1 19             ADD	HL,DE
DBE2 13             INC	DE
DBE3 00             NOP
DBE4 20 FD          JR	NZ,DBE3
DBE6 2F             CPL
DBE7 0F             RRCA
- 
DBE8 08             EX	AF,AF'
DBE9 07             RLCA
DBEA FD 2F          CPL
DBEC 0B             DEC	BC
DBED 06 07          LD	B,07
DBEF FA 04 06       JP	M,0604
DBF2 03             INC	BC
DBF3 04             INC	B
DBF4 02             LD	(BC),A
DBF5 FA 04 07       JP	M,0704
DBF8 1B             DEC	DE
DBF9 05             DEC	B
DBFA 02             LD	(BC),A
DBFB FD 2F          CPL
DBFD 0B             DEC	BC
DBFE 13             INC	DE
DBFF 08             EX	AF,AF'
DC00 FC 69 07       CALL	M,0769
DC03 1A             LD	A,(DE)
DC04 FB             EI
- 
DC05 0F             RRCA
DC06 06 04          LD	B,04
DC08 FC 1E 0F       CALL	M,0F1E ; CALL	M,COPY_L_5
DC0B 1A             LD	A,(DE)
DC0C FB             EI
DC0D 0B             DEC	BC
DC0E 0D             DEC	C
DC0F 04             INC	B
DC10 FF             RST	38
DC11 3C             INC	A
DC12 02             LD	(BC),A
DC13 88             ADC	A,B
DC14 40             LD	B,B
DC15 F0             RET	P
DC16 05             DEC	B
DC17 90             SUB	B
DC18 05             DEC	B
DC19 80             ADD	A,B
DC1A 38 70          JR 	C,DC8C
DC1C 47             LD	B,A
- 
DC1D 9B             SBC	A,E
DC1E 3B             DEC 	SP
DC1F CE FF          ADC	A,FF
DC21 FD 0D          DEC	C
DC23 00             NOP
DC24 00             NOP
DC25 20 FA          JR	NZ,DC21
DC27 0D             DEC	C
DC28 01 0A 02       LD	BC,020A
DC2B 08             EX	AF,AF'
DC2C FD 0D          DEC	C
DC2E 02             LD	(BC),A
DC2F 10 02          DJNZ	DC33
DC31 FD 0D          DEC	C
DC33 03             INC	BC
DC34 10 04          DJNZ	DC3A
DC36 FE 0D          CP	0D
DC38 01 1F 0B       LD	BC,0B1F
DC3B FE 03          CP	03
DC3D 07             RLCA
- 
DC3E 00             NOP
DC3F 06 FA          LD	B,FA
DC41 03             INC	BC
DC42 0D             DEC	C
DC43 00             NOP
DC44 04             INC	B
DC45 03             INC	BC
DC46 FD 20 13       JR	NZ,DC5C
DC49 00             NOP
DC4A 1A             LD	A,(DE)
DC4B FA 03 07       JP	M,0703
DC4E 0A             LD	A,(BC)
DC4F 07             RLCA
DC50 02             LD	(BC),A
DC51 FD 03          INC	BC
DC53 10 05          DJNZ	DC5A
DC55 11 FA 03       LD	DE,03FA
DC58 0D             DEC	C
DC59 16 04          LD	D,04
DC5B 02             LD	(BC),A
- 
DC5C FC 48 08       CALL	M,0848
DC5F 16 FA          LD	D,FA
DC61 3C             INC	A
DC62 10 1A          DJNZ	DC7E
DC64 04             INC	B
DC65 06 FA          LD	B,FA
DC67 3C             INC	A
DC68 06 16          LD	B,16
DC6A 02             LD	(BC),A
DC6B 02             LD	(BC),A
DC6C FA 3C 05       JP	M,053C ; JP	M,SA_DELAY
DC6F 1A             LD	A,(DE)
DC70 02             LD	(BC),A
DC71 03             INC	BC
DC72 FB             EI
DC73 05             DEC	B
DC74 1D             DEC	E
DC75 05             DEC	B
DC76 FD 50          LD	D,B
DC78 0A             LD	A,(BC)
- 
DC79 1A             LD	A,(DE)
DC7A 05             DEC	B
DC7B FD 50          LD	D,B
DC7D 0A             LD	A,(BC)
DC7E 05             DEC	B
DC7F 05             DEC	B
DC80 FD 50          LD	D,B
DC82 0A             LD	A,(BC)
DC83 0E 04          LD	C,04
DC85 FD 50          LD	D,B
DC87 07             RLCA
DC88 01 03 FC       LD	BC,FC03
DC8B 1E 05          LD	E,05
DC8D 14             INC	D
DC8E FC 69 07       CALL	M,0769
DC91 15             DEC	D
DC92 FC 0B 01       CALL	M,010B
DC95 13             INC	DE
DC96 FC 0C 01       CALL	M,010C
DC99 06 FE          LD	B,FE
- 
DC9B 23             INC	HL
DC9C 0E 01          LD	C,01
DC9E 02             LD	(BC),A
DC9F FF             RST	38
DCA0 58             LD	E,B
DCA1 02             LD	(BC),A
DCA2 70             LD	(HL),B
DCA3 28 A0          JR	Z,DC45
DCA5 02             LD	(BC),A
DCA6 8C             ADC	A,H
DCA7 05             DEC	B
DCA8 C0             RET	NZ
DCA9 10 70          DJNZ	DD1B
DCAB 07             RLCA
DCAC 97             SUB	A
DCAD 28 B0          JR	Z,DC5F
DCAF 98             SBC	A,B
DCB0 18 50          JR	DD02
DCB2 36 9B          LD	(HL),9B
DCB4 3B             DEC 	SP
- 
DCB5 A6             AND	(HL)
DCB6 FF             RST	38
DCB7 FD 3C          INC	A
DCB9 00             NOP
DCBA 00             NOP
DCBB 20 FA          JR	NZ,DCB7
DCBD 3C             INC	A
DCBE 01 00 04       LD	BC,0400
DCC1 04             INC	B
DCC2 FA 3C 01       JP	M,013C
DCC5 15             DEC	D
DCC6 03             INC	BC
DCC7 03             INC	BC
DCC8 FE 3C          CP	3C
DCCA 01 1F 12       LD	BC,121F
DCCD FE 03          CP	03
DCCF 05             DEC	B
DCD0 1C             INC	E
DCD1 07             RLCA
DCD2 FD 3C          INC	A
- 
DCD4 13             INC	DE
DCD5 00             NOP
DCD6 20 FA          JR	NZ,DCD2
DCD8 3C             INC	A
DCD9 10 00          DJNZ	DCDB
DCDB 03             INC	BC
DCDC 09             ADD	HL,BC
DCDD FA 03 06       JP	M,0603
DCE0 00             NOP
DCE1 06 04          LD	B,04
DCE3 FA 03 08       JP	M,0803
DCE6 08             EX	AF,AF'
DCE7 04             INC	B
DCE8 04             INC	B
DCE9 FA 03 07       JP	M,0703
DCEC 18 04          JR	DCF2
DCEE 02             LD	(BC),A
DCEF FA 03 0D       JP	M,0D03
DCF2 10 02          DJNZ	DCF6
DCF4 04             INC	B
- 
DCF5 FB             EI
DCF6 08             EX	AF,AF'
DCF7 06 08          LD	B,08
DCF9 FB             EI
DCFA 05             DEC	B
DCFB 1D             DEC	E
DCFC 0A             LD	A,(BC)
DCFD FD 55          LD	D,iY
DCFF 0F             RRCA
DD00 18 07          JR	DD09
DD02 FD 55          LD	D,iY
DD04 07             RLCA
DD05 14             INC	D
DD06 04             INC	B
DD07 FD 55          LD	D,iY
DD09 08             EX	AF,AF'
DD0A 0C             INC	C
DD0B 04             INC	B
DD0C FC 69 11       CALL	M,1169
DD0F 1E FC          LD	E,FC
- 
DD11 49             LD	C,C
DD12 12             LD	(DE),A
DD13 0C             INC	C
DD14 FA 23 07       JP	M,0723 ; JP	M,SA_LINE_1
DD17 01 04 02       LD	BC,0204
DD1A FA 23 09       JP	M,0923 ; JP	M,ME_VAR_L2
DD1D 09             ADD	HL,BC
DD1E 02             LD	(BC),A
DD1F 02             LD	(BC),A
DD20 FF             RST	38
DD21 3C             INC	A
DD22 01 30 30       LD	BC,3030
DD25 70             LD	(HL),B
DD26 03             INC	BC
DD27 70             LD	(HL),B
DD28 81             ADD	A,C
DD29 A8             XOR	B
DD2A 48             LD	C,B
DD2B 88             ADC	A,B
DD2C 42             LD	B,D
- 
DD2D 70             LD	(HL),B
DD2E 01 88 20       LD	BC,2088
DD31 58             LD	E,B
DD32 43             LD	B,E
DD33 95             SUB	L
DD34 03             INC	BC
DD35 04             INC	B
DD36 16 96          LD	D,96
DD38 2B             DEC	HL
DD39 00             NOP
DD3A 9B             SBC	A,E
DD3B 8B             ADC	A,E
DD3C EE FF          XOR	FF
DD3E FA 11 11       JP	M,1111
DD41 00             NOP
DD42 03             INC	BC
DD43 05             DEC	B
DD44 FE 11          CP	11
DD46 0D             DEC	C
DD47 04             INC	B
- 
DD48 04             INC	B
DD49 FD 19          ADD	IY,DE
DD4B 0C             INC	C
DD4C 00             NOP
DD4D 07             RLCA
DD4E FD 19          ADD	IY,DE
DD50 0B             DEC	BC
DD51 00             NOP
DD52 05             DEC	B
DD53 FD 19          ADD	IY,DE
DD55 0A             LD	A,(BC)
DD56 00             NOP
DD57 03             INC	BC
DD58 FC 19 09       CALL	M,0919
DD5B 00             NOP
DD5C FF             RST	38
DD5D FF             RST	38
DD5E FD 0D          DEC	C
DD60 01 05 04       LD	BC,0405
DD63 FD 0D          DEC	C
- 
DD65 00             NOP
DD66 00             NOP
DD67 20 FB          JR	NZ,DD64
DD69 00             NOP
DD6A 06 05          LD	B,05
DD6C FA 0D 12       JP	M,120D
DD6F 00             NOP
DD70 02             LD	(BC),A
DD71 20 FE          JR	NZ,DD71
DD73 0D             DEC	C
DD74 01 00 0A       LD	BC,0A00
DD77 FD 0D          DEC	C
DD79 01 1E 02       LD	BC,021E
DD7C FA 0D 05       JP	M,050D
DD7F 1E 09          LD	E,09
DD81 02             LD	(BC),A
DD82 FA 0D 0D       JP	M,0D0D
DD85 09             ADD	HL,BC
DD86 05             DEC	B
DD87 05             DEC	B
- 
DD88 FD 00          NOP
DD8A 12             LD	(DE),A
DD8B 07             RLCA
DD8C 02             LD	(BC),A
DD8D FA 04 0C       JP	M,0C04
DD90 00             NOP
DD91 02             LD	(BC),A
DD92 05             DEC	B
DD93 FD 50          LD	D,B
DD95 0A             LD	A,(BC)
DD96 01 06 FD       LD	BC,FD06
DD99 06 05          LD	B,05
DD9B 01 09 FB       LD	BC,FB09
DD9E 05             DEC	B
DD9F 02             LD	(BC),A
DDA0 05             DEC	B
DDA1 FD 50          LD	D,B
DDA3 05             DEC	B
DDA4 0E 04          LD	C,04
DDA6 FD 50          LD	D,B
- 
DDA8 05             DEC	B
DDA9 1B             DEC	DE
DDAA 03             INC	BC
DDAB FC 69 06       CALL	M,0669
DDAE 1D             DEC	E
DDAF FB             EI
DDB0 05             DEC	B
DDB1 12             LD	(DE),A
DDB2 03             INC	BC
DDB3 FB             EI
DDB4 08             EX	AF,AF'
DDB5 16 05          LD	D,05
DDB7 FD 06 08       LD	B,08
DDBA 11 05 FA       LD	DE,FA05
DDBD 04             INC	B
DDBE 08             EX	AF,AF'
DDBF 18 02          JR	DDC3
DDC1 03             INC	BC
DDC2 FD 50          LD	D,B
DDC4 0D             DEC	C
- 
DDC5 12             LD	(DE),A
DDC6 08             EX	AF,AF'
DDC7 FA 04 0D       JP	M,0D04
DDCA 1A             LD	A,(DE)
DDCB 03             INC	BC
DDCC 02             LD	(BC),A
DDCD FB             EI
DDCE 0D             DEC	C
DDCF 1C             INC	E
DDD0 05             DEC	B
DDD1 FC 1E 0E       CALL	M,0E1E
DDD4 18 FF          JR	DDD5
DDD6 3C             INC	A
DDD7 80             ADD	A,B
DDD8 80             ADD	A,B
DDD9 70             LD	(HL),B
DDDA D0             RET	NC
DDDB 04             INC	B
DDDC 70             LD	(HL),B
DDDD 85             ADD	A,L
- 
DDDE 58             LD	E,B
DDDF 18 58          JR	DE39
DDE1 41             LD	B,C
DDE2 54             LD	D,H
DDE3 01 10 70       LD	BC,7010
DDE6 D8             RET	C
DDE7 06 9B          LD	B,9B
DDE9 33             INC	SP
DDEA E6 99          AND	99
DDEC 38 50          JR 	C,DE3E
DDEE 90             SUB	B
DDEF 98             SBC	A,B
DDF0 70             LD	(HL),B
DDF1 18 8C          JR	DD7F
DDF3 FF             RST	38
DDF4 FD 0D          DEC	C
DDF6 00             NOP
DDF7 00             NOP
DDF8 28 FD          JR	Z,DDF7
DDFA 0D             DEC	C
- 
DDFB 01 0C 04       LD	BC,040C
DDFE FA 0D 05       JP	M,050D
DE01 00             NOP
DE02 08             EX	AF,AF'
DE03 02             LD	(BC),A
DE04 FA 0D 0C       JP	M,0C0D
DE07 00             NOP
DE08 02             LD	(BC),A
DE09 0E FA          LD	C,FA
DE0B 0D             DEC	C
DE0C 0B             DEC	BC
DE0D 0E 07          LD	C,07
DE0F 02             LD	(BC),A
DE10 FA 0D 12       JP	M,120D
DE13 00             NOP
DE14 02             LD	(BC),A
DE15 20 FB          JR	NZ,DE12
DE17 12             LD	(DE),A
DE18 0C             INC	C
DE19 02             LD	(BC),A
- 
DE1A FE 04          CP	04
DE1C 04             INC	B
DE1D 1F             RRA
DE1E 0E FE          LD	C,FE
DE20 71             LD	(HL),C
DE21 0E 0A          LD	C,0A
DE23 04             INC	B
DE24 FA 04 05       JP	M,0504
DE27 09             ADD	HL,BC
DE28 04             INC	B
DE29 02             LD	(BC),A
DE2A FA 04 04       JP	M,0404
DE2D 15             DEC	D
DE2E 04             INC	B
DE2F 02             LD	(BC),A
DE30 FD 50          LD	D,B
DE32 05             DEC	B
DE33 02             LD	(BC),A
DE34 04             INC	B
DE35 FD 1D          DEC	E
- 
DE37 08             EX	AF,AF'
DE38 06 03          LD	B,03
DE3A FD 50          LD	D,B
DE3C 05             DEC	B
DE3D 0B             DEC	BC
DE3E 02             LD	(BC),A
DE3F FD 1D          DEC	E
DE41 08             EX	AF,AF'
DE42 11 04 FD       LD	DE,FD04
DE45 50             LD	D,B
DE46 04             INC	B
DE47 17             RLA
DE48 06 FB          LD	B,FB
DE4A 04             INC	B
DE4B 1D             DEC	E
DE4C 04             INC	B
DE4D FD 1D          DEC	E
DE4F 08             EX	AF,AF'
DE50 1B             DEC	DE
DE51 04             INC	B
- 
DE52 FC 69 09       CALL	M,0969
DE55 1E FD          LD	E,FD
DE57 50             LD	D,B
DE58 0C             INC	C
DE59 12             LD	(DE),A
DE5A 0D             DEC	C
DE5B FD 1D          DEC	E
DE5D 0F             RRCA
DE5E 10 04          DJNZ	DE64
DE60 F9             LD	SP,HL
DE61 10 10          DJNZ	DE73
DE63 F9             LD	SP,HL
DE64 0A             LD	A,(BC)
DE65 17             RLA
DE66 F8             RET	M
DE67 76             HALT
DE68 0A             LD	A,(BC)
DE69 1D             DEC	E
DE6A 02             LD	(BC),A
DE6B 02             LD	(BC),A
- 
DE6C F9             LD	SP,HL
DE6D 06 13          LD	B,13
DE6F F8             RET	M
DE70 72             LD	(HL),D
DE71 0A             LD	A,(BC)
DE72 17             RLA
DE73 02             LD	(BC),A
DE74 02             LD	(BC),A
DE75 FF             RST	38
DE76 48             LD	C,B
DE77 82             ADD	A,D
DE78 80             ADD	A,B
DE79 90             SUB	B
DE7A E8             RET	PE
DE7B 43             LD	B,E
DE7C 2C             INC	L
DE7D 01 50 10       LD	BC,1050
DE80 60             LD	H,B
DE81 05             DEC	B
DE82 68             LD	L,B
- 
DE83 01 70 10       LD	BC,1070
DE86 48             LD	C,B
DE87 02             LD	(BC),A
DE88 98             SBC	A,B
DE89 08             EX	AF,AF'
DE8A 48             LD	C,B
DE8B 44             LD	B,H
DE8C 95             SUB	L
DE8D 03             INC	BC
DE8E 01 16 9B       LD	BC,9B16
DE91 4B             LD	C,E
DE92 EE FF          XOR	FF
DE94 FA 20 12       JP	M,1220
DE97 00             NOP
DE98 02             LD	(BC),A
DE99 1E FA          LD	E,FA
DE9B 04             INC	B
DE9C 10 00          DJNZ	DE9E
DE9E 02             LD	(BC),A
DE9F 08             EX	AF,AF'
- 
DEA0 FA 0D 01       JP	M,010D
DEA3 1E 13          LD	E,13
DEA5 02             LD	(BC),A
DEA6 FD 0D          DEC	C
DEA8 00             NOP
DEA9 00             NOP
DEAA 20 FA          JR	NZ,DEA6
DEAC 0D             DEC	C
DEAD 01 0E 05       LD	BC,050E ; LD	BC,SA_PARITY
DEB0 03             INC	BC
DEB1 FB             EI
DEB2 00             NOP
DEB3 0C             INC	C
DEB4 05             DEC	B
DEB5 FD 50          LD	D,B
DEB7 05             DEC	B
DEB8 08             EX	AF,AF'
DEB9 06 FA          LD	B,FA
DEBB 0D             DEC	C
DEBC 01 00 06       LD	BC,0600
- 
DEBF 02             LD	(BC),A
DEC0 FA 04 08       JP	M,0804
DEC3 00             NOP
DEC4 04             INC	B
DEC5 02             LD	(BC),A
DEC6 FA 04 0A       JP	M,0A04
DEC9 02             LD	(BC),A
DECA 02             LD	(BC),A
DECB 03             INC	BC
DECC FB             EI
DECD 05             DEC	B
DECE 02             LD	(BC),A
DECF 05             DEC	B
DED0 FD 1D          DEC	E
DED2 05             DEC	B
DED3 04             INC	B
DED4 02             LD	(BC),A
DED5 FD 1D          DEC	E
DED7 0C             INC	C
DED8 06 02          LD	B,02
- 
DEDA FD 50          LD	D,B
DEDC 06 13          LD	B,13
DEDE 05             DEC	B
DEDF FD 1D          DEC	E
DEE1 08             EX	AF,AF'
DEE2 1B             DEC	DE
DEE3 03             INC	BC
DEE4 FA 04 0D       JP	M,0D04
DEE7 15             DEC	D
DEE8 02             LD	(BC),A
DEE9 07             RLCA
DEEA F8             RET	M
DEEB 76             HALT
DEEC 0B             DEC	BC
DEED 18 02          JR	DEF1
DEEF 02             LD	(BC),A
DEF0 FF             RST	38
DEF1 88             ADC	A,B
DEF2 82             ADD	A,D
DEF3 30 08          JR	NC,DEFD
- 
DEF5 50             LD	D,B
DEF6 07             RLCA
DEF7 99             SBC	A,C
DEF8 40             LD	B,B
DEF9 60             LD	H,B
DEFA 88             ADC	A,B
DEFB 9A             SBC	A,D
DEFC 2E 7F          LD	L,7F
DEFE FF             RST	38
DEFF FD 70 00       LD	(IY+00),B
DF02 00             NOP
DF03 21 FE 70       LD	HL,70FE
DF06 01 1F 0B       LD	BC,0B1F
DF09 FA 70 01       JP	M,0170
DF0C 0D             DEC	C
DF0D 0D             DEC	C
DF0E 02             LD	(BC),A
DF0F FA 3C 05       JP	M,053C ; JP	M,SA_DELAY
DF12 11 02 02       LD	DE,0202
DF15 FA 3C 05       JP	M,053C ; JP	M,SA_DELAY
- 
DF18 17             RLA
DF19 02             LD	(BC),A
DF1A 03             INC	BC
DF1B FA 3C 0A       JP	M,0A3C
DF1E 1A             LD	A,(DE)
DF1F 02             LD	(BC),A
DF20 02             LD	(BC),A
DF21 FC 3C 0B       CALL	M,0B3C
DF24 19             ADD	HL,DE
DF25 FB             EI
DF26 0B             DEC	BC
DF27 17             RLA
DF28 05             DEC	B
DF29 FE 3C          CP	3C
DF2B 08             EX	AF,AF'
DF2C 16 08          LD	D,08
DF2E FA 3C 10       JP	M,103C
DF31 16 02          LD	D,02
DF33 0A             LD	A,(BC)
DF34 FC 70 01       CALL	M,0170
- 
DF37 18 FE          JR	DF37
DF39 3C             INC	A
DF3A 03             INC	BC
DF3B 00             NOP
DF3C 0E FA          LD	C,FA
DF3E 20 12          JR	NZ,DF52
DF40 00             NOP
DF41 02             LD	(BC),A
DF42 20 FD          JR	NZ,DF41
DF44 55             LD	D,L
DF45 10 0B          DJNZ	DF52
DF47 0B             DEC	BC
DF48 FD 50          LD	D,B
DF4A 0D             DEC	C
DF4B 0F             RRCA
DF4C 05             DEC	B
DF4D FD 55          LD	D,iY
DF4F 08             EX	AF,AF'
DF50 01 05 FB       LD	BC,FB05
DF53 05             DEC	B
- 
DF54 0F             RRCA
DF55 08             EX	AF,AF'
DF56 FB             EI
DF57 0D             DEC	C
DF58 14             INC	D
DF59 03             INC	BC
DF5A FD 50          LD	D,B
DF5C 10 06          DJNZ	DF64
DF5E 02             LD	(BC),A
DF5F FD 55          LD	D,iY
DF61 0F             RRCA
DF62 01 02 FD       LD	BC,FD02
DF65 55             LD	D,L
DF66 0C             INC	C
DF67 03             INC	BC
DF68 05             DEC	B
DF69 FD 50          LD	D,B
DF6B 09             ADD	HL,BC
DF6C 0B             DEC	BC
DF6D 02             LD	(BC),A
- 
DF6E FB             EI
DF6F 04             INC	B
DF70 01 04 FD       LD	BC,FD04
DF73 50             LD	D,B
DF74 04             INC	B
DF75 03             INC	BC
DF76 07             RLCA
DF77 FC 69 0C       CALL	M,0C69
DF7A 0C             INC	C
DF7B FD 50          LD	D,B
DF7D 08             EX	AF,AF'
DF7E 1D             DEC	E
DF7F 02             LD	(BC),A
DF80 FC 48 01       CALL	M,0148
DF83 03             INC	BC
DF84 FF             RST	38
DF85 9B             SBC	A,E
DF86 63             LD	H,E
DF87 5E             LD	E,(HL)
DF88 98             SBC	A,B
- 
DF89 60             LD	H,B
DF8A D0             RET	NC
DF8B 3E 96          LD	A,96
DF8D 13             INC	DE
DF8E 00             NOP
DF8F 95             SUB	L
DF90 03             INC	BC
DF91 02             LD	(BC),A
DF92 18 80          JR	DF14
DF94 82             ADD	A,D
DF95 A0             AND	B
DF96 08             EX	AF,AF'
DF97 58             LD	E,B
DF98 04             INC	B
DF99 80             ADD	A,B
DF9A 01 48 44       LD	BC,4448
DF9D 70             LD	(HL),B
DF9E 44             LD	B,H
DF9F FF             RST	38
DFA0 FD 03          INC	BC
- 
DFA2 00             NOP
DFA3 00             NOP
DFA4 20 FE          JR	NZ,DFA4
DFA6 03             INC	BC
DFA7 01 00 0B       LD	BC,0B00
DFAA FE 03          CP	03
DFAC 01 1F 0D       LD	BC,0D1F
DFAF FE 39          CP	39
DFB1 0D             DEC	C
DFB2 00             NOP
DFB3 07             RLCA
DFB4 FA 39 0E       JP	M,0E39
DFB7 03             INC	BC
DFB8 04             INC	B
DFB9 02             LD	(BC),A
DFBA FA 39 12       JP	M,1239
DFBD 03             INC	BC
DFBE 02             LD	(BC),A
DFBF 1D             DEC	E
DFC0 FA 0A 0E       JP	M,0E0A
- 
DFC3 0B             DEC	BC
DFC4 02             LD	(BC),A
DFC5 02             LD	(BC),A
DFC6 FC 08 0E       CALL	M,0E08
DFC9 05             DEC	B
DFCA FD 7A          LD	A,D
DFCC 11 05 0B       LD	DE,0B05
DFCF FA 0D 0F       JP	M,0F0D
DFD2 10 03          DJNZ	DFD7
DFD4 02             LD	(BC),A
DFD5 FA 0D 0E       JP	M,0E0D ; JP	M,CL_SCR_2
DFD8 16 04          LD	D,04
DFDA 02             LD	(BC),A
DFDB FB             EI
DFDC 0E 18          LD	C,18
DFDE 04             INC	B
DFDF FB             EI
DFE0 0E 01          LD	C,01
DFE2 06 FD          LD	B,FD
DFE4 7A             LD	A,D
- 
DFE5 11 12 04       LD	DE,0412
DFE8 FA 0A 0C       JP	M,0C0A ; JP	M,PO_MSG
DFEB 1C             INC	E
DFEC 02             LD	(BC),A
DFED 02             LD	(BC),A
DFEE FA 0A 05       JP	M,050A
DFF1 1C             INC	E
DFF2 02             LD	(BC),A
DFF3 02             LD	(BC),A
DFF4 FA 0A 05       JP	M,050A
DFF7 0C             INC	C
DFF8 05             DEC	B
DFF9 02             LD	(BC),A
DFFA FD 08          EX	AF,AF'
DFFC 09             ADD	HL,BC
DFFD 0E 0A          LD	C,0A
DFFF FD 08          EX	AF,AF'
E001 05             DEC	B
E002 14             INC	D
E003 04             INC	B
- 
E004 FD 08          EX	AF,AF'
E006 05             DEC	B
E007 03             INC	BC
E008 03             INC	BC
E009 FD 08          EX	AF,AF'
E00B 09             ADD	HL,BC
E00C 08             EX	AF,AF'
E00D 02             LD	(BC),A
E00E FC 48 01       CALL	M,0148
E011 04             INC	B
E012 F9             LD	SP,HL
E013 07             RLCA
E014 0E FC          LD	C,FC
E016 48             LD	C,B
E017 01 15 FF       LD	BC,FF15
E01A 74             LD	(HL),H
E01B 85             ADD	A,L
E01C C8             RET	Z
E01D 10 58          DJNZ	E077
E01F 06 3C          LD	B,3C
- 
E021 81             ADD	A,C
E022 38 80          JR 	C,DFA4
E024 B0             OR	B
E025 03             INC	BC
E026 97             SUB	A
E027 70             LD	(HL),B
E028 80             ADD	A,B
E029 98             SBC	A,B
E02A 08             EX	AF,AF'
E02B 60             LD	H,B
E02C 63             LD	H,E
E02D 96             SUB	(HL)
E02E 63             LD	H,E
E02F 00             NOP
E030 99             SBC	A,C
E031 30 28          JR	NC,E05B
E033 70             LD	(HL),B
E034 FF             RST	38
E035 FE 7B          CP	7B
E037 00             NOP
- 
E038 00             NOP
E039 09             ADD	HL,BC
E03A FA 7B 09       JP	M,097B
E03D 00             NOP
E03E 02             LD	(BC),A
E03F 06 FA          LD	B,FA
E041 7B             LD	A,E
E042 0B             DEC	BC
E043 04             INC	B
E044 02             LD	(BC),A
E045 02             LD	(BC),A
E046 FB             EI
E047 00             NOP
E048 01 09 FA       LD	BC,FA09
E04B 7B             LD	A,E
E04C 01 03 03       LD	BC,0303
E04F 02             LD	(BC),A
E050 FD 7B          LD	A,E
E052 00             NOP
E053 03             INC	BC
- 
E054 1D             DEC	E
E055 FE 7B          CP	7B
E057 01 1F 13       LD	BC,131F
E05A FD 7B          LD	A,E
E05C 13             INC	DE
E05D 00             NOP
E05E 1F             RRA
E05F FA 7B 10       JP	M,107B
E062 00             NOP
E063 03             INC	BC
E064 02             LD	(BC),A
E065 FB             EI
E066 10 02          DJNZ	E06A
E068 03             INC	BC
E069 FA 7B 11       JP	M,117B
E06C 0B             DEC	BC
E06D 02             LD	(BC),A
E06E 02             LD	(BC),A
E06F FA 3C 06       JP	M,063C
E072 16 02          LD	D,02
- 
E074 02             LD	(BC),A
E075 FA 3C 08       JP	M,083C
E078 14             INC	D
E079 03             INC	BC
E07A 04             INC	B
E07B FB             EI
E07C 0B             DEC	BC
E07D 18 05          JR	E084
E07F FA 3C 0B       JP	M,0B3C
E082 1A             LD	A,(DE)
E083 03             INC	BC
E084 03             INC	BC
E085 FA 7B 0E       JP	M,0E7B
E088 1D             DEC	E
E089 02             LD	(BC),A
E08A 02             LD	(BC),A
E08B FD 08          EX	AF,AF'
E08D 10 15          DJNZ	E0A4
E08F 06 FD          LD	B,FD
E091 3C             INC	A
- 
E092 0C             INC	C
E093 0B             DEC	BC
E094 02             LD	(BC),A
E095 FD 49          LD	C,C
E097 0B             DEC	BC
E098 0B             DEC	BC
E099 02             LD	(BC),A
E09A FC 49 0F       CALL	M,0F49
E09D 15             DEC	D
E09E FC 48 0D       CALL	M,0D48
E0A1 05             DEC	B
E0A2 FD 08          EX	AF,AF'
E0A4 08             EX	AF,AF'
E0A5 1C             INC	E
E0A6 03             INC	BC
E0A7 FF             RST	38
E0A8 74             LD	(HL),H
E0A9 01 38 50       LD	BC,5038
E0AC 88             ADC	A,B
E0AD 42             LD	B,D
- 
E0AE 3C             INC	A
E0AF 02             LD	(BC),A
E0B0 88             ADC	A,B
E0B1 68             LD	L,B
E0B2 E8             RET	PE
E0B3 04             INC	B
E0B4 68             LD	L,B
E0B5 05             DEC	B
E0B6 C8             RET	Z
E0B7 08             EX	AF,AF'
E0B8 48             LD	C,B
E0B9 05             DEC	B
E0BA 54             LD	D,H
E0BB 81             ADD	A,C
E0BC 68             LD	L,B
E0BD 68             LD	L,B
E0BE A8             XOR	B
E0BF 03             INC	BC
E0C0 98             SBC	A,B
E0C1 68             LD	L,B
- 
E0C2 58             LD	E,B
E0C3 47             LD	B,A
E0C4 9A             SBC	A,D
E0C5 08             EX	AF,AF'
E0C6 63             LD	H,E
E0C7 97             SUB	A
E0C8 68             LD	L,B
E0C9 E8             RET	PE
E0CA FF             RST	38
E0CB FD 3C          INC	A
E0CD 00             NOP
E0CE 00             NOP
E0CF 20 FE          JR	NZ,E0CF
E0D1 3C             INC	A
E0D2 01 1F 0A       LD	BC,0A1F
E0D5 FE 3C          CP	3C
E0D7 01 05 05       LD	BC,0505 ; LD	BC,SA_LOOP_P
E0DA FC 3C 01       CALL	M,013C
E0DD 0F             RRCA
E0DE FA 60 05       JP	M,0560
- 
E0E1 0E 02          LD	C,02
E0E3 02             LD	(BC),A
E0E4 FA 60 07       JP	M,0760
E0E7 00             NOP
E0E8 03             INC	BC
E0E9 02             LD	(BC),A
E0EA FA 60 05       JP	M,0560
E0ED 14             INC	D
E0EE 03             INC	BC
E0EF 03             INC	BC
E0F0 FA 7B 12       JP	M,127B
E0F3 00             NOP
E0F4 02             LD	(BC),A
E0F5 13             INC	DE
E0F6 FA 7B 0E       JP	M,0E7B
E0F9 0A             LD	A,(BC)
E0FA 04             INC	B
E0FB 02             LD	(BC),A
E0FC FB             EI
E0FD 0E 0C          LD	C,0C
- 
E0FF 04             INC	B
E100 FB             EI
E101 12             LD	(DE),A
E102 13             INC	DE
E103 02             LD	(BC),A
E104 FA 7B 0C       JP	M,0C7B
E107 15             DEC	D
E108 08             EX	AF,AF'
E109 02             LD	(BC),A
E10A FA 7B 10       JP	M,107B
E10D 17             RLA
E10E 04             INC	B
E10F 09             ADD	HL,BC
E110 FD 7C          LD	A,Iy
E112 0A             LD	A,(BC)
E113 1B             DEC	DE
E114 04             INC	B
E115 FD 7C          LD	A,Iy
E117 07             RLCA
E118 1D             DEC	E
- 
E119 02             LD	(BC),A
E11A FD 7C          LD	A,Iy
E11C 05             DEC	B
E11D 17             RLA
E11E 04             INC	B
E11F FD 7C          LD	A,Iy
E121 0E 0E          LD	C,0E
E123 07             RLCA
E124 FD 7C          LD	A,Iy
E126 05             DEC	B
E127 08             EX	AF,AF'
E128 06 FB          LD	B,FB
E12A 05             DEC	B
E12B 06 04          LD	B,04
E12D FD 7C          LD	A,Iy
E12F 09             ADD	HL,BC
E130 02             LD	(BC),A
E131 06 F9          LD	B,F9
E133 0E 17          LD	C,17
E135 FC 23 06       CALL	M,0623
- 
E138 15             DEC	D
E139 FF             RST	38
E13A 90             SUB	B
E13B 02             LD	(BC),A
E13C D8             RET	C
E13D 08             EX	AF,AF'
E13E 40             LD	B,B
E13F 45             LD	B,L
E140 5C             LD	E,H
E141 01 60 50       LD	BC,5060
E144 98             SBC	A,B
E145 02             LD	(BC),A
E146 95             SUB	L
E147 03             INC	BC
E148 02             LD	(BC),A
E149 0F             RRCA
E14A 98             SBC	A,B
E14B 40             LD	B,B
E14C A8             XOR	B
E14D 6F             LD	L,A
- 
E14E 99             SBC	A,C
E14F 40             LD	B,B
E150 48             LD	C,B
E151 70             LD	(HL),B
E152 FF             RST	38
E153 FD 3C          INC	A
E155 00             NOP
E156 00             NOP
E157 20 FA          JR	NZ,E153
E159 3C             INC	A
E15A 06 00          LD	B,00
E15C 04             INC	B
E15D 02             LD	(BC),A
E15E FD 3C          INC	A
E160 09             ADD	HL,BC
E161 0E 12          LD	C,12
E163 FA 3C 07       JP	M,073C
E166 1D             DEC	E
E167 02             LD	(BC),A
E168 03             INC	BC
- 
E169 FD 7C          LD	A,Iy
E16B 05             DEC	B
E16C 15             DEC	D
E16D 03             INC	BC
E16E FB             EI
E16F 09             ADD	HL,BC
E170 0C             INC	C
E171 06 FD          LD	B,FD
E173 7B             LD	A,E
E174 05             DEC	B
E175 0B             DEC	BC
E176 06 FE          LD	B,FE
E178 7B             LD	A,E
E179 06 0B          LD	B,0B
E17B 03             INC	BC
E17C FA 7B 09       JP	M,097B
E17F 08             EX	AF,AF'
E180 03             INC	BC
E181 04             INC	B
E182 FA 7B 0C       JP	M,0C7B
- 
E185 05             DEC	B
E186 04             INC	B
E187 07             RLCA
E188 FA 7B 0F       JP	M,0F7B
E18B 0B             DEC	BC
E18C 03             INC	BC
E18D 05             DEC	B
E18E FA 7B 12       JP	M,127B
E191 0B             DEC	BC
E192 02             LD	(BC),A
E193 15             DEC	D
E194 FA 60 0B       JP	M,0B60
E197 00             NOP
E198 09             ADD	HL,BC
E199 02             LD	(BC),A
E19A FD 60          LD	Iy,B
E19C 13             INC	DE
E19D 02             LD	(BC),A
E19E 07             RLCA
E19F FB             EI
- 
E1A0 13             INC	DE
E1A1 09             ADD	HL,BC
E1A2 01 FB 0F       LD	BC,0FFB
E1A5 02             LD	(BC),A
E1A6 04             INC	B
E1A7 FC 7C 0F       CALL	M,0F7C
E1AA 04             INC	B
E1AB FD 7C          LD	A,Iy
E1AD 06 02          LD	B,02
E1AF 05             DEC	B
E1B0 FD 7C          LD	A,Iy
E1B2 0E 14          LD	C,14
E1B4 04             INC	B
E1B5 FA 23 10       JP	M,1023
E1B8 0C             INC	C
E1B9 03             INC	BC
E1BA 03             INC	BC
E1BB FA 23 0D       JP	M,0D23
E1BE 06 02          LD	B,02
E1C0 05             DEC	B
- 
E1C1 FC 3E 08       CALL	M,083E
E1C4 1E FA          LD	E,FA
E1C6 23             INC	HL
E1C7 0A             LD	A,(BC)
E1C8 09             ADD	HL,BC
E1C9 03             INC	BC
E1CA 02             LD	(BC),A
E1CB FF             RST	38
E1CC 74             LD	(HL),H
E1CD 01 90 08       LD	BC,0890
E1D0 38 43          JR 	C,E215
E1D2 2C             INC	L
E1D3 02             LD	(BC),A
E1D4 80             ADD	A,B
E1D5 80             ADD	A,B
E1D6 F0             RET	P
E1D7 45             LD	B,L
E1D8 8C             ADC	A,H
E1D9 81             ADD	A,C
E1DA 40             LD	B,B
- 
E1DB 08             EX	AF,AF'
E1DC 38 42          JR 	C,E220
E1DE 96             SUB	(HL)
E1DF 52             LD	D,D
E1E0 00             NOP
E1E1 97             SUB	A
E1E2 58             LD	E,B
E1E3 28 FF          JR	Z,E1E4
E1E5 FD 70 00       LD	(IY+00),B
E1E8 00             NOP
E1E9 20 FA          JR	NZ,E1E5
E1EB 70             LD	(HL),B
E1EC 01 00 06       LD	BC,0600
E1EF 03             INC	BC
E1F0 FB             EI
E1F1 00             NOP
E1F2 13             INC	DE
E1F3 05             DEC	B
E1F4 FE 70          CP	70
E1F6 01 15 03       LD	BC,0315
- 
E1F9 FA 70 0A       JP	M,0A70
E1FC 00             NOP
E1FD 06 04          LD	B,04
E1FF FE 70          CP	70
E201 10 00          DJNZ	E203
E203 03             INC	BC
E204 FD 70 13       LD	(IY+13),B
E207 00             NOP
E208 20 FE          JR	NZ,E208
E20A 70             LD	(HL),B
E20B 10 1F          DJNZ	E22C
E20D 03             INC	BC
E20E FE 70          CP	70
E210 05             DEC	B
E211 1F             RRA
E212 08             EX	AF,AF'
E213 FA 70 0C       JP	M,0C70
E216 0C             INC	C
E217 04             INC	B
E218 04             INC	B
- 
E219 FA 3E 0D       JP	M,0D3E
E21C 0D             DEC	C
E21D 02             LD	(BC),A
E21E 02             LD	(BC),A
E21F FE 70          CP	70
E221 05             DEC	B
E222 10 09          DJNZ	E22D
E224 FD 89          ADC	A,C
E226 0D             DEC	C
E227 11 07 F8       LD	DE,F807
E22A 7D             LD	A,L
E22B 10 1A          DJNZ	E247
E22D 03             INC	BC
E22E 02             LD	(BC),A
E22F F8             RET	M
E230 7D             LD	A,L
E231 10 17          DJNZ	E24A
E233 03             INC	BC
E234 02             LD	(BC),A
E235 FB             EI
- 
E236 0F             RRCA
E237 04             INC	B
E238 04             INC	B
E239 FD 89          ADC	A,C
E23B 0F             RRCA
E23C 06 02          LD	B,02
E23E FD 89          ADC	A,C
E240 0A             LD	A,(BC)
E241 04             INC	B
E242 04             INC	B
E243 FD 70 09       LD	(IY+09),B
E246 13             INC	DE
E247 02             LD	(BC),A
E248 FD 89          ADC	A,C
E24A 09             ADD	HL,BC
E24B 18 02          JR	E24F
E24D FD 89          ADC	A,C
E24F 05             DEC	B
E250 1C             INC	E
E251 03             INC	BC
- 
E252 FD 89          ADC	A,C
E254 08             EX	AF,AF'
E255 05             DEC	B
E256 02             LD	(BC),A
E257 F8             RET	M
E258 7D             LD	A,L
E259 10 1D          DJNZ	E278
E25B 03             INC	BC
E25C 02             LD	(BC),A
E25D FD 89          ADC	A,C
E25F 06 07          LD	B,07
E261 05             DEC	B
E262 FD 89          ADC	A,C
E264 05             DEC	B
E265 11 04 FB       LD	DE,FB04
E268 09             ADD	HL,BC
E269 11 04 FC       LD	DE,FC04
E26C 69             LD	L,C
E26D 07             RLCA
E26E 1E FF          LD	E,FF
- 
E270 99             SBC	A,C
E271 D0             RET	NC
E272 28 48          JR	Z,E2BC
E274 60             LD	H,B
E275 01 88 30       LD	BC,3088
E278 60             LD	H,B
E279 02             LD	(BC),A
E27A 64             LD	H,H
E27B 81             ADD	A,C
E27C 48             LD	C,B
E27D 38 78          JR 	C,E2F7
E27F 02             LD	(BC),A
E280 64             LD	H,H
E281 02             LD	(BC),A
E282 68             LD	L,B
E283 08             EX	AF,AF'
E284 50             LD	D,B
E285 02             LD	(BC),A
E286 95             SUB	L
E287 03             INC	BC
- 
E288 10 0E          DJNZ	E298
E28A 98             SBC	A,B
E28B 50             LD	D,B
E28C 98             SBC	A,B
E28D 57             LD	D,A
E28E 9B             SBC	A,E
E28F 3B             DEC 	SP
E290 EE FF          XOR	FF
E292 FD 70 00       LD	(IY+00),B
E295 00             NOP
E296 20 FE          JR	NZ,E296
E298 70             LD	(HL),B
E299 01 1F 06       LD	BC,061F
E29C FC 69 06       CALL	M,0669
E29F 1E FB          LD	E,FB
E2A1 00             NOP
E2A2 09             ADD	HL,BC
E2A3 05             DEC	B
E2A4 FA 70 05       JP	M,0570
E2A7 00             NOP
- 
E2A8 05             DEC	B
E2A9 02             LD	(BC),A
E2AA FD 89          ADC	A,C
E2AC 05             DEC	B
E2AD 02             LD	(BC),A
E2AE 09             ADD	HL,BC
E2AF FD 0D          DEC	C
E2B1 09             ADD	HL,BC
E2B2 18 02          JR	E2B6
E2B4 FA 0D 0A       JP	M,0A0D
E2B7 18 02          JR	E2BB
E2B9 03             INC	BC
E2BA FD 0D          DEC	C
E2BC 08             EX	AF,AF'
E2BD 0B             DEC	BC
E2BE 02             LD	(BC),A
E2BF FA 0D 09       JP	M,090D
E2C2 08             EX	AF,AF'
E2C3 02             LD	(BC),A
E2C4 05             DEC	B
- 
E2C5 FD 0D          DEC	C
E2C7 0B             DEC	BC
E2C8 09             ADD	HL,BC
E2C9 03             INC	BC
E2CA FA 70 0A       JP	M,0A70
E2CD 05             DEC	B
E2CE 02             LD	(BC),A
E2CF 02             LD	(BC),A
E2D0 FA 20 0F       JP	M,0F20
E2D3 05             DEC	B
E2D4 05             DEC	B
E2D5 16 FA          LD	D,FA
E2D7 0D             DEC	C
E2D8 0B             DEC	BC
E2D9 00             NOP
E2DA 09             ADD	HL,BC
E2DB 02             LD	(BC),A
E2DC FE 0D          CP	0D
E2DE 0C             INC	C
E2DF 02             LD	(BC),A
- 
E2E0 08             EX	AF,AF'
E2E1 FA 0D 0E       JP	M,0E0D ; JP	M,CL_SCR_2
E2E4 03             INC	BC
E2E5 06 02          LD	B,02
E2E7 FE 0D          CP	0D
E2E9 10 05          DJNZ	E2F0
E2EB 04             INC	B
E2EC FE 0D          CP	0D
E2EE 12             LD	(DE),A
E2EF 06 02          LD	B,02
E2F1 FA 0D 0A       JP	M,0A0D
E2F4 1E 0A          LD	E,0A
E2F6 02             LD	(BC),A
E2F7 FE 0D          CP	0D
E2F9 0B             DEC	BC
E2FA 1D             DEC	E
E2FB 09             ADD	HL,BC
E2FC FE 0D          CP	0D
E2FE 0C             INC	C
E2FF 1C             INC	E
- 
E300 08             EX	AF,AF'
E301 FE 0D          CP	0D
E303 0E 1B          LD	C,1B
E305 06 FE          LD	B,FE
E307 0D             DEC	C
E308 11 1A 03       LD	DE,031A
E30B FF             RST	38
E30C 9B             SBC	A,E
E30D 32 EE 9A       LD	(9AEE),A
E310 08             EX	AF,AF'
E311 8C             ADC	A,H
E312 24             INC	H
E313 01 88 78       LD	BC,7888
E316 28 46          JR	Z,E35E
E318 98             SBC	A,B
E319 08             EX	AF,AF'
E31A 30 23          JR	NC,E33F
E31C FF             RST	38
E31D FD 70 00       LD	(IY+00),B
E320 00             NOP
- 
E321 20 FA          JR	NZ,E31D
E323 70             LD	(HL),B
E324 01 09 0A       LD	BC,0A09
E327 02             LD	(BC),A
E328 FA 70 05       JP	M,0570
E32B 00             NOP
E32C 02             LD	(BC),A
E32D 07             RLCA
E32E FE 70          CP	70
E330 07             RLCA
E331 00             NOP
E332 06 FD          LD	B,FD
E334 70             LD	(HL),B
E335 0B             DEC	BC
E336 01 0A FA       LD	BC,FA0A
E339 39             ADD	HL,SP
E33A 10 00          DJNZ	E33C
E33C 04             INC	B
E33D 03             INC	BC
E33E FA 39 12       JP	M,1239
- 
E341 03             INC	BC
E342 02             LD	(BC),A
E343 0C             INC	C
E344 FA 39 10       JP	M,1039
E347 0F             RRCA
E348 04             INC	B
E349 06 FA          LD	B,FA
E34B 39             ADD	HL,SP
E34C 0E 11          LD	C,11
E34E 02             LD	(BC),A
E34F 04             INC	B
E350 FA 39 0C       JP	M,0C39
E353 13             INC	DE
E354 02             LD	(BC),A
E355 02             LD	(BC),A
E356 FD 39          ADD	IY,SP
E358 13             INC	DE
E359 15             DEC	D
E35A 09             ADD	HL,BC
E35B FD 39          ADD	IY,SP
- 
E35D 12             LD	(DE),A
E35E 17             RLA
E35F 07             RLCA
E360 FA 39 10       JP	M,1039
E363 1E 04          LD	E,04
E365 02             LD	(BC),A
E366 FC 69 10       CALL	M,1069
E369 1D             DEC	E
E36A FA 3C 05       JP	M,053C ; JP	M,SA_DELAY
E36D 1E 08          LD	E,08
E36F 02             LD	(BC),A
E370 FB             EI
E371 05             DEC	B
E372 07             RLCA
E373 06 FB          LD	B,FB
E375 05             DEC	B
E376 1C             INC	E
E377 07             RLCA
E378 FD 89          ADC	A,C
E37A 0C             INC	C
- 
E37B 17             RLA
E37C 07             RLCA
E37D F8             RET	M
E37E 83             ADD	A,E
E37F 08             EX	AF,AF'
E380 02             LD	(BC),A
E381 03             INC	BC
E382 02             LD	(BC),A
E383 FD 7C          LD	A,Iy
E385 07             RLCA
E386 0B             DEC	BC
E387 0A             LD	A,(BC)
E388 FF             RST	38
E389 44             LD	B,H
E38A 01 28 58       LD	BC,5828
E38D 98             SBC	A,B
E38E 41             LD	B,C
E38F 4C             LD	C,H
E390 81             ADD	A,C
E391 80             ADD	A,B
- 
E392 18 68          JR	E3FC
E394 07             RLCA
E395 99             SBC	A,C
E396 A8             XOR	B
E397 38 90          JR 	C,E329
E399 9B             SBC	A,E
E39A 83             ADD	A,E
E39B E6 FF          AND	FF
E39D FD 70 00       LD	(IY+00),B
E3A0 00             NOP
E3A1 20 FA          JR	NZ,E39D
E3A3 70             LD	(HL),B
E3A4 05             DEC	B
E3A5 00             NOP
E3A6 03             INC	BC
E3A7 05             DEC	B
E3A8 FE 70          CP	70
E3AA 08             EX	AF,AF'
E3AB 00             NOP
E3AC 05             DEC	B
- 
E3AD FA 60 05       JP	M,0560
E3B0 09             ADD	HL,BC
E3B1 03             INC	BC
E3B2 07             RLCA
E3B3 FA 60 0C       JP	M,0C60
E3B6 0D             DEC	C
E3B7 03             INC	BC
E3B8 03             INC	BC
E3B9 FE 60          CP	60
E3BB 05             DEC	B
E3BC 19             ADD	HL,DE
E3BD 0A             LD	A,(BC)
E3BE FA 39 10       JP	M,1039
E3C1 00             NOP
E3C2 02             LD	(BC),A
E3C3 03             INC	BC
E3C4 FA 39 12       JP	M,1239
E3C7 00             NOP
E3C8 02             LD	(BC),A
E3C9 20 FA          JR	NZ,E3C5
- 
E3CB 39             ADD	HL,SP
E3CC 05             DEC	B
E3CD 1E 0D          LD	E,0D
E3CF 02             LD	(BC),A
E3D0 FA 39 08       JP	M,0839
E3D3 1C             INC	E
E3D4 03             INC	BC
E3D5 02             LD	(BC),A
E3D6 FD 89          ADC	A,C
E3D8 0C             INC	C
E3D9 01 04 FD       LD	BC,FD04
E3DC 7C             LD	A,H
E3DD 0C             INC	C
E3DE 09             ADD	HL,BC
E3DF 04             INC	B
E3E0 FD 89          ADC	A,C
E3E2 0C             INC	C
E3E3 10 02          DJNZ	E3E7
E3E5 FD 7C          LD	A,Iy
E3E7 07             RLCA
- 
E3E8 10 05          DJNZ	E3EF
E3EA FD 89          ADC	A,C
E3EC 09             ADD	HL,BC
E3ED 17             RLA
E3EE 02             LD	(BC),A
E3EF FD 7C          LD	A,Iy
E3F1 0E 17          LD	C,17
E3F3 02             LD	(BC),A
E3F4 FD 89          ADC	A,C
E3F6 0E 1A          LD	C,1A
E3F8 02             LD	(BC),A
E3F9 FD 7C          LD	A,Iy
E3FB 05             DEC	B
E3FC 1A             LD	A,(DE)
E3FD 02             LD	(BC),A
E3FE FC 48 01       CALL	M,0148
E401 0C             INC	C
E402 FB             EI
E403 0E 1C          LD	C,1C
E405 04             INC	B
- 
E406 FB             EI
E407 0A             LD	A,(BC)
E408 1A             LD	A,(DE)
E409 04             INC	B
E40A FA 39 10       JP	M,1039
E40D 13             INC	DE
E40E 02             LD	(BC),A
E40F 02             LD	(BC),A
E410 FF             RST	38
E411 74             LD	(HL),H
E412 81             ADD	A,C
E413 98             SBC	A,B
E414 48             LD	C,B
E415 70             LD	(HL),B
E416 43             LD	B,E
E417 60             LD	H,B
E418 82             ADD	A,D
E419 80             ADD	A,B
E41A 18 88          JR	E3A4
E41C 05             DEC	B
- 
E41D 7C             LD	A,H
E41E 01 30 08       LD	BC,0830
E421 50             LD	D,B
E422 47             LD	B,A
E423 97             SUB	A
E424 20 60          JR	NZ,E486
E426 95             SUB	L
E427 03             INC	BC
E428 0F             RRCA
E429 19             ADD	HL,DE
E42A FF             RST	38
E42B FD 70 00       LD	(IY+00),B
E42E 00             NOP
E42F 20 FA          JR	NZ,E42B
E431 70             LD	(HL),B
E432 01 00 05       LD	BC,0500
E435 02             LD	(BC),A
E436 FA 0D 06       JP	M,060D
E439 00             NOP
E43A 0E 20          LD	C,20
- 
E43C FD 00          NOP
E43E 06 00          LD	B,00
E440 08             EX	AF,AF'
E441 FD 00          NOP
E443 07             RLCA
E444 02             LD	(BC),A
E445 06 FA          LD	B,FA
E447 00             NOP
E448 08             EX	AF,AF'
E449 04             INC	B
E44A 02             LD	(BC),A
E44B 08             EX	AF,AF'
E44C FA 00 0A       JP	M,0A00
E44F 06 02          LD	B,02
E451 06 FA          LD	B,FA
E453 00             NOP
E454 0B             DEC	BC
E455 0C             INC	C
E456 07             RLCA
E457 09             ADD	HL,BC
- 
E458 FA 00 0E       JP	M,0E00 ; JP	M,CL_SCROLL
E45B 15             DEC	D
E45C 04             INC	B
E45D 02             LD	(BC),A
E45E FA 00 06       JP	M,0600
E461 19             ADD	HL,DE
E462 04             INC	B
E463 02             LD	(BC),A
E464 FB             EI
E465 0C             INC	C
E466 0A             LD	A,(BC)
E467 06 FF          LD	B,FF
E469 97             SUB	A
E46A 58             LD	E,B
E46B 38 96          JR 	C,E403
E46D 33             INC	SP
E46E 00             NOP
E46F 8C             ADC	A,H
E470 81             ADD	A,C
E471 C8             RET	Z
- 
E472 08             EX	AF,AF'
E473 40             LD	B,B
E474 03             INC	BC
E475 3C             INC	A
E476 01 80 60       LD	BC,6080
E479 A8             XOR	B
E47A 05             DEC	B
E47B 60             LD	H,B
E47C 02             LD	(BC),A
E47D 20 40          JR	NZ,E4BF
E47F B8             CP	B
E480 06 FF          LD	B,FF
E482 FD 02          LD	(BC),A
E484 00             NOP
E485 00             NOP
E486 20 FE          JR	NZ,E486
E488 02             LD	(BC),A
E489 01 00 13       LD	BC,1300
E48C FD 02          LD	(BC),A
E48E 13             INC	DE
- 
E48F 01 1F FE       LD	BC,FE1F
E492 02             LD	(BC),A
E493 05             DEC	B
E494 1F             RRA
E495 0E FD          LD	C,FD
E497 3A 0B 08       LD	A,(080B)
E49A 0D             DEC	C
E49B FD 02          LD	(BC),A
E49D 05             DEC	B
E49E 1C             INC	E
E49F 03             INC	BC
E4A0 FB             EI
E4A1 05             DEC	B
E4A2 1A             LD	A,(DE)
E4A3 04             INC	B
E4A4 FB             EI
E4A5 09             ADD	HL,BC
E4A6 1D             DEC	E
E4A7 05             DEC	B
E4A8 FD 3A 09 1A    LD	A,(1A09)
- 
E4AC 03             INC	BC
E4AD FA 3C 05       JP	M,053C ; JP	M,SA_DELAY
E4B0 05             DEC	B
E4B1 03             INC	BC
E4B2 03             INC	BC
E4B3 FA 3C 05       JP	M,053C ; JP	M,SA_DELAY
E4B6 0C             INC	C
E4B7 03             INC	BC
E4B8 03             INC	BC
E4B9 FD 89          ADC	A,C
E4BB 07             RLCA
E4BC 0F             RRCA
E4BD 02             LD	(BC),A
E4BE FA 3C 05       JP	M,053C ; JP	M,SA_DELAY
E4C1 17             RLA
E4C2 02             LD	(BC),A
E4C3 03             INC	BC
E4C4 FA 3C 07       JP	M,073C
E4C7 15             DEC	D
E4C8 03             INC	BC
- 
E4C9 05             DEC	B
E4CA FE 3C          CP	3C
E4CC 0A             LD	A,(BC)
E4CD 15             DEC	D
E4CE 02             LD	(BC),A
E4CF FA 3C 0B       JP	M,0B3C
E4D2 05             DEC	B
E4D3 03             INC	BC
E4D4 03             INC	BC
E4D5 F9             LD	SP,HL
E4D6 11 03 FD       LD	DE,FD03
E4D9 89             ADC	A,C
E4DA 0E 18          LD	C,18
E4DC 07             RLCA
E4DD FD 3A 10 14    LD	A,(1410)
E4E1 04             INC	B
E4E2 FC 1E 11       CALL	M,111E
E4E5 18 FF          JR	E4E6
E4E7 99             SBC	A,C
E4E8 08             EX	AF,AF'
- 
E4E9 20 90          JR	NZ,E47B
E4EB 98             SBC	A,B
E4EC 50             LD	D,B
E4ED C0             RET	NZ
E4EE 4B             LD	C,E
E4EF 3C             INC	A
E4F0 82             ADD	A,D
E4F1 88             ADC	A,B
E4F2 28 B0          JR	Z,E4A4
E4F4 44             LD	B,H
E4F5 78             LD	A,B
E4F6 05             DEC	B
E4F7 48             LD	C,B
E4F8 08             EX	AF,AF'
E4F9 48             LD	C,B
E4FA 44             LD	B,H
E4FB 78             LD	A,B
E4FC 05             DEC	B
E4FD 90             SUB	B
E4FE 08             EX	AF,AF'
- 
E4FF 48             LD	C,B
E500 06 FF          LD	B,FF
E502 FD 11 00 00    LD	DE,0000 ; LD	DE,START
E506 21 FE 11       LD	HL,11FE
E509 01 1F 13       LD	BC,131F
E50C FD 11 13 00    LD	DE,0013
E510 1F             RRA
E511 FA 11 0D       JP	M,0D11
E514 00             NOP
E515 06 02          LD	B,02
E517 FA 11 0D       JP	M,0D11
E51A 02             LD	(BC),A
E51B 02             LD	(BC),A
E51C 05             DEC	B
E51D FB             EI
E51E 0D             DEC	C
E51F 08             EX	AF,AF'
E520 06 FE          LD	B,FE
E522 60             LD	H,B
E523 09             ADD	HL,BC
- 
E524 0F             RRCA
E525 06 FA          LD	B,FA
E527 60             LD	H,B
E528 0D             DEC	C
E529 0A             LD	A,(BC)
E52A 02             LD	(BC),A
E52B 05             DEC	B
E52C FE 39          CP	39
E52E 03             INC	BC
E52F 00             NOP
E530 07             RLCA
E531 FA 11 01       JP	M,0111
E534 17             RLA
E535 05             DEC	B
E536 02             LD	(BC),A
E537 FA 11 07       JP	M,0711
E53A 1C             INC	E
E53B 03             INC	BC
E53C 03             INC	BC
E53D FB             EI
- 
E53E 05             DEC	B
E53F 01 04 FD       LD	BC,FD04
E542 89             ADC	A,C
E543 09             ADD	HL,BC
E544 01 04 FD       LD	BC,FD04
E547 7C             LD	A,H
E548 05             DEC	B
E549 03             INC	BC
E54A 05             DEC	B
E54B FD 89          ADC	A,C
E54D 05             DEC	B
E54E 0C             INC	C
E54F 04             INC	B
E550 FD 7C          LD	A,Iy
E552 05             DEC	B
E553 12             LD	(DE),A
E554 03             INC	BC
E555 FB             EI
E556 05             DEC	B
E557 15             DEC	D
- 
E558 04             INC	B
E559 FB             EI
E55A 09             ADD	HL,BC
E55B 10 05          DJNZ	E562
E55D FD 89          ADC	A,C
E55F 09             ADD	HL,BC
E560 12             LD	(DE),A
E561 0A             LD	A,(BC)
E562 FD 7C          LD	A,Iy
E564 0E 10          LD	C,10
E566 05             DEC	B
E567 FC 69 0D       CALL	M,0D69
E56A 1E F8          LD	E,F8
E56C 83             ADD	A,E
E56D 0A             LD	A,(BC)
E56E 0C             INC	C
E56F 03             INC	BC
E570 02             LD	(BC),A
E571 F8             RET	M
E572 7D             LD	A,L
- 
E573 10 1D          DJNZ	E592
E575 03             INC	BC
E576 02             LD	(BC),A
E577 F8             RET	M
E578 7D             LD	A,L
E579 10 1A          DJNZ	E595
E57B 03             INC	BC
E57C 02             LD	(BC),A
E57D FB             EI
E57E 13             INC	DE
E57F 02             LD	(BC),A
E580 01 FF 84       LD	BC,84FF
E583 01 80 08       LD	BC,0880
E586 38 06          JR 	C,E58E
E588 34             INC	(HL)
E589 82             ADD	A,D
E58A 88             ADC	A,B
E58B 50             LD	D,B
E58C C0             RET	NZ
E58D 04             INC	B
- 
E58E 80             ADD	A,B
E58F 81             ADD	A,C
E590 48             LD	C,B
E591 08             EX	AF,AF'
E592 38 41          JR 	C,E5D5
E594 9B             SBC	A,E
E595 6B             LD	L,E
E596 EE 96          XOR	96
E598 13             INC	DE
E599 00             NOP
E59A 98             SBC	A,B
E59B 08             EX	AF,AF'
E59C 68             LD	L,B
E59D 61             LD	H,C
E59E FF             RST	38
E59F FD 01 00 00    LD	BC,0000 ; LD	BC,START
E5A3 20 FA          JR	NZ,E59F
E5A5 01 01 1E       LD	BC,1E01
E5A8 0A             LD	A,(BC)
E5A9 02             LD	(BC),A
- 
E5AA FA 01 09       JP	M,0901 ; JP	M,ME_OLD_V1
E5AD 17             RLA
E5AE 02             LD	(BC),A
E5AF 07             RLCA
E5B0 FA 0A 09       JP	M,090A
E5B3 13             INC	DE
E5B4 04             INC	B
E5B5 02             LD	(BC),A
E5B6 FB             EI
E5B7 09             ADD	HL,BC
E5B8 15             DEC	D
E5B9 07             RLCA
E5BA F8             RET	M
E5BB 94             SUB	H
E5BC 0B             DEC	BC
E5BD 1B             DEC	DE
E5BE 02             LD	(BC),A
E5BF 02             LD	(BC),A
E5C0 FD 11 10 15    LD	DE,1510
E5C4 04             INC	B
- 
E5C5 FD 11 11 15    LD	DE,1511
E5C9 06 FD          LD	B,FD
E5CB 11 12 15       LD	DE,1512
E5CE 08             EX	AF,AF'
E5CF FD 11 13 00    LD	DE,0013
E5D3 20 FE          JR	NZ,E5D3
E5D5 11 05 00       LD	DE,0005
E5D8 0E FD          LD	C,FD
E5DA 11 05 01       LD	DE,0105
E5DD 03             INC	BC
E5DE FC 11 06       CALL	M,0611
E5E1 03             INC	BC
E5E2 FA 11 07       JP	M,0711
E5E5 03             INC	BC
E5E6 02             LD	(BC),A
E5E7 03             INC	BC
E5E8 FA 11 09       JP	M,0911
E5EB 06 03          LD	B,03
E5ED 02             LD	(BC),A
E5EE FA 11 0B       JP	M,0B11
- 
E5F1 08             EX	AF,AF'
E5F2 05             DEC	B
E5F3 02             LD	(BC),A
E5F4 F8             RET	M
E5F5 90             SUB	B
E5F6 0C             INC	C
E5F7 0A             LD	A,(BC)
E5F8 02             LD	(BC),A
E5F9 02             LD	(BC),A
E5FA FA 11 0E       JP	M,0E11
E5FD 03             INC	BC
E5FE 02             LD	(BC),A
E5FF 05             DEC	B
E600 FB             EI
E601 0E 01          LD	C,01
E603 05             DEC	B
E604 FD 89          ADC	A,C
E606 0B             DEC	BC
E607 01 03 FC       LD	BC,FC03
E60A 49             LD	C,C
- 
E60B 12             LD	(DE),A
E60C 11 FD 19       LD	DE,19FD
E60F 04             INC	B
E610 17             RLA
E611 04             INC	B
E612 FD 19          ADD	IY,DE
E614 05             DEC	B
E615 16 05          LD	D,05
E617 FD 19          ADD	IY,DE
E619 06 15          LD	B,15
E61B 06 FF          LD	B,FF
E61D 9A             SBC	A,D
E61E 06 70          LD	B,70
E620 48             LD	C,B
E621 81             ADD	A,C
E622 38 98          JR 	C,E5BC
E624 E0             RET	PO
E625 05             DEC	B
E626 4C             LD	C,H
E627 01 60 08       LD	BC,0860
- 
E62A 30 06          JR	NC,E632
E62C 54             LD	D,H
E62D 01 70 50       LD	BC,5070
E630 98             SBC	A,B
E631 44             LD	B,H
E632 FF             RST	38
E633 FA 11 00       JP	M,0011
E636 00             NOP
E637 04             INC	B
E638 03             INC	BC
E639 FA 11 00       JP	M,0011
E63C 03             INC	BC
E63D 02             LD	(BC),A
E63E 1D             DEC	E
E63F FA 11 04       JP	M,0411
E642 00             NOP
E643 09             ADD	HL,BC
E644 02             LD	(BC),A
E645 FD 11 0C 02    LD	DE,020C
E649 07             RLCA
- 
E64A FA 11 07       JP	M,0711
E64D 09             ADD	HL,BC
E64E 06 02          LD	B,02
E650 FE 11          CP	11
E652 07             RLCA
E653 0B             DEC	BC
E654 03             INC	BC
E655 FD 2E 0B       LD	iY,0B
E658 0B             DEC	BC
E659 10 FD          DJNZ	E658
E65B 11 09 0C       LD	DE,0C09
E65E 0F             RRCA
E65F FE 11          CP	11
E661 09             ADD	HL,BC
E662 1B             DEC	DE
E663 08             EX	AF,AF'
E664 FB             EI
E665 09             ADD	HL,BC
E666 1C             INC	E
E667 0A             LD	A,(BC)
- 
E668 FA 11 01       JP	M,0111
E66B 1E 13          LD	E,13
E66D 02             LD	(BC),A
E66E FD 11 10 00    LD	DE,0010 ; LD	DE,PRINT_A
E672 05             DEC	B
E673 FD 11 11 00    LD	DE,0011
E677 07             RLCA
E678 FD 11 12 00    LD	DE,0012
E67C 09             ADD	HL,BC
E67D F8             RET	M
E67E 98             SBC	A,B
E67F 11 0C 02       LD	DE,020C
E682 02             LD	(BC),A
E683 F8             RET	M
E684 98             SBC	A,B
E685 11 0F 02       LD	DE,020F
E688 02             LD	(BC),A
E689 F8             RET	M
E68A 98             SBC	A,B
E68B 11 12 02       LD	DE,0212
- 
E68E 02             LD	(BC),A
E68F F8             RET	M
E690 98             SBC	A,B
E691 11 15 02       LD	DE,0215
E694 02             LD	(BC),A
E695 F8             RET	M
E696 98             SBC	A,B
E697 11 18 02       LD	DE,0218
E69A 02             LD	(BC),A
E69B FA 11 02       JP	M,0211
E69E 05             DEC	B
E69F 02             LD	(BC),A
E6A0 02             LD	(BC),A
E6A1 FA 11 02       JP	M,0211
E6A4 09             ADD	HL,BC
E6A5 02             LD	(BC),A
E6A6 03             INC	BC
E6A7 FD 3A 09 05    LD	A,(0509)
E6AB 02             LD	(BC),A
E6AC FD 11 13 00    LD	DE,0013
- 
E6B0 1E FA          LD	E,FA
E6B2 28 0F          JR	Z,E6C3
E6B4 0C             INC	C
E6B5 02             LD	(BC),A
E6B6 02             LD	(BC),A
E6B7 FA 28 0F       JP	M,0F28
E6BA 0F             RRCA
E6BB 02             LD	(BC),A
E6BC 02             LD	(BC),A
E6BD FA 28 0F       JP	M,0F28
E6C0 12             LD	(DE),A
E6C1 02             LD	(BC),A
E6C2 02             LD	(BC),A
E6C3 FA 28 0F       JP	M,0F28
E6C6 15             DEC	D
E6C7 02             LD	(BC),A
E6C8 02             LD	(BC),A
E6C9 FA 28 0F       JP	M,0F28
E6CC 18 02          JR	E6D0
E6CE 02             LD	(BC),A
- 
E6CF FF             RST	38
E6D0 48             LD	C,B
E6D1 82             ADD	A,D
E6D2 38 60          JR 	C,E734
E6D4 E0             RET	PO
E6D5 06 7C          LD	B,7C
E6D7 85             ADD	A,L
E6D8 18 10          JR	E6EA
E6DA 50             LD	D,B
E6DB 43             LD	B,E
E6DC 78             LD	A,B
E6DD 01 38 10       LD	BC,1038
E6E0 50             LD	D,B
E6E1 41             LD	B,C
E6E2 FF             RST	38
E6E3 FD 51          LD	D,C
E6E5 13             INC	DE
E6E6 00             NOP
E6E7 20 FD          JR	NZ,E6E6
E6E9 02             LD	(BC),A
- 
E6EA 13             INC	DE
E6EB 0D             DEC	C
E6EC 0E FE          LD	C,FE
E6EE 04             INC	B
E6EF 00             NOP
E6F0 00             NOP
E6F1 0B             DEC	BC
E6F2 FD 1A          LD	A,(DE)
E6F4 0A             LD	A,(BC)
E6F5 01 07 FD       LD	BC,FD07
E6F8 1B             DEC	DE
E6F9 09             ADD	HL,BC
E6FA 01 06 FD       LD	BC,FD06
E6FD 1B             DEC	DE
E6FE 08             EX	AF,AF'
E6FF 01 05 FD       LD	BC,FD05
E702 1B             DEC	DE
E703 07             RLCA
E704 01 04 FD       LD	BC,FD04
E707 1B             DEC	DE
- 
E708 06 01          LD	B,01
E70A 03             INC	BC
E70B FD 1B          DEC	DE
E70D 05             DEC	B
E70E 01 02 FC       LD	BC,FC02
E711 1B             DEC	DE
E712 04             INC	B
E713 01 FD 3A       LD	BC,3AFD
E716 10 04          DJNZ	E71C
E718 04             INC	B
E719 F8             RET	M
E71A 8A             ADC	A,D
E71B 0E 0E          LD	C,0E
E71D 03             INC	BC
E71E 02             LD	(BC),A
E71F F8             RET	M
E720 8E             ADC	A,(HL)
E721 11 0E 01       LD	DE,010E
E724 02             LD	(BC),A
E725 F8             RET	M
- 
E726 8E             ADC	A,(HL)
E727 12             LD	(DE),A
E728 0E 01          LD	C,01
E72A 02             LD	(BC),A
E72B F8             RET	M
E72C 8A             ADC	A,D
E72D 0E 18          LD	C,18
E72F 03             INC	BC
E730 02             LD	(BC),A
E731 F8             RET	M
E732 8E             ADC	A,(HL)
E733 11 18 01       LD	DE,0118
E736 02             LD	(BC),A
E737 F8             RET	M
E738 8E             ADC	A,(HL)
E739 12             LD	(DE),A
E73A 18 01          JR	E73D
E73C 02             LD	(BC),A
E73D FF             RST	38
E73E 3C             INC	A
- 
E73F 01 88 80       LD	BC,8088
E742 B0             OR	B
E743 06 FF          LD	B,FF
E745 FD 51          LD	D,C
E747 13             INC	DE
E748 00             NOP
E749 04             INC	B
E74A FD 51          LD	D,C
E74C 12             LD	(DE),A
E74D 04             INC	B
E74E 02             LD	(BC),A
E74F FE 51          CP	51
E751 11 06 02       LD	DE,0206
E754 FD 51          LD	D,C
E756 10 07          DJNZ	E75F
E758 02             LD	(BC),A
E759 FD 51          LD	D,C
E75B 0E 09          LD	C,09
E75D 03             INC	BC
E75E FD 0D          DEC	C
- 
E760 13             INC	DE
E761 04             INC	B
E762 02             LD	(BC),A
E763 FE 0D          CP	0D
E765 12             LD	(DE),A
E766 06 01          LD	B,01
E768 FA 0D 11       JP	M,110D ; JP	M,KEY_NEXT
E76B 07             RLCA
E76C 03             INC	BC
E76D 02             LD	(BC),A
E76E FA 0D 0F       JP	M,0F0D
E771 09             ADD	HL,BC
E772 05             DEC	B
E773 03             INC	BC
E774 FD 1F          RRA
E776 12             LD	(DE),A
E777 0C             INC	C
E778 0C             INC	C
E779 FD 20 13       JR	NZ,E78F
E77C 0C             INC	C
- 
E77D 0C             INC	C
E77E FD 51          LD	D,C
E780 10 1C          DJNZ	E79E
E782 04             INC	B
E783 FA 0D 11       JP	M,110D ; JP	M,KEY_NEXT
E786 1C             INC	E
E787 03             INC	BC
E788 04             INC	B
E789 FD 51          LD	D,C
E78B 0E 1A          LD	C,1A
E78D 02             LD	(BC),A
E78E FA 0D 0F       JP	M,0F0D
E791 1A             LD	A,(DE)
E792 05             DEC	B
E793 02             LD	(BC),A
E794 FD 51          LD	D,C
E796 0D             DEC	C
E797 18 02          JR	E79B
E799 FA 0D 0E       JP	M,0E0D ; JP	M,CL_SCR_2
E79C 18 06          JR	E7A4
- 
E79E 02             LD	(BC),A
E79F FF             RST	38
E7A0 FF             RST	38
E7A1 FA 0D 11       JP	M,110D ; JP	M,KEY_NEXT
E7A4 00             NOP
E7A5 03             INC	BC
E7A6 20 FD          JR	NZ,E7A5
E7A8 51             LD	D,C
E7A9 10 00          DJNZ	E7AB
E7AB 20 FA          JR	NZ,E7A7
E7AD 14             INC	D
E7AE 0A             LD	A,(BC)
E7AF 06 07          LD	B,07
E7B1 04             INC	B
E7B2 FA 14 0A       JP	M,0A14
E7B5 13             INC	DE
E7B6 07             RLCA
E7B7 04             INC	B
E7B8 FA 14 07       JP	M,0714
E7BB 05             DEC	B
- 
E7BC 03             INC	BC
E7BD 06 FA          LD	B,FA
E7BF 14             INC	D
E7C0 07             RLCA
E7C1 12             LD	(DE),A
E7C2 03             INC	BC
E7C3 06 FA          LD	B,FA
E7C5 14             INC	D
E7C6 05             DEC	B
E7C7 04             INC	B
E7C8 02             LD	(BC),A
E7C9 02             LD	(BC),A
E7CA FE 14          CP	14
E7CC 04             INC	B
E7CD 0B             DEC	BC
E7CE 03             INC	BC
E7CF FA 14 05       JP	M,0514 ; JP	M,SA_BIT_1
E7D2 11 02 08       LD	DE,0802 ; LD	DE,LD_BLOCK
E7D5 FD 14          INC	D
E7D7 04             INC	B
- 
E7D8 03             INC	BC
E7D9 03             INC	BC
E7DA FC 14 04       CALL	M,0414
E7DD 0C             INC	C
E7DE FD 14          INC	D
E7E0 04             INC	B
E7E1 10 0A          DJNZ	E7ED
E7E3 FD 14          INC	D
E7E5 03             INC	BC
E7E6 02             LD	(BC),A
E7E7 1A             LD	A,(DE)
E7E8 FE 14          CP	14
E7EA 00             NOP
E7EB 1F             RRA
E7EC 0A             LD	A,(BC)
E7ED FE 14          CP	14
E7EF 00             NOP
E7F0 1E 07          LD	E,07
E7F2 FE 14          CP	14
E7F4 00             NOP
- 
E7F5 1D             DEC	E
E7F6 05             DEC	B
E7F7 FE 14          CP	14
E7F9 00             NOP
E7FA 1C             INC	E
E7FB 04             INC	B
E7FC FB             EI
E7FD 00             NOP
E7FE 1A             LD	A,(DE)
E7FF 03             INC	BC
E800 FB             EI
E801 03             INC	BC
E802 09             ADD	HL,BC
E803 04             INC	B
E804 FA 14 01       JP	M,0114
E807 00             NOP
E808 02             LD	(BC),A
E809 09             ADD	HL,BC
E80A FD 14          INC	D
E80C 00             NOP
- 
E80D 00             NOP
E80E 1A             LD	A,(DE)
E80F FA 00 01       JP	M,0100
E812 1C             INC	E
E813 02             LD	(BC),A
E814 04             INC	B
E815 FF             RST	38
E816 97             SUB	A
E817 10 98          DJNZ	E7B1
E819 FF             RST	38
E81A FA 70 00       JP	M,0070 ; JP	M,NO_RESET
E81D 00             NOP
E81E 06 02          LD	B,02
E820 FB             EI
E821 00             NOP
E822 02             LD	(BC),A
E823 05             DEC	B
E824 FD 70 05       LD	(IY+05),B
E827 02             LD	(BC),A
E828 07             RLCA
- 
E829 FE 70          CP	70
E82B 06 00          LD	B,00
E82D 06 FD          LD	B,FD
E82F 08             EX	AF,AF'
E830 09             ADD	HL,BC
E831 01 03 FD       LD	BC,FD03
E834 02             LD	(BC),A
E835 00             NOP
E836 04             INC	B
E837 1C             INC	E
E838 FE 02          CP	02
E83A 01 1F 13       LD	BC,131F
E83D FD 02          LD	(BC),A
E83F 13             INC	DE
E840 03             INC	BC
E841 1C             INC	E
E842 FA 02 10       JP	M,1002
E845 00             NOP
E846 04             INC	B
E847 03             INC	BC
- 
E848 FA 0A 05       JP	M,050A
E84B 0D             DEC	C
E84C 02             LD	(BC),A
E84D 07             RLCA
E84E FA 39 06       JP	M,0639
E851 18 02          JR	E855
E853 03             INC	BC
E854 FD 16 06       LD	D,06
E857 1B             DEC	DE
E858 02             LD	(BC),A
E859 FD 08          EX	AF,AF'
E85B 0C             INC	C
E85C 1B             DEC	DE
E85D 02             LD	(BC),A
E85E FA 0A 0B       JP	M,0B0A
E861 12             LD	(DE),A
E862 05             DEC	B
E863 02             LD	(BC),A
E864 FA 39 0E       JP	M,0E39
E867 0D             DEC	C
- 
E868 02             LD	(BC),A
E869 03             INC	BC
E86A FB             EI
E86B 0E 10          LD	C,10
E86D 05             DEC	B
E86E FD 16 0E       LD	D,0E
E871 14             INC	D
E872 03             INC	BC
E873 FD 08          EX	AF,AF'
E875 0A             LD	A,(BC)
E876 0D             DEC	C
E877 03             INC	BC
E878 FA 0A 0C       JP	M,0C0A ; JP	M,PO_MSG
E87B 06 04          LD	B,04
E87D 03             INC	BC
E87E FC 49 0D       CALL	M,0D49
E881 0D             DEC	C
E882 FC 48 01       CALL	M,0148
E885 10 FF          DJNZ	E886
E887 99             SBC	A,C
- 
E888 E8             RET	PE
E889 30 60          JR	NC,E8EB
E88B 4C             LD	C,H
E88C 82             ADD	A,D
E88D 88             ADC	A,B
E88E 90             SUB	B
E88F E8             RET	PE
E890 45             LD	B,L
E891 6C             LD	L,H
E892 01 C0 40       LD	BC,40C0
E895 70             LD	(HL),B
E896 43             LD	B,E
E897 7C             LD	A,H
E898 81             ADD	A,C
E899 A8             XOR	B
E89A 08             EX	AF,AF'
E89B 38 04          JR 	C,E8A1
E89D 68             LD	L,B
E89E 82             ADD	A,D
E89F 50             LD	D,B
- 
E8A0 10 40          DJNZ	E8E2
E8A2 42             LD	B,D
E8A3 97             SUB	A
E8A4 58             LD	E,B
E8A5 30 98          JR	NC,E83F
E8A7 38 90          JR 	C,E839
E8A9 52             LD	D,D
E8AA FF             RST	38
E8AB FA 0D 12       JP	M,120D
E8AE 00             NOP
E8AF 02             LD	(BC),A
E8B0 20 FD          JR	NZ,E8AF
E8B2 0D             DEC	C
E8B3 11 00 06       LD	DE,0600
E8B6 FD 0D          DEC	C
E8B8 11 11 0F       LD	DE,0F11
E8BB FD 0D          DEC	C
E8BD 10 14          DJNZ	E8D3
E8BF 03             INC	BC
E8C0 FD 51          LD	D,C
- 
E8C2 10 00          DJNZ	E8C4
E8C4 06 FD          LD	B,FD
E8C6 51             LD	D,C
E8C7 11 06 05       LD	DE,0506
E8CA FD 51          LD	D,C
E8CC 12             LD	(DE),A
E8CD 0B             DEC	BC
E8CE 03             INC	BC
E8CF FD 51          LD	D,C
E8D1 11 0E 03       LD	DE,030E
E8D4 FD 51          LD	D,C
E8D6 10 11          DJNZ	E8E9
E8D8 03             INC	BC
E8D9 FD 51          LD	D,C
E8DB 0F             RRCA
E8DC 14             INC	D
E8DD 03             INC	BC
E8DE FD 51          LD	D,C
E8E0 10 17          DJNZ	E8F9
E8E2 03             INC	BC
- 
E8E3 FD 51          LD	D,C
E8E5 11 1A 03       LD	DE,031A
E8E8 FD 51          LD	D,C
E8EA 10 1D          DJNZ	E909
E8EC 03             INC	BC
E8ED FF             RST	38
E8EE 94             SUB	H
E8EF 02             LD	(BC),A
E8F0 C0             RET	NZ
E8F1 E0             RET	PO
E8F2 06 94          LD	B,94
E8F4 03             INC	BC
E8F5 F0             RET	P
E8F6 A8             XOR	B
E8F7 44             LD	B,H
E8F8 94             SUB	H
E8F9 04             INC	B
E8FA D0             RET	NC
E8FB 68             LD	L,B
E8FC 43             LD	B,E
- 
E8FD 94             SUB	H
E8FE 03             INC	BC
E8FF E0             RET	PO
E900 28 42          JR	Z,E944
E902 FF             RST	38
E903 FD 13          INC	DE
E905 00             NOP
E906 00             NOP
E907 16 FA          LD	D,FA
E909 13             INC	DE
E90A 00             NOP
E90B 16 03          LD	D,03
E90D 0A             LD	A,(BC)
E90E FA 13 03       JP	M,0313
E911 1E 09          LD	E,09
E913 02             LD	(BC),A
E914 FA 0D 10       JP	M,100D
E917 00             NOP
E918 04             INC	B
E919 20 FA          JR	NZ,E915
- 
E91B 14             INC	D
E91C 03             INC	BC
E91D 00             NOP
E91E 0E 04          LD	C,04
E920 FA 14 03       JP	M,0314
E923 0D             DEC	C
E924 0B             DEC	BC
E925 04             INC	B
E926 FA 0D 08       JP	M,080D
E929 16 08          LD	D,08
E92B 02             LD	(BC),A
E92C FE 14          CP	14
E92E 03             INC	BC
E92F 04             INC	B
E930 07             RLCA
E931 FE 14          CP	14
E933 03             INC	BC
E934 0C             INC	C
E935 07             RLCA
E936 FD 14          INC	D
- 
E938 10 0D          DJNZ	E947
E93A 04             INC	B
E93B FE 14          CP	14
E93D 03             INC	BC
E93E 05             DEC	B
E93F 04             INC	B
E940 FE 14          CP	14
E942 03             INC	BC
E943 0B             DEC	BC
E944 04             INC	B
E945 FE 14          CP	14
E947 03             INC	BC
E948 06 02          LD	B,02
E94A FE 14          CP	14
E94C 03             INC	BC
E94D 0A             LD	A,(BC)
E94E 02             LD	(BC),A
E94F FD 14          INC	D
E951 03             INC	BC
E952 07             RLCA
- 
E953 03             INC	BC
E954 FD 1D          DEC	E
E956 06 11          LD	B,11
E958 03             INC	BC
E959 FD 55          LD	D,iY
E95B 08             EX	AF,AF'
E95C 18 04          JR	E962
E95E FB             EI
E95F 0B             DEC	BC
E960 11 05 FD       LD	DE,FD05
E963 55             LD	D,L
E964 0B             DEC	BC
E965 13             INC	DE
E966 03             INC	BC
E967 FD 1D          DEC	E
E969 0B             DEC	BC
E96A 1C             INC	E
E96B 02             LD	(BC),A
E96C F8             RET	M
E96D 76             HALT
- 
E96E 0E 18          LD	C,18
E970 02             LD	(BC),A
E971 02             LD	(BC),A
E972 FF             RST	38
E973 60             LD	H,B
E974 81             ADD	A,C
E975 70             LD	(HL),B
E976 20 60          JR	NZ,E9D8
E978 03             INC	BC
E979 6C             LD	L,H
E97A 81             ADD	A,C
E97B D0             RET	NC
E97C 48             LD	C,B
E97D 70             LD	(HL),B
E97E 41             LD	B,C
E97F 64             LD	H,H
E980 82             ADD	A,D
E981 A0             AND	B
E982 08             EX	AF,AF'
E983 48             LD	C,B
- 
E984 45             LD	B,L
E985 97             SUB	A
E986 60             LD	H,B
E987 70             LD	(HL),B
E988 FF             RST	38
E989 FA 13 00       JP	M,0013
E98C 00             NOP
E98D 0C             INC	C
E98E 02             LD	(BC),A
E98F FA 19 02       JP	M,0219
E992 02             LD	(BC),A
E993 06 02          LD	B,02
E995 FA 19 03       JP	M,0319
E998 04             INC	B
E999 02             LD	(BC),A
E99A 02             LD	(BC),A
E99B FA 19 04       JP	M,0419
E99E 06 04          LD	B,04
E9A0 02             LD	(BC),A
E9A1 FA 19 05       JP	M,0519
- 
E9A4 08             EX	AF,AF'
E9A5 03             INC	BC
E9A6 02             LD	(BC),A
E9A7 FA 19 06       JP	M,0619
E9AA 0A             LD	A,(BC)
E9AB 02             LD	(BC),A
E9AC 02             LD	(BC),A
E9AD FA 19 07       JP	M,0719
E9B0 0C             INC	C
E9B1 02             LD	(BC),A
E9B2 02             LD	(BC),A
E9B3 FA 19 08       JP	M,0819 ; JP	M,LD_CONT_1
E9B6 0E 02          LD	C,02
E9B8 02             LD	(BC),A
E9B9 FA 19 09       JP	M,0919
E9BC 10 02          DJNZ	E9C0
E9BE 02             LD	(BC),A
E9BF FA 19 0A       JP	M,0A19
E9C2 12             LD	(DE),A
E9C3 03             INC	BC
- 
E9C4 02             LD	(BC),A
E9C5 FA 19 0B       JP	M,0B19
E9C8 14             INC	D
E9C9 02             LD	(BC),A
E9CA 02             LD	(BC),A
E9CB FD 19          ADD	IY,DE
E9CD 0C             INC	C
E9CE 16 02          LD	D,02
E9D0 FA 04 0D       JP	M,0D04
E9D3 14             INC	D
E9D4 06 02          LD	B,02
E9D6 FD 0D          DEC	C
E9D8 13             INC	DE
E9D9 00             NOP
E9DA 1D             DEC	E
E9DB FD 51          LD	D,C
E9DD 10 16          DJNZ	E9F5
E9DF 02             LD	(BC),A
E9E0 FD 0D          DEC	C
E9E2 11 16 02       LD	DE,0216
- 
E9E5 FD 51          LD	D,C
E9E7 11 18 03       LD	DE,0318
E9EA FD 0D          DEC	C
E9EC 12             LD	(DE),A
E9ED 16 05          LD	D,05
E9EF FC 51 12       CALL	M,1251
E9F2 1B             DEC	DE
E9F3 FC 51 13       CALL	M,1351
E9F6 1C             INC	E
E9F7 F9             LD	SP,HL
E9F8 11 12 FA       LD	DE,FA12
E9FB 0D             DEC	C
E9FC 10 00          DJNZ	E9FE
E9FE 03             INC	BC
E9FF 07             RLCA
EA00 FB             EI
EA01 10 07          DJNZ	EA0A
EA03 03             INC	BC
EA04 FD 04          INC	B
EA06 10 09          DJNZ	EA11
- 
EA08 05             DEC	B
EA09 FE 04          CP	04
EA0B 0B             DEC	BC
EA0C 09             ADD	HL,BC
EA0D 03             INC	BC
EA0E FD 50          LD	D,B
EA10 0D             DEC	C
EA11 0A             LD	A,(BC)
EA12 02             LD	(BC),A
EA13 FD 50          LD	D,B
EA15 0B             DEC	BC
EA16 02             LD	(BC),A
EA17 07             RLCA
EA18 FB             EI
EA19 13             INC	DE
EA1A 10 01          DJNZ	EA1D
EA1C FF             RST	38
EA1D 78             LD	A,B
EA1E 01 20 28       LD	BC,2820
EA21 48             LD	C,B
- 
EA22 07             RLCA
EA23 48             LD	C,B
EA24 81             ADD	A,C
EA25 70             LD	(HL),B
EA26 38 60          JR 	C,EA88
EA28 04             INC	B
EA29 FF             RST	38
EA2A FA 04 00       JP	M,0004
EA2D 00             NOP
EA2E 14             INC	D
EA2F 02             LD	(BC),A
EA30 FD 04          INC	B
EA32 00             NOP
EA33 02             LD	(BC),A
EA34 0E FD          LD	C,FD
EA36 20 13          JR	NZ,EA4B
EA38 02             LD	(BC),A
EA39 02             LD	(BC),A
EA3A FB             EI
EA3B 00             NOP
- 
EA3C 10 09          DJNZ	EA47
EA3E FD 06 04       LD	B,04
EA41 04             INC	B
EA42 02             LD	(BC),A
EA43 FE 70          CP	70
EA45 04             INC	B
EA46 06 07          LD	B,07
EA48 FA 70 04       JP	M,0470
EA4B 07             RLCA
EA4C 04             INC	B
EA4D 02             LD	(BC),A
EA4E FA 70 04       JP	M,0470
EA51 09             ADD	HL,BC
EA52 07             RLCA
EA53 07             RLCA
EA54 FA 70 09       JP	M,0970 ; JP	M,SA_CONTRL
EA57 10 02          DJNZ	EA5B
EA59 0A             LD	A,(BC)
EA5A FA 70 0B       JP	M,0B70
EA5D 15             DEC	D
- 
EA5E 03             INC	BC
EA5F 03             INC	BC
EA60 FA 70 0E       JP	M,0E70
EA63 13             INC	DE
EA64 03             INC	BC
EA65 05             DEC	B
EA66 FA 70 11       JP	M,1170
EA69 04             INC	B
EA6A 03             INC	BC
EA6B 14             INC	D
EA6C FA 70 12       JP	M,1270
EA6F 18 02          JR	EA73
EA71 08             EX	AF,AF'
EA72 FA 0D 00       JP	M,000D
EA75 12             LD	(DE),A
EA76 06 03          LD	B,03
EA78 FA 0D 00       JP	M,000D
EA7B 15             DEC	D
EA7C 04             INC	B
EA7D 02             LD	(BC),A
- 
EA7E FA 0D 00       JP	M,000D
EA81 17             RLA
EA82 02             LD	(BC),A
EA83 07             RLCA
EA84 FA 0D 02       JP	M,020D
EA87 19             ADD	HL,DE
EA88 02             LD	(BC),A
EA89 07             RLCA
EA8A FA 0D 04       JP	M,040D
EA8D 1C             INC	E
EA8E 09             ADD	HL,BC
EA8F 04             INC	B
EA90 FA 0D 0D       JP	M,0D0D
EA93 1A             LD	A,(DE)
EA94 02             LD	(BC),A
EA95 06 FB          LD	B,FB
EA97 0D             DEC	C
EA98 18 05          JR	EA9F
EA9A FB             EI
EA9B 09             ADD	HL,BC
- 
EA9C 1A             LD	A,(DE)
EA9D 04             INC	B
EA9E FC 51 00       CALL	M,0051
EAA1 1D             DEC	E
EAA2 FC 51 01       CALL	M,0151
EAA5 1E FC          LD	E,FC
EAA7 51             LD	D,C
EAA8 02             LD	(BC),A
EAA9 1F             RRA
EAAA FD 06 0E       LD	B,0E
EAAD 11 02 FF       LD	DE,FF02
EAB0 99             SBC	A,C
EAB1 10 20          DJNZ	EAD3
EAB3 88             ADC	A,B
EAB4 74             LD	(HL),H
EAB5 82             ADD	A,D
EAB6 38 40          JR 	C,EAF8
EAB8 78             LD	A,B
EAB9 03             INC	BC
EABA 3C             INC	A
- 
EABB 81             ADD	A,C
EABC 78             LD	A,B
EABD 48             LD	C,B
EABE 88             ADC	A,B
EABF 41             LD	B,C
EAC0 90             SUB	B
EAC1 01 B8 10       LD	BC,10B8
EAC4 38 04          JR 	C,EACA
EAC6 97             SUB	A
EAC7 68             LD	L,B
EAC8 98             SBC	A,B
EAC9 98             SBC	A,B
EACA 08             EX	AF,AF'
EACB 50             LD	D,B
EACC 50             LD	D,B
EACD FF             RST	38
EACE FD 51          LD	D,C
EAD0 02             LD	(BC),A
EAD1 00             NOP
EAD2 04             INC	B
- 
EAD3 FD 0D          DEC	C
EAD5 03             INC	BC
EAD6 00             NOP
EAD7 04             INC	B
EAD8 FD 51          LD	D,C
EADA 03             INC	BC
EADB 04             INC	B
EADC 0A             LD	A,(BC)
EADD FD 0D          DEC	C
EADF 04             INC	B
EAE0 00             NOP
EAE1 0E FD          LD	C,FD
EAE3 51             LD	D,C
EAE4 04             INC	B
EAE5 0E 09          LD	C,09
EAE7 FD 0D          DEC	C
EAE9 05             DEC	B
EAEA 00             NOP
EAEB 17             RLA
EAEC FD 51          LD	D,C
- 
EAEE 05             DEC	B
EAEF 17             RLA
EAF0 04             INC	B
EAF1 FD 0D          DEC	C
EAF3 06 00          LD	B,00
EAF5 1B             DEC	DE
EAF6 FD 51          LD	D,C
EAF8 06 1B          LD	B,1B
EAFA 02             LD	(BC),A
EAFB FA 0D 07       JP	M,070D
EAFE 00             NOP
EAFF 05             DEC	B
EB00 07             RLCA
EB01 FE 0D          CP	0D
EB03 0C             INC	C
EB04 00             NOP
EB05 03             INC	BC
EB06 FA 0D 07       JP	M,070D
EB09 19             ADD	HL,DE
EB0A 06 07          LD	B,07
- 
EB0C FA 0D 0D       JP	M,0D0D
EB0F 15             DEC	D
EB10 02             LD	(BC),A
EB11 0B             DEC	BC
EB12 FA 70 0A       JP	M,0A70
EB15 0D             DEC	C
EB16 08             EX	AF,AF'
EB17 04             INC	B
EB18 FA 70 12       JP	M,1270
EB1B 00             NOP
EB1C 02             LD	(BC),A
EB1D 20 FD          JR	NZ,EB1C
EB1F 00             NOP
EB20 12             LD	(DE),A
EB21 09             ADD	HL,BC
EB22 02             LD	(BC),A
EB23 F9             LD	SP,HL
EB24 10 11          DJNZ	EB37
EB26 FD 06 0A       LD	B,0A
EB29 0B             DEC	BC
- 
EB2A 02             LD	(BC),A
EB2B FD 51          LD	D,C
EB2D 07             RLCA
EB2E 1D             DEC	E
EB2F 03             INC	BC
EB30 FF             RST	38
EB31 99             SBC	A,C
EB32 48             LD	C,B
EB33 50             LD	D,B
EB34 90             SUB	B
EB35 88             ADC	A,B
EB36 82             ADD	A,D
EB37 98             SBC	A,B
EB38 38 80          JR 	C,EABA
EB3A 43             LD	B,E
EB3B 98             SBC	A,B
EB3C 38 70          JR 	C,EBAE
EB3E 43             LD	B,E
EB3F 97             SUB	A
EB40 60             LD	H,B
- 
EB41 B0             OR	B
EB42 5C             LD	E,H
EB43 81             ADD	A,C
EB44 80             ADD	A,B
EB45 00             NOP
EB46 38 06          JR 	C,EB4E
EB48 FF             RST	38
EB49 FA 70 12       JP	M,1270
EB4C 00             NOP
EB4D 02             LD	(BC),A
EB4E 19             ADD	HL,DE
EB4F FD 51          LD	D,C
EB51 07             RLCA
EB52 00             NOP
EB53 03             INC	BC
EB54 FA 0D 08       JP	M,080D
EB57 00             NOP
EB58 07             RLCA
EB59 05             DEC	B
EB5A FC 0D 0E       CALL	M,0E0D ; CALL	M,CL_SCR_2
- 
EB5D 0C             INC	C
EB5E FD 51          LD	D,C
EB60 08             EX	AF,AF'
EB61 03             INC	BC
EB62 02             LD	(BC),A
EB63 FA 0D 0A       JP	M,0A0D
EB66 05             DEC	B
EB67 05             DEC	B
EB68 05             DEC	B
EB69 FD 51          LD	D,C
EB6B 0A             LD	A,(BC)
EB6C 08             EX	AF,AF'
EB6D 02             LD	(BC),A
EB6E FE 0D          CP	0D
EB70 0C             INC	C
EB71 0A             LD	A,(BC)
EB72 03             INC	BC
EB73 FE 0D          CP	0D
EB75 0D             DEC	C
EB76 0B             DEC	BC
- 
EB77 02             LD	(BC),A
EB78 FC 51 0D       CALL	M,0D51
EB7B 0C             INC	C
EB7C FC 51 0C       CALL	M,0C51
EB7F 0B             DEC	BC
EB80 FC 51 0B       CALL	M,0B51
EB83 0A             LD	A,(BC)
EB84 FA 70 07       JP	M,0770
EB87 0E 05          LD	C,05
EB89 02             LD	(BC),A
EB8A FD 06 0B       LD	B,0B
EB8D 10 02          DJNZ	EB91
EB8F FD 06 0D       LD	B,0D
EB92 14             INC	D
EB93 02             LD	(BC),A
EB94 F9             LD	SP,HL
EB95 10 17          DJNZ	EBAE
EB97 FA 20 10       JP	M,1020
EB9A 1C             INC	E
EB9B 04             INC	B
- 
EB9C 04             INC	B
EB9D FD 1F          RRA
EB9F 0F             RRCA
EBA0 1C             INC	E
EBA1 04             INC	B
EBA2 FC 49 08       CALL	M,0849
EBA5 1A             LD	A,(DE)
EBA6 FD 51          LD	D,C
EBA8 09             ADD	HL,BC
EBA9 05             DEC	B
EBAA 03             INC	BC
EBAB FA 70 09       JP	M,0970 ; JP	M,SA_CONTRL
EBAE 19             ADD	HL,DE
EBAF 0B             DEC	BC
EBB0 03             INC	BC
EBB1 FE 70          CP	70
EBB3 11 1C 03       LD	DE,031C
EBB6 FC 70 13       CALL	M,1370
EBB9 1D             DEC	E
EBBA FF             RST	38
- 
EBBB 88             ADC	A,B
EBBC 01 90 28       LD	BC,2890
EBBF 60             LD	H,B
EBC0 04             INC	B
EBC1 88             ADC	A,B
EBC2 85             ADD	A,L
EBC3 B8             CP	B
EBC4 30 70          JR	NC,EC36
EBC6 04             INC	B
EBC7 5C             LD	E,H
EBC8 81             ADD	A,C
EBC9 80             ADD	A,B
EBCA 58             LD	E,B
EBCB A8             XOR	B
EBCC 03             INC	BC
EBCD 95             SUB	L
EBCE 03             INC	BC
EBCF 0F             RRCA
EBD0 0A             LD	A,(BC)
EBD1 96             SUB	(HL)
- 
EBD2 7A             LD	A,D
EBD3 00             NOP
EBD4 FF             RST	38
EBD5 63             LD	H,E
EBD6 63             LD	H,E
EBD7 63             LD	H,E
EBD8 63             LD	H,E
EBD9 63             LD	H,E
EBDA 63             LD	H,E
EBDB 63             LD	H,E
EBDC 63             LD	H,E
EBDD 63             LD	H,E
EBDE 63             LD	H,E
EBDF 63             LD	H,E
EBE0 63             LD	H,E
EBE1 63             LD	H,E
EBE2 63             LD	H,E
EBE3 63             LD	H,E
EBE4 63             LD	H,E
EBE5 63             LD	H,E
- 
EBE6 63             LD	H,E
EBE7 63             LD	H,E
EBE8 63             LD	H,E
EBE9 63             LD	H,E
EBEA 63             LD	H,E
EBEB 63             LD	H,E
EBEC 63             LD	H,E
EBED 63             LD	H,E
EBEE 63             LD	H,E
EBEF 63             LD	H,E
EBF0 63             LD	H,E
EBF1 63             LD	H,E
EBF2 63             LD	H,E
EBF3 63             LD	H,E
EBF4 63             LD	H,E
EBF5 63             LD	H,E
EBF6 63             LD	H,E
EBF7 63             LD	H,E
EBF8 63             LD	H,E
EBF9 63             LD	H,E
- 
EBFA 63             LD	H,E
EBFB 63             LD	H,E
EBFC 63             LD	H,E
EBFD 63             LD	H,E
EBFE 63             LD	H,E
EBFF 63             LD	H,E
EC00 63             LD	H,E
EC01 63             LD	H,E
EC02 63             LD	H,E
EC03 63             LD	H,E
EC04 63             LD	H,E
EC05 63             LD	H,E
EC06 63             LD	H,E
EC07 32 32 32       LD	(3232),A
EC0A 32 32 32       LD	(3232),A
EC0D 32 22 22       LD	(2222),A
EC10 22 23 23       LD	(2323),HL
EC13 23             INC	HL
EC14 13             INC	DE
EC15 13             INC	DE
- 
EC16 13             INC	DE
EC17 32 32 32       LD	(3232),A
EC1A 32 32 32       LD	(3232),A
EC1D 32 22 22       LD	(2222),A
EC20 22 23 23       LD	(2323),HL
EC23 23             INC	HL
EC24 23             INC	HL
EC25 13             INC	DE
EC26 13             INC	DE
EC27 32 32 32       LD	(3232),A
EC2A 32 32 32       LD	(3232),A
EC2D 32 22 22       LD	(2222),A
EC30 22 23 23       LD	(2323),HL
EC33 23             INC	HL
EC34 23             INC	HL
EC35 13             INC	DE
EC36 13             INC	DE
EC37 32 32 32       LD	(3232),A
EC3A 32 32 32       LD	(3232),A
EC3D 32 32 22       LD	(2232),A
- 
EC40 22 22 23       LD	(2322),HL
EC43 23             INC	HL
EC44 23             INC	HL
EC45 13             INC	DE
EC46 13             INC	DE
EC47 32 32 32       LD	(3232),A
EC4A 32 32 32       LD	(3232),A
EC4D 32 32 22       LD	(2232),A
EC50 22 22 23       LD	(2322),HL
EC53 23             INC	HL
EC54 23             INC	HL
EC55 13             INC	DE
EC56 13             INC	DE
EC57 31 32 32       LD	SP,3232
EC5A 32 32 32       LD	(3232),A
EC5D 32 32 32       LD	(3232),A
EC60 22 22 22       LD	(2222),HL
EC63 23             INC	HL
EC64 23             INC	HL
EC65 23             INC	HL
- 
EC66 13             INC	DE
EC67 31 31 32       LD	SP,3231
EC6A 32 32 32       LD	(3232),A
EC6D 32 32 32       LD	(3232),A
EC70 32 22 22       LD	(2222),A
EC73 23             INC	HL
EC74 23             INC	HL
EC75 23             INC	HL
EC76 13             INC	DE
EC77 31 31 31       LD	SP,3131
EC7A 31 32 32       LD	SP,3232
EC7D 32 32 32       LD	(3232),A
EC80 32 32 22       LD	(2232),A
EC83 22 23 23       LD	(2323),HL
EC86 23             INC	HL
EC87 31 31 31       LD	SP,3131
EC8A 31 31 32       LD	SP,3231
EC8D 32 32 32       LD	(3232),A
EC90 32 32 32       LD	(3232),A
EC93 22 22 23       LD	(2322),HL
- 
EC96 23             INC	HL
EC97 31 31 31       LD	SP,3131
EC9A 31 31 31       LD	SP,3131
EC9D 31 32 32       LD	SP,3232
ECA0 32 32 32       LD	(3232),A
ECA3 32 22 22       LD	(2222),A
ECA6 23             INC	HL
ECA7 31 31 31       LD	SP,3131
ECAA 31 31 31       LD	SP,3131
ECAD 31 31 31       LD	SP,3131
ECB0 32 32 32       LD	(3232),A
ECB3 32 32 22       LD	(2232),A
ECB6 22 31 31       LD	(3131),HL
ECB9 31 31 31       LD	SP,3131
ECBC 31 31 31       LD	SP,3131
ECBF 31 31 31       LD	SP,3131
ECC2 32 32 32       LD	(3232),A
ECC5 32 32 31       LD	(3132),A
ECC8 31 31 31       LD	SP,3131
ECCB 31 31 31       LD	SP,3131
- 
ECCE 31 31 31       LD	SP,3131
ECD1 31 32 31       LD	SP,3132
ECD4 32 31 32       LD	(3231),A
ECD7 30 31          JR	NC,ED0A
ECD9 31 31 31       LD	SP,3131
ECDC 31 30 31       LD	SP,3130
ECDF 31 31 31       LD	SP,3131
ECE2 31 31 31       LD	SP,3131
ECE5 31 31 30       LD	SP,3031
ECE8 30 30          JR	NC,ED1A
ECEA 31 30 31       LD	SP,3130
ECED 31 30 31       LD	SP,3130
ECF0 31 30 31       LD	SP,3130
ECF3 31 30 31       LD	SP,3130
ECF6 31 30 30       LD	SP,3030
ECF9 30 30          JR	NC,ED2B
ECFB 30 30          JR	NC,ED2D
ECFD 30 30          JR	NC,ED2F
ECFF 30 30          JR	NC,ED31
ED01 30 31          JR	NC,ED34
- 
ED03 30 31          JR	NC,ED36
ED05 30 31          JR	NC,ED38
ED07 30 30          JR	NC,ED39
ED09 30 30          JR	NC,ED3B
ED0B 30 30          JR	NC,ED3D
ED0D 30 30          JR	NC,ED3F
ED0F 30 30          JR	NC,ED41
ED11 30 30          JR	NC,ED43
ED13 30 31          JR	NC,ED46
ED15 30 31          JR	NC,ED48
ED17 30 30          JR	NC,ED49
ED19 30 30          JR	NC,ED4B
ED1B 30 30          JR	NC,ED4D
ED1D 30 30          JR	NC,ED4F
ED1F 30 31          JR	NC,ED52
ED21 30 30          JR	NC,ED53
ED23 30 30          JR	NC,ED55
ED25 30 30          JR	NC,ED57
ED27 30 30          JR	NC,ED59
ED29 30 30          JR	NC,ED5B
- 
ED2B 30 30          JR	NC,ED5D
ED2D 30 30          JR	NC,ED5F
ED2F 30 39          JR	NC,ED6A
ED31 30 30          JR	NC,ED63
ED33 30 30          JR	NC,ED65
ED35 30 30          JR	NC,ED67
ED37 30 30          JR	NC,ED69
ED39 30 30          JR	NC,ED6B
ED3B 30 30          JR	NC,ED6D
ED3D 30 30          JR	NC,ED6F
ED3F 30 30          JR	NC,ED71
ED41 30 30          JR	NC,ED73
ED43 30 39          JR	NC,ED7E
ED45 30 39          JR	NC,ED80
ED47 30 30          JR	NC,ED79
ED49 30 30          JR	NC,ED7B
ED4B 30 30          JR	NC,ED7D
ED4D 30 30          JR	NC,ED7F
ED4F 30 30          JR	NC,ED81
ED51 30 39          JR	NC,ED8C
- 
ED53 30 39          JR	NC,ED8E
ED55 30 39          JR	NC,ED90
ED57 30 30          JR	NC,ED89
ED59 30 39          JR	NC,ED94
ED5B 30 39          JR	NC,ED96
ED5D 39             ADD	HL,SP
ED5E 30 39          JR	NC,ED99
ED60 39             ADD	HL,SP
ED61 30 39          JR	NC,ED9C
ED63 39             ADD	HL,SP
ED64 30 39          JR	NC,ED9F
ED66 39             ADD	HL,SP
ED67 30 39          JR	NC,EDA2
ED69 39             ADD	HL,SP
ED6A 39             ADD	HL,SP
ED6B 39             ADD	HL,SP
ED6C 39             ADD	HL,SP
ED6D 39             ADD	HL,SP
ED6E 30 39          JR	NC,EDA9
ED70 39             ADD	HL,SP
- 
ED71 39             ADD	HL,SP
ED72 39             ADD	HL,SP
ED73 39             ADD	HL,SP
ED74 39             ADD	HL,SP
ED75 39             ADD	HL,SP
ED76 39             ADD	HL,SP
ED77 39             ADD	HL,SP
ED78 39             ADD	HL,SP
ED79 39             ADD	HL,SP
ED7A 39             ADD	HL,SP
ED7B 39             ADD	HL,SP
ED7C 39             ADD	HL,SP
ED7D 39             ADD	HL,SP
ED7E 39             ADD	HL,SP
ED7F 39             ADD	HL,SP
ED80 39             ADD	HL,SP
ED81 39             ADD	HL,SP
ED82 3A 39 3A       LD	A,(3A39)
ED85 39             ADD	HL,SP
ED86 3A 39 39       LD	A,(3939)
- 
ED89 39             ADD	HL,SP
ED8A 39             ADD	HL,SP
ED8B 39             ADD	HL,SP
ED8C 39             ADD	HL,SP
ED8D 39             ADD	HL,SP
ED8E 39             ADD	HL,SP
ED8F 39             ADD	HL,SP
ED90 39             ADD	HL,SP
ED91 39             ADD	HL,SP
ED92 3A 3A 3A       LD	A,(3A3A)
ED95 3A 3A 39       LD	A,(393A)
ED98 39             ADD	HL,SP
ED99 39             ADD	HL,SP
ED9A 39             ADD	HL,SP
ED9B 39             ADD	HL,SP
ED9C 39             ADD	HL,SP
ED9D 39             ADD	HL,SP
ED9E 39             ADD	HL,SP
ED9F 39             ADD	HL,SP
EDA0 3A 3A 3A       LD	A,(3A3A)
- 
EDA3 3A 3A 2A       LD	A,(2A3A)
EDA6 2A 39 39       LD	HL,(3939)
EDA9 39             ADD	HL,SP
EDAA 39             ADD	HL,SP
EDAB 39             ADD	HL,SP
EDAC 39             ADD	HL,SP
EDAD 39             ADD	HL,SP
EDAE 3A 3A 3A       LD	A,(3A3A)
EDB1 3A 3A 3A       LD	A,(3A3A)
EDB4 2A 2A 2B       LD	HL,(2B2A)
EDB7 39             ADD	HL,SP
EDB8 39             ADD	HL,SP
EDB9 39             ADD	HL,SP
EDBA 39             ADD	HL,SP
EDBB 39             ADD	HL,SP
EDBC 3A 3A 3A       LD	A,(3A3A)
EDBF 3A 3A 3A       LD	A,(3A3A)
EDC2 3A 2A 2A       LD	A,(2A2A)
EDC5 2B             DEC	HL
EDC6 2B             DEC	HL
- 
EDC7 39             ADD	HL,SP
EDC8 39             ADD	HL,SP
EDC9 39             ADD	HL,SP
EDCA 39             ADD	HL,SP
EDCB 3A 3A 3A       LD	A,(3A3A)
EDCE 3A 3A 3A       LD	A,(3A3A)
EDD1 3A 2A 2A       LD	A,(2A2A)
EDD4 2B             DEC	HL
EDD5 2B             DEC	HL
EDD6 2B             DEC	HL
EDD7 39             ADD	HL,SP
EDD8 39             ADD	HL,SP
EDD9 3A 3A 3A       LD	A,(3A3A)
EDDC 3A 3A 3A       LD	A,(3A3A)
EDDF 3A 3A 2A       LD	A,(2A3A)
EDE2 2A 2B 2B       LD	HL,(2B2B)
EDE5 2B             DEC	HL
EDE6 1B             DEC	DE
EDE7 39             ADD	HL,SP
EDE8 3A 3A 3A       LD	A,(3A3A)
- 
EDEB 3A 3A 3A       LD	A,(3A3A)
EDEE 3A 3A 2A       LD	A,(2A3A)
EDF1 2A 2A 2B       LD	HL,(2B2A)
EDF4 2B             DEC	HL
EDF5 2B             DEC	HL
EDF6 1B             DEC	DE
EDF7 3A 3A 3A       LD	A,(3A3A)
EDFA 3A 3A 3A       LD	A,(3A3A)
EDFD 3A 3A 2A       LD	A,(2A3A)
EE00 2A 2A 2B       LD	HL,(2B2A)
EE03 2B             DEC	HL
EE04 2B             DEC	HL
EE05 1B             DEC	DE
EE06 1B             DEC	DE
EE07 3A 3A 3A       LD	A,(3A3A)
EE0A 3A 3A 3A       LD	A,(3A3A)
EE0D 3A 3A 2A       LD	A,(2A3A)
EE10 2A 2A 2B       LD	HL,(2B2A)
EE13 2B             DEC	HL
EE14 2B             DEC	HL
- 
EE15 1B             DEC	DE
EE16 1B             DEC	DE
EE17 3A 3A 3A       LD	A,(3A3A)
EE1A 3A 3A 3A       LD	A,(3A3A)
EE1D 3A 2A 2A       LD	A,(2A2A)
EE20 2A 2B 2B       LD	HL,(2B2B)
EE23 2B             DEC	HL
EE24 2B             DEC	HL
EE25 1B             DEC	DE
EE26 1B             DEC	DE
EE27 3A 3A 3A       LD	A,(3A3A)
EE2A 3A 3A 3A       LD	A,(3A3A)
EE2D 3A 2A 2A       LD	A,(2A2A)
EE30 2A 2B 2B       LD	HL,(2B2B)
EE33 2B             DEC	HL
EE34 2B             DEC	HL
EE35 1B             DEC	DE
EE36 1B             DEC	DE
EE37 3A 3A 3A       LD	A,(3A3A)
EE3A 3A 3A 3A       LD	A,(3A3A)
- 
EE3D 3A 2A 2A       LD	A,(2A2A)
EE40 2A 2B 2B       LD	HL,(2B2B)
EE43 2B             DEC	HL
EE44 1B             DEC	DE
EE45 1B             DEC	DE
EE46 1B             DEC	DE
EE47 21 B9 F0       LD	HL,F0B9
EE4A 22 13 F0       LD	(F013),HL
EE4D 21 15 F0       LD	HL,F015
EE50 74             LD	(HL),H
EE51 C9             RET
EE52 3A 5E AF       LD	A,(AF5E)
EE55 FE 0E          CP	0E
EE57 28 4C          JR	Z,EEA5
EE59 FE 13          CP	13
EE5B 28 40          JR	Z,EE9D
EE5D FE 14          CP	14
EE5F 28 53          JR	Z,EEB4
EE61 FE 16          CP	16
EE63 28 3C          JR	Z,EEA1
- 
EE65 FE 2A          CP	2A
EE67 28 40          JR	Z,EEA9
EE69 FE 2B          CP	2B
EE6B 28 3F          JR	Z,EEAC
EE6D FE 2F          CP	2F
EE6F 28 3F          JR	Z,EEB0
EE71 FE 36          CP	36
EE73 28 43          JR	Z,EEB8
EE75 FE 45          CP	45
EE77 28 43          JR	Z,EEBC
EE79 FE 1F          CP	1F
EE7B 28 43          JR	Z,EEC0
EE7D FE 4D          CP	4D
EE7F 28 43          JR	Z,EEC4
EE81 21 B9 F0       LD	HL,F0B9
EE84 22 13 F0       LD	(F013),HL
EE87 21 C8 EE       LD	HL,EEC8
EE8A 34             INC	(HL)
EE8B 7E             LD	A,(HL)
EE8C E6 03          AND	03
- 
EE8E C0             RET	NZ
EE8F 23             INC	HL
EE90 7E             LD	A,(HL)
EE91 3C             INC	A
EE92 FE 1A          CP	1A
EE94 38 02          JR 	C,EE98
EE96 3E 0E          LD	A,0E
EE98 77             LD	(HL),A
EE99 CD CA EE       CALL	EECA
EE9C C9             RET
EE9D 3E 03          LD	A,03
EE9F 18 29          JR	EECA
EEA1 3E 01          LD	A,01
EEA3 18 25          JR	EECA
EEA5 3E 04          LD	A,04
EEA7 18 21          JR	EECA
EEA9 AF             XOR	A
EEAA 18 1E          JR	EECA
EEAC 3E 0B          LD	A,0B
EEAE 18 1A          JR	EECA
- 
EEB0 3E 07          LD	A,07
EEB2 18 16          JR	EECA
EEB4 3E 08          LD	A,08
EEB6 18 12          JR	EECA
EEB8 3E 09          LD	A,09
EEBA 18 0E          JR	EECA
EEBC 3E 0A          LD	A,0A
EEBE 18 0A          JR	EECA
EEC0 3E 0C          LD	A,0C
EEC2 18 06          JR	EECA
EEC4 3E 1A          LD	A,1A
EEC6 18 02          JR	EECA
EEC8 08             EX	AF,AF'
EEC9 10 21          DJNZ	EEEC
EECB 59             LD	E,C
EECC F5             PUSH	AF
EECD CD 77 AD       CALL	AD77
EED0 5E             LD	E,(HL)
EED1 23             INC	HL
EED2 56             LD	D,(HL)
- 
EED3 ED 53 13 F0    LD	(F013),DE
EED7 C3 4D EE       JP	EE4D
EEDA 3A 15 F0       LD	A,(F015)
EEDD A7             AND	A
EEDE C8             RET	Z
EEDF 21 16 F0       LD	HL,F016
EEE2 34             INC	(HL)
EEE3 7E             LD	A,(HL)
EEE4 E6 03          AND	03
EEE6 C0             RET	NZ
EEE7 2A 13 F0       LD	HL,(F013)
EEEA 7E             LD	A,(HL)
EEEB 23             INC	HL
EEEC 22 13 F0       LD	(F013),HL
EEEF FE 64          CP	64
EEF1 C8             RET	Z
EEF2 FE FF          CP	FF
EEF4 CA F2 EF       JP	Z,EFF2
EEF7 CD 05 F0       CALL	F005
EEFA ED 53 F7 EF    LD	(EFF7),DE
- 
EEFE ED 53 F9 EF    LD	(EFF9),DE
EF02 32 FF EF       LD	(EFFF),A
EF05 32 00 F0       LD	(F000),A
EF08 32 01 F0       LD	(F001),A
EF0B A7             AND	A
EF0C CB 1A          RR	D
EF0E CB 1B          RR	E
EF10 ED 53 FB EF    LD	(EFFB),DE
EF14 1E 3F          LD	E,3F
EF16 3A FF EF       LD	A,(EFFF)
EF19 A7             AND	A
EF1A CA 4A EF       JP	Z,EF4A
EF1D 1D             DEC	E
EF1E AF             XOR	A
EF1F 01 FD FF       LD	BC,FFFD
EF22 ED 79          OUT	(C),A
EF24 3A F7 EF       LD	A,(EFF7)
EF27 01 FD BF       LD	BC,BFFD
EF2A ED 79          OUT	(C),A
EF2C 3E 01          LD	A,01
- 
EF2E 01 FD FF       LD	BC,FFFD
EF31 ED 79          OUT	(C),A
EF33 3A F8 EF       LD	A,(EFF8)
EF36 01 FD BF       LD	BC,BFFD
EF39 ED 79          OUT	(C),A
EF3B 3E 08          LD	A,08
EF3D 01 FD FF       LD	BC,FFFD
EF40 ED 79          OUT	(C),A
EF42 3A FF EF       LD	A,(EFFF)
EF45 01 FD BF       LD	BC,BFFD
EF48 ED 79          OUT	(C),A
EF4A 3A 00 F0       LD	A,(F000)
EF4D A7             AND	A
EF4E CA 80 EF       JP	Z,EF80
EF51 1D             DEC	E
EF52 1D             DEC	E
EF53 3E 02          LD	A,02
EF55 01 FD FF       LD	BC,FFFD
EF58 ED 79          OUT	(C),A
EF5A 3A F9 EF       LD	A,(EFF9)
- 
EF5D 01 FD BF       LD	BC,BFFD
EF60 ED 79          OUT	(C),A
EF62 3E 03          LD	A,03
EF64 01 FD FF       LD	BC,FFFD
EF67 ED 79          OUT	(C),A
EF69 3A FA EF       LD	A,(EFFA)
EF6C 01 FD BF       LD	BC,BFFD
EF6F ED 79          OUT	(C),A
EF71 3E 09          LD	A,09
EF73 01 FD FF       LD	BC,FFFD
EF76 ED 79          OUT	(C),A
EF78 3A 00 F0       LD	A,(F000)
EF7B 01 FD BF       LD	BC,BFFD
EF7E ED 79          OUT	(C),A
EF80 3A 01 F0       LD	A,(F001)
EF83 A7             AND	A
EF84 CA B8 EF       JP	Z,EFB8
EF87 7B             LD	A,E
EF88 D6 04          SUB	04
EF8A 5F             LD	E,A
- 
EF8B 3E 04          LD	A,04
EF8D 01 FD FF       LD	BC,FFFD
EF90 ED 79          OUT	(C),A
EF92 3A FB EF       LD	A,(EFFB)
EF95 01 FD BF       LD	BC,BFFD
EF98 ED 79          OUT	(C),A
EF9A 3E 05          LD	A,05
EF9C 01 FD FF       LD	BC,FFFD
EF9F ED 79          OUT	(C),A
EFA1 3A FC EF       LD	A,(EFFC)
EFA4 01 FD BF       LD	BC,BFFD
EFA7 ED 79          OUT	(C),A
EFA9 3E 0A          LD	A,0A
EFAB 01 FD FF       LD	BC,FFFD
EFAE ED 79          OUT	(C),A
EFB0 3A 01 F0       LD	A,(F001)
EFB3 01 FD BF       LD	BC,BFFD
EFB6 ED 79          OUT	(C),A
EFB8 3E 07          LD	A,07
EFBA 01 FD FF       LD	BC,FFFD
- 
EFBD ED 79          OUT	(C),A
EFBF 7B             LD	A,E
EFC0 01 FD BF       LD	BC,BFFD
EFC3 ED 79          OUT	(C),A
EFC5 3E 0B          LD	A,0B
EFC7 01 FD FF       LD	BC,FFFD
EFCA ED 79          OUT	(C),A
EFCC 3A 02 F0       LD	A,(F002)
EFCF 01 FD BF       LD	BC,BFFD
EFD2 ED 79          OUT	(C),A
EFD4 3E 0C          LD	A,0C
EFD6 01 FD FF       LD	BC,FFFD
EFD9 ED 79          OUT	(C),A
EFDB 3A 03 F0       LD	A,(F003)
EFDE 01 FD BF       LD	BC,BFFD
EFE1 ED 79          OUT	(C),A
EFE3 3E 0D          LD	A,0D
EFE5 01 FD FF       LD	BC,FFFD
EFE8 ED 79          OUT	(C),A
EFEA 3E 00          LD	A,00
- 
EFEC 01 FD BF       LD	BC,BFFD
EFEF ED 79          OUT	(C),A
EFF1 C9             RET
EFF2 AF             XOR	A
EFF3 32 15 F0       LD	(F015),A
EFF6 C9             RET
EFF7 DC 01 DC       CALL	C,DC01
EFFA 01 EE 00       LD	BC,00EE
EFFD 00             NOP
EFFE 38 10          JR 	C,F010
F000 10 10          DJNZ	F012
F002 58             LD	E,B
F003 1B             DEC	DE
F004 00             NOP
F005 07             RLCA
F006 5F             LD	E,A
F007 16 00          LD	D,00
F009 21 17 F0       LD	HL,F017
F00C 19             ADD	HL,DE
F00D 5E             LD	E,(HL)
- 
F00E 23             INC	HL
F00F 56             LD	D,(HL)
F010 3E 10          LD	A,10
F012 C9             RET
F013 76             HALT
F014 F3             DI
F015 F0             RET	P
F016 2E 9F          LD	L,9F
F018 06 3F          LD	B,3F
F01A 06 E6          LD	B,E6
F01C 05             DEC	B
F01D 91             SUB	C
F01E 05             DEC	B
F01F 41             LD	B,C
F020 05             DEC	B
F021 F5             PUSH	AF
F022 04             INC	B
F023 AE             XOR	(HL)
F024 04             INC	B
F025 6B             LD	L,E
- 
F026 04             INC	B
F027 2B             DEC	HL
F028 04             INC	B
F029 F0             RET	P
F02A 03             INC	BC
F02B B7             OR	A
F02C 03             INC	BC
F02D 82             ADD	A,D
F02E 03             INC	BC
F02F 4F             LD	C,A
F030 03             INC	BC
F031 20 03          JR	NZ,F036
F033 F3             DI
F034 02             LD	(BC),A
F035 C9             RET
F036 02             LD	(BC),A
F037 A1             AND	C
F038 02             LD	(BC),A
F039 7B             LD	A,E
F03A 02             LD	(BC),A
- 
F03B 57             LD	D,A
F03C 02             LD	(BC),A
F03D 35             DEC	(HL)
F03E 02             LD	(BC),A
F03F 16 02          LD	D,02
F041 F8             RET	M
F042 01 DC 01       LD	BC,01DC
F045 C1             POP	BC
F046 01 A8 01       LD	BC,01A8
F049 90             SUB	B
F04A 01 79 01       LD	BC,0179
F04D 64             LD	H,H
F04E 01 50 01       LD	BC,0150
F051 3D             DEC	A
F052 01 2C 01       LD	BC,012C
F055 1B             DEC	DE
F056 01 0B 01       LD	BC,010B
F059 FC 00 EE       CALL	M,EE00
F05C 00             NOP
F05D E0             RET	PO
- 
F05E 00             NOP
F05F D4 00 C8       CALL	NC,C800
F062 00             NOP
F063 BD             CP	L
F064 00             NOP
F065 B2             OR	D
F066 00             NOP
F067 A8             XOR	B
F068 00             NOP
F069 9F             SBC	A,A
F06A 00             NOP
F06B 96             SUB	(HL)
F06C 00             NOP
F06D 8D             ADC	A,L
F06E 00             NOP
F06F 85             ADD	A,L
F070 00             NOP
F071 7E             LD	A,(HL)
F072 00             NOP
F073 77             LD	(HL),A
- 
F074 00             NOP
F075 70             LD	(HL),B
F076 00             NOP
F077 6A             LD	L,D
F078 00             NOP
F079 64             LD	H,H
F07A 00             NOP
F07B 5E             LD	E,(HL)
F07C 00             NOP
F07D 59             LD	E,C
F07E 00             NOP
F07F 54             LD	D,H
F080 00             NOP
F081 13             INC	DE
F082 64             LD	H,H
F083 64             LD	H,H
F084 64             LD	H,H
F085 13             INC	DE
F086 64             LD	H,H
F087 64             LD	H,H
- 
F088 11 0F 64       LD	DE,640F
F08B 0A             LD	A,(BC)
F08C 64             LD	H,H
F08D 0F             RRCA
F08E 64             LD	H,H
F08F 13             INC	DE
F090 64             LD	H,H
F091 18 64          JR	F0F7
F093 64             LD	H,H
F094 64             LD	H,H
F095 64             LD	H,H
F096 64             LD	H,H
F097 64             LD	H,H
F098 64             LD	H,H
F099 16 64          LD	D,64
F09B 64             LD	H,H
F09C 64             LD	H,H
F09D 64             LD	H,H
F09E 64             LD	H,H
F09F 64             LD	H,H
- 
F0A0 64             LD	H,H
F0A1 13             INC	DE
F0A2 64             LD	H,H
F0A3 64             LD	H,H
F0A4 64             LD	H,H
F0A5 13             INC	DE
F0A6 64             LD	H,H
F0A7 64             LD	H,H
F0A8 14             INC	D
F0A9 16 64          LD	D,64
F0AB 13             INC	DE
F0AC 64             LD	H,H
F0AD 0F             RRCA
F0AE 64             LD	H,H
F0AF 13             INC	DE
F0B0 64             LD	H,H
F0B1 11 64 64       LD	DE,6464
F0B4 64             LD	H,H
F0B5 64             LD	H,H
F0B6 64             LD	H,H
- 
F0B7 64             LD	H,H
F0B8 64             LD	H,H
F0B9 FF             RST	38
F0BA 05             DEC	B
F0BB 07             RLCA
F0BC 09             ADD	HL,BC
F0BD 64             LD	H,H
F0BE 09             ADD	HL,BC
F0BF 64             LD	H,H
F0C0 09             ADD	HL,BC
F0C1 64             LD	H,H
F0C2 09             ADD	HL,BC
F0C3 64             LD	H,H
F0C4 07             RLCA
F0C5 64             LD	H,H
F0C6 05             DEC	B
F0C7 64             LD	H,H
F0C8 05             DEC	B
F0C9 64             LD	H,H
F0CA 05             DEC	B
- 
F0CB 64             LD	H,H
F0CC 64             LD	H,H
F0CD 64             LD	H,H
F0CE 64             LD	H,H
F0CF 64             LD	H,H
F0D0 0E 64          LD	C,64
F0D2 0A             LD	A,(BC)
F0D3 0C             INC	C
F0D4 64             LD	H,H
F0D5 64             LD	H,H
F0D6 64             LD	H,H
F0D7 64             LD	H,H
F0D8 64             LD	H,H
F0D9 64             LD	H,H
F0DA 64             LD	H,H
F0DB FF             RST	38
F0DC 23             INC	HL
F0DD 22 23 20       LD	(2023),HL
F0E0 1F             RRA
F0E1 20 1C          JR	NZ,F0FF
- 
F0E3 1B             DEC	DE
F0E4 1C             INC	E
F0E5 17             RLA
F0E6 64             LD	H,H
F0E7 64             LD	H,H
F0E8 14             INC	D
F0E9 15             DEC	D
F0EA 17             RLA
F0EB 19             ADD	HL,DE
F0EC 1B             DEC	DE
F0ED 1C             INC	E
F0EE 1E 20          LD	E,20
F0F0 21 1E FF       LD	HL,FF1E
F0F3 0A             LD	A,(BC)
F0F4 0F             RRCA
F0F5 11 13 64       LD	DE,6413
F0F8 0F             RRCA
F0F9 11 64 0F       LD	DE,0F64
F0FC 0E 0C          LD	C,0C
F0FE 0A             LD	A,(BC)
- 
F0FF 64             LD	H,H
F100 0F             RRCA
F101 07             RLCA
F102 64             LD	H,H
F103 07             RLCA
F104 08             EX	AF,AF'
F105 09             ADD	HL,BC
F106 0A             LD	A,(BC)
F107 08             EX	AF,AF'
F108 07             RLCA
F109 05             DEC	B
F10A 03             INC	BC
F10B 02             LD	(BC),A
F10C 03             INC	BC
F10D 05             DEC	B
F10E 07             RLCA
F10F 64             LD	H,H
F110 64             LD	H,H
F111 64             LD	H,H
F112 64             LD	H,H
- 
F113 0A             LD	A,(BC)
F114 0F             RRCA
F115 11 13 64       LD	DE,6413
F118 0F             RRCA
F119 11 64 0F       LD	DE,0F64
F11C 0E 0C          LD	C,0C
F11E 0A             LD	A,(BC)
F11F 64             LD	H,H
F120 0F             RRCA
F121 07             RLCA
F122 64             LD	H,H
F123 07             RLCA
F124 08             EX	AF,AF'
F125 09             ADD	HL,BC
F126 0A             LD	A,(BC)
F127 08             EX	AF,AF'
F128 07             RLCA
F129 05             DEC	B
F12A 03             INC	BC
F12B 02             LD	(BC),A
- 
F12C 00             NOP
F12D 02             LD	(BC),A
F12E 03             INC	BC
F12F FF             RST	38
F130 0C             INC	C
F131 0A             LD	A,(BC)
F132 08             EX	AF,AF'
F133 08             EX	AF,AF'
F134 08             EX	AF,AF'
F135 0D             DEC	C
F136 64             LD	H,H
F137 0F             RRCA
F138 11 64 64       LD	DE,6464
F13B 64             LD	H,H
F13C 0D             DEC	C
F13D 0F             RRCA
F13E 11 11 11       LD	DE,1111
F141 12             LD	(DE),A
F142 64             LD	H,H
F143 11 0F 64       LD	DE,640F
- 
F146 64             LD	H,H
F147 64             LD	H,H
F148 FF             RST	38
F149 0E 64          LD	C,64
F14B 0E 0E          LD	C,0E
F14D 0E 64          LD	C,64
F14F 0E 64          LD	C,64
F151 13             INC	DE
F152 64             LD	H,H
F153 17             RLA
F154 64             LD	H,H
F155 1A             LD	A,(DE)
F156 64             LD	H,H
F157 64             LD	H,H
F158 64             LD	H,H
F159 1A             LD	A,(DE)
F15A 64             LD	H,H
F15B 17             RLA
F15C 17             RLA
F15D 15             DEC	D
- 
F15E 64             LD	H,H
F15F 17             RLA
F160 64             LD	H,H
F161 13             INC	DE
F162 FF             RST	38
F163 08             EX	AF,AF'
F164 64             LD	H,H
F165 09             ADD	HL,BC
F166 64             LD	H,H
F167 0B             DEC	BC
F168 64             LD	H,H
F169 10 0B          DJNZ	F176
F16B 64             LD	H,H
F16C 10 0B          DJNZ	F179
F16E 10 0B          DJNZ	F17B
F170 64             LD	H,H
F171 12             LD	(DE),A
F172 64             LD	H,H
F173 64             LD	H,H
F174 64             LD	H,H
- 
F175 0B             DEC	BC
F176 64             LD	H,H
F177 64             LD	H,H
F178 64             LD	H,H
F179 10 64          DJNZ	F1DF
F17B 64             LD	H,H
F17C 64             LD	H,H
F17D 64             LD	H,H
F17E 64             LD	H,H
F17F 64             LD	H,H
F180 64             LD	H,H
F181 64             LD	H,H
F182 64             LD	H,H
F183 64             LD	H,H
F184 08             EX	AF,AF'
F185 64             LD	H,H
F186 0B             DEC	BC
F187 64             LD	H,H
F188 0D             DEC	C
F189 64             LD	H,H
- 
F18A 10 0D          DJNZ	F199
F18C 64             LD	H,H
F18D 10 0D          DJNZ	F19C
F18F 10 0D          DJNZ	F19E
F191 64             LD	H,H
F192 12             LD	(DE),A
F193 64             LD	H,H
F194 64             LD	H,H
F195 64             LD	H,H
F196 0B             DEC	BC
F197 FF             RST	38
F198 13             INC	DE
F199 64             LD	H,H
F19A 64             LD	H,H
F19B 11 64 64       LD	DE,6464
F19E 16 64          LD	D,64
F1A0 13             INC	DE
F1A1 64             LD	H,H
F1A2 64             LD	H,H
F1A3 11 64 64       LD	DE,6464
- 
F1A6 0F             RRCA
F1A7 64             LD	H,H
F1A8 11 64 64       LD	DE,6464
F1AB 0E 64          LD	C,64
F1AD 64             LD	H,H
F1AE 0A             LD	A,(BC)
F1AF 64             LD	H,H
F1B0 64             LD	H,H
F1B1 64             LD	H,H
F1B2 64             LD	H,H
F1B3 64             LD	H,H
F1B4 64             LD	H,H
F1B5 64             LD	H,H
F1B6 64             LD	H,H
F1B7 64             LD	H,H
F1B8 0F             RRCA
F1B9 64             LD	H,H
F1BA 64             LD	H,H
F1BB 0E 64          LD	C,64
F1BD 64             LD	H,H
- 
F1BE 11 64 0F       LD	DE,0F64
F1C1 64             LD	H,H
F1C2 64             LD	H,H
F1C3 0E 64          LD	C,64
F1C5 64             LD	H,H
F1C6 07             RLCA
F1C7 64             LD	H,H
F1C8 0E 64          LD	C,64
F1CA 64             LD	H,H
F1CB 0C             INC	C
F1CC 64             LD	H,H
F1CD 64             LD	H,H
F1CE 64             LD	H,H
F1CF 64             LD	H,H
F1D0 64             LD	H,H
F1D1 64             LD	H,H
F1D2 64             LD	H,H
F1D3 64             LD	H,H
F1D4 64             LD	H,H
F1D5 64             LD	H,H
- 
F1D6 64             LD	H,H
F1D7 64             LD	H,H
F1D8 FF             RST	38
F1D9 13             INC	DE
F1DA 13             INC	DE
F1DB 13             INC	DE
F1DC 13             INC	DE
F1DD 13             INC	DE
F1DE 13             INC	DE
F1DF 11 0F 0E       LD	DE,0E0F
F1E2 11 64 11       LD	DE,1164
F1E5 64             LD	H,H
F1E6 64             LD	H,H
F1E7 64             LD	H,H
F1E8 64             LD	H,H
F1E9 64             LD	H,H
F1EA 14             INC	D
F1EB 14             INC	D
F1EC 14             INC	D
F1ED 14             INC	D
- 
F1EE 14             INC	D
F1EF 14             INC	D
F1F0 13             INC	DE
F1F1 11 0F 64       LD	DE,640F
F1F4 64             LD	H,H
F1F5 64             LD	H,H
F1F6 64             LD	H,H
F1F7 64             LD	H,H
F1F8 64             LD	H,H
F1F9 64             LD	H,H
F1FA 16 16          LD	D,16
F1FC 16 16          LD	D,16
F1FE 16 16          LD	D,16
F200 14             INC	D
F201 13             INC	DE
F202 14             INC	D
F203 16 64          LD	D,64
F205 18 64          JR	F26B
F207 18 16          JR	F21F
F209 14             INC	D
- 
F20A 13             INC	DE
F20B 16 14          LD	D,14
F20D 13             INC	DE
F20E 11 14 13       LD	DE,1314
F211 11 0F FF       LD	DE,FF0F
F214 05             DEC	B
F215 64             LD	H,H
F216 0A             LD	A,(BC)
F217 0E 64          LD	C,64
F219 64             LD	H,H
F21A 64             LD	H,H
F21B 64             LD	H,H
F21C 64             LD	H,H
F21D 0E 64          LD	C,64
F21F 64             LD	H,H
F220 64             LD	H,H
F221 64             LD	H,H
F222 64             LD	H,H
F223 0E 64          LD	C,64
F225 0C             INC	C
- 
F226 0A             LD	A,(BC)
F227 64             LD	H,H
F228 07             RLCA
F229 05             DEC	B
F22A 64             LD	H,H
F22B 64             LD	H,H
F22C 05             DEC	B
F22D 64             LD	H,H
F22E 0E 0C          LD	C,0C
F230 64             LD	H,H
F231 64             LD	H,H
F232 64             LD	H,H
F233 64             LD	H,H
F234 64             LD	H,H
F235 64             LD	H,H
F236 64             LD	H,H
F237 64             LD	H,H
F238 0A             LD	A,(BC)
F239 64             LD	H,H
F23A 0C             INC	C
- 
F23B 0E 64          LD	C,64
F23D 64             LD	H,H
F23E 64             LD	H,H
F23F 64             LD	H,H
F240 64             LD	H,H
F241 64             LD	H,H
F242 64             LD	H,H
F243 64             LD	H,H
F244 FF             RST	38
F245 1D             DEC	E
F246 64             LD	H,H
F247 1D             DEC	E
F248 64             LD	H,H
F249 64             LD	H,H
F24A 64             LD	H,H
F24B 18 64          JR	F2B1
F24D 1A             LD	A,(DE)
F24E 64             LD	H,H
F24F 64             LD	H,H
F250 64             LD	H,H
- 
F251 64             LD	H,H
F252 64             LD	H,H
F253 1D             DEC	E
F254 64             LD	H,H
F255 16 64          LD	D,64
F257 16 64          LD	D,64
F259 64             LD	H,H
F25A 64             LD	H,H
F25B 18 16          JR	F273
F25D 15             DEC	D
F25E 64             LD	H,H
F25F 64             LD	H,H
F260 64             LD	H,H
F261 64             LD	H,H
F262 64             LD	H,H
F263 13             INC	DE
F264 64             LD	H,H
F265 11 64 0E       LD	DE,0E64
F268 64             LD	H,H
F269 64             LD	H,H
- 
F26A 64             LD	H,H
F26B 64             LD	H,H
F26C 64             LD	H,H
F26D 0E 64          LD	C,64
F26F 11 64 64       LD	DE,6464
F272 64             LD	H,H
F273 0E 64          LD	C,64
F275 10 64          DJNZ	F2DB
F277 64             LD	H,H
F278 64             LD	H,H
F279 13             INC	DE
F27A 64             LD	H,H
F27B 64             LD	H,H
F27C 64             LD	H,H
F27D FF             RST	38
F27E 04             INC	B
F27F 64             LD	H,H
F280 06 08          LD	B,08
F282 64             LD	H,H
F283 06 64          LD	B,64
- 
F285 08             EX	AF,AF'
F286 09             ADD	HL,BC
F287 64             LD	H,H
F288 08             EX	AF,AF'
F289 06 64          LD	B,64
F28B 04             INC	B
F28C 64             LD	H,H
F28D 06 08          LD	B,08
F28F 64             LD	H,H
F290 06 64          LD	B,64
F292 04             INC	B
F293 64             LD	H,H
F294 08             EX	AF,AF'
F295 06 64          LD	B,64
F297 64             LD	H,H
F298 64             LD	H,H
F299 64             LD	H,H
F29A 64             LD	H,H
F29B 64             LD	H,H
F29C 64             LD	H,H
- 
F29D FF             RST	38
F29E 0C             INC	C
F29F 64             LD	H,H
F2A0 64             LD	H,H
F2A1 64             LD	H,H
F2A2 0D             DEC	C
F2A3 64             LD	H,H
F2A4 64             LD	H,H
F2A5 64             LD	H,H
F2A6 0C             INC	C
F2A7 64             LD	H,H
F2A8 0A             LD	A,(BC)
F2A9 08             EX	AF,AF'
F2AA 64             LD	H,H
F2AB 64             LD	H,H
F2AC 64             LD	H,H
F2AD 64             LD	H,H
F2AE 0F             RRCA
F2AF 64             LD	H,H
F2B0 0F             RRCA
- 
F2B1 0F             RRCA
F2B2 64             LD	H,H
F2B3 64             LD	H,H
F2B4 11 64 0F       LD	DE,0F64
F2B7 64             LD	H,H
F2B8 0D             DEC	C
F2B9 0D             DEC	C
F2BA 64             LD	H,H
F2BB 64             LD	H,H
F2BC 64             LD	H,H
F2BD 0A             LD	A,(BC)
F2BE 0C             INC	C
F2BF 64             LD	H,H
F2C0 0C             INC	C
F2C1 64             LD	H,H
F2C2 0C             INC	C
F2C3 64             LD	H,H
F2C4 0D             DEC	C
F2C5 64             LD	H,H
F2C6 0C             INC	C
- 
F2C7 64             LD	H,H
F2C8 0A             LD	A,(BC)
F2C9 0C             INC	C
F2CA 64             LD	H,H
F2CB 0A             LD	A,(BC)
F2CC 64             LD	H,H
F2CD 64             LD	H,H
F2CE 05             DEC	B
F2CF 64             LD	H,H
F2D0 08             EX	AF,AF'
F2D1 64             LD	H,H
F2D2 08             EX	AF,AF'
F2D3 64             LD	H,H
F2D4 0A             LD	A,(BC)
F2D5 64             LD	H,H
F2D6 0C             INC	C
F2D7 64             LD	H,H
F2D8 0A             LD	A,(BC)
F2D9 64             LD	H,H
F2DA 08             EX	AF,AF'
- 
F2DB 64             LD	H,H
F2DC 0A             LD	A,(BC)
F2DD 64             LD	H,H
F2DE 08             EX	AF,AF'
F2DF 64             LD	H,H
F2E0 FF             RST	38
F2E1 0F             RRCA
F2E2 64             LD	H,H
F2E3 0A             LD	A,(BC)
F2E4 0D             DEC	C
F2E5 0F             RRCA
F2E6 64             LD	H,H
F2E7 0A             LD	A,(BC)
F2E8 0D             DEC	C
F2E9 0F             RRCA
F2EA 12             LD	(DE),A
F2EB 0A             LD	A,(BC)
F2EC 12             LD	(DE),A
F2ED 0F             RRCA
F2EE 64             LD	H,H
- 
F2EF 64             LD	H,H
F2F0 64             LD	H,H
F2F1 FF             RST	38
F2F2 19             ADD	HL,DE
F2F3 16 19          LD	D,19
F2F5 64             LD	H,H
F2F6 12             LD	(DE),A
F2F7 64             LD	H,H
F2F8 64             LD	H,H
F2F9 64             LD	H,H
F2FA 12             LD	(DE),A
F2FB 0F             RRCA
F2FC 14             INC	D
F2FD 64             LD	H,H
F2FE 64             LD	H,H
F2FF 64             LD	H,H
F300 64             LD	H,H
F301 64             LD	H,H
F302 0D             DEC	C
F303 11 14 17       LD	DE,1714
- 
F306 64             LD	H,H
F307 16 14          LD	D,14
F309 64             LD	H,H
F30A 16 64          LD	D,64
F30C 64             LD	H,H
F30D 64             LD	H,H
F30E 64             LD	H,H
F30F 64             LD	H,H
F310 64             LD	H,H
F311 19             ADD	HL,DE
F312 16 19          LD	D,19
F314 64             LD	H,H
F315 12             LD	(DE),A
F316 64             LD	H,H
F317 64             LD	H,H
F318 64             LD	H,H
F319 12             LD	(DE),A
F31A 14             INC	D
F31B 17             RLA
F31C 64             LD	H,H
- 
F31D 64             LD	H,H
F31E 64             LD	H,H
F31F 64             LD	H,H
F320 64             LD	H,H
F321 11 0F 0D       LD	DE,0D0F
F324 17             RLA
F325 64             LD	H,H
F326 16 14          LD	D,14
F328 64             LD	H,H
F329 12             LD	(DE),A
F32A FF             RST	38
F32B 0C             INC	C
F32C 0B             DEC	BC
F32D 0C             INC	C
F32E 0B             DEC	BC
F32F 0C             INC	C
F330 64             LD	H,H
F331 0B             DEC	BC
F332 64             LD	H,H
F333 0E 64          LD	C,64
- 
F335 0C             INC	C
F336 64             LD	H,H
F337 64             LD	H,H
F338 64             LD	H,H
F339 64             LD	H,H
F33A 64             LD	H,H
F33B 11 10 11       LD	DE,1110
F33E 10 11          DJNZ	F351
F340 10 0E          DJNZ	F350
F342 0C             INC	C
F343 0C             INC	C
F344 64             LD	H,H
F345 64             LD	H,H
F346 64             LD	H,H
F347 0B             DEC	BC
F348 FF             RST	38
F349 0C             INC	C
F34A 11 15 16       LD	DE,1615 ; LD	DE,CHAN_FLAG
F34D 13             INC	DE
F34E 15             DEC	D
- 
F34F 64             LD	H,H
F350 11 64 0E       LD	DE,0E64
F353 64             LD	H,H
F354 0C             INC	C
F355 0E 0C          LD	C,0C
F357 64             LD	H,H
F358 64             LD	H,H
F359 0C             INC	C
F35A 11 15 16       LD	DE,1615 ; LD	DE,CHAN_FLAG
F35D 13             INC	DE
F35E 15             DEC	D
F35F 64             LD	H,H
F360 11 64 0E       LD	DE,0E64
F363 64             LD	H,H
F364 0C             INC	C
F365 0E 11          LD	C,11
F367 64             LD	H,H
F368 64             LD	H,H
F369 0C             INC	C
F36A 64             LD	H,H
- 
F36B 64             LD	H,H
F36C 64             LD	H,H
F36D 0E 64          LD	C,64
F36F 0E 64          LD	C,64
F371 64             LD	H,H
F372 64             LD	H,H
F373 11 64 16       LD	DE,1664 ; LD	DE,POINTERS
F376 15             DEC	D
F377 64             LD	H,H
F378 64             LD	H,H
F379 64             LD	H,H
F37A 64             LD	H,H
F37B FF             RST	38
F37C 1E 64          LD	E,64
F37E 1B             DEC	DE
F37F 64             LD	H,H
F380 19             ADD	HL,DE
F381 64             LD	H,H
F382 64             LD	H,H
F383 1E 64          LD	E,64
- 
F385 1E 1B          LD	E,1B
F387 64             LD	H,H
F388 19             ADD	HL,DE
F389 64             LD	H,H
F38A 64             LD	H,H
F38B 64             LD	H,H
F38C 1E 64          LD	E,64
F38E 1B             DEC	DE
F38F 64             LD	H,H
F390 19             ADD	HL,DE
F391 64             LD	H,H
F392 64             LD	H,H
F393 16 64          LD	D,64
F395 16 14          LD	D,14
F397 64             LD	H,H
F398 12             LD	(DE),A
F399 64             LD	H,H
F39A 64             LD	H,H
F39B 64             LD	H,H
F39C 1E 64          LD	E,64
- 
F39E 1B             DEC	DE
F39F 64             LD	H,H
F3A0 19             ADD	HL,DE
F3A1 64             LD	H,H
F3A2 64             LD	H,H
F3A3 16 64          LD	D,64
F3A5 16 14          LD	D,14
F3A7 64             LD	H,H
F3A8 12             LD	(DE),A
F3A9 FF             RST	38
F3AA 0F             RRCA
F3AB 11 64 13       LD	DE,1364
F3AE 64             LD	H,H
F3AF 11 0F 64       LD	DE,640F
F3B2 0D             DEC	C
F3B3 64             LD	H,H
F3B4 0C             INC	C
F3B5 64             LD	H,H
F3B6 0F             RRCA
F3B7 64             LD	H,H
- 
F3B8 64             LD	H,H
F3B9 64             LD	H,H
F3BA 0F             RRCA
F3BB 64             LD	H,H
F3BC 11 0F 64       LD	DE,640F
F3BF 0D             DEC	C
F3C0 0C             INC	C
F3C1 64             LD	H,H
F3C2 0A             LD	A,(BC)
F3C3 08             EX	AF,AF'
F3C4 64             LD	H,H
F3C5 0C             INC	C
F3C6 64             LD	H,H
F3C7 0F             RRCA
F3C8 64             LD	H,H
F3C9 11 64 64       LD	DE,6464
F3CC 64             LD	H,H
F3CD 13             INC	DE
F3CE 11 0F 0D       LD	DE,0D0F
F3D1 64             LD	H,H
- 
F3D2 0C             INC	C
F3D3 64             LD	H,H
F3D4 11 64 64       LD	DE,6464
F3D7 64             LD	H,H
F3D8 0F             RRCA
F3D9 64             LD	H,H
F3DA 11 0F 64       LD	DE,640F
F3DD 0D             DEC	C
F3DE 0C             INC	C
F3DF 64             LD	H,H
F3E0 0A             LD	A,(BC)
F3E1 08             EX	AF,AF'
F3E2 FF             RST	38
F3E3 13             INC	DE
F3E4 64             LD	H,H
F3E5 13             INC	DE
F3E6 13             INC	DE
F3E7 13             INC	DE
F3E8 13             INC	DE
F3E9 11 10 11       LD	DE,1110
- 
F3EC 10 64          DJNZ	F452
F3EE 07             RLCA
F3EF 64             LD	H,H
F3F0 11 10 11       LD	DE,1110
F3F3 13             INC	DE
F3F4 64             LD	H,H
F3F5 18 64          JR	F45B
F3F7 13             INC	DE
F3F8 64             LD	H,H
F3F9 64             LD	H,H
F3FA 11 10 0C       LD	DE,0C10 ; LD	DE,PO_TOKENS
F3FD 0C             INC	C
F3FE 0C             INC	C
F3FF 0C             INC	C
F400 64             LD	H,H
F401 64             LD	H,H
F402 64             LD	H,H
F403 FF             RST	38
F404 0C             INC	C
F405 64             LD	H,H
- 
F406 64             LD	H,H
F407 0B             DEC	BC
F408 64             LD	H,H
F409 0C             INC	C
F40A 14             INC	D
F40B 14             INC	D
F40C 14             INC	D
F40D 13             INC	DE
F40E 64             LD	H,H
F40F 11 0C 64       LD	DE,640C
F412 0B             DEC	BC
F413 0C             INC	C
F414 64             LD	H,H
F415 64             LD	H,H
F416 64             LD	H,H
F417 64             LD	H,H
F418 64             LD	H,H
F419 64             LD	H,H
F41A 64             LD	H,H
F41B 64             LD	H,H
- 
F41C 0C             INC	C
F41D 64             LD	H,H
F41E 0C             INC	C
F41F 0B             DEC	BC
F420 64             LD	H,H
F421 0C             INC	C
F422 14             INC	D
F423 64             LD	H,H
F424 14             INC	D
F425 13             INC	DE
F426 64             LD	H,H
F427 11 0D 64       LD	DE,640D
F42A 64             LD	H,H
F42B 64             LD	H,H
F42C FF             RST	38
F42D 0F             RRCA
F42E 0E 11          LD	C,11
F430 0F             RRCA
F431 0D             DEC	C
F432 0C             INC	C
- 
F433 0C             INC	C
F434 0B             DEC	BC
F435 0D             DEC	C
F436 0C             INC	C
F437 0A             LD	A,(BC)
F438 08             EX	AF,AF'
F439 07             RLCA
F43A 64             LD	H,H
F43B 05             DEC	B
F43C 07             RLCA
F43D 64             LD	H,H
F43E 05             DEC	B
F43F 07             RLCA
F440 64             LD	H,H
F441 64             LD	H,H
F442 64             LD	H,H
F443 64             LD	H,H
F444 64             LD	H,H
F445 11 10 13       LD	DE,1310
F448 11 0D 0C       LD	DE,0C0D
- 
F44B 0D             DEC	C
F44C 0C             INC	C
F44D 0F             RRCA
F44E 0D             DEC	C
F44F 0A             LD	A,(BC)
F450 07             RLCA
F451 08             EX	AF,AF'
F452 64             LD	H,H
F453 07             RLCA
F454 08             EX	AF,AF'
F455 64             LD	H,H
F456 0C             INC	C
F457 0F             RRCA
F458 64             LD	H,H
F459 64             LD	H,H
F45A 64             LD	H,H
F45B 64             LD	H,H
F45C 64             LD	H,H
F45D FF             RST	38
F45E 0B             DEC	BC
- 
F45F 0B             DEC	BC
F460 0B             DEC	BC
F461 0B             DEC	BC
F462 64             LD	H,H
F463 0B             DEC	BC
F464 0B             DEC	BC
F465 0B             DEC	BC
F466 0D             DEC	C
F467 10 0D          DJNZ	F476
F469 0B             DEC	BC
F46A 64             LD	H,H
F46B 0F             RRCA
F46C 12             LD	(DE),A
F46D 0F             RRCA
F46E 10 14          DJNZ	F484
F470 64             LD	H,H
F471 0B             DEC	BC
F472 64             LD	H,H
F473 64             LD	H,H
F474 64             LD	H,H
- 
F475 64             LD	H,H
F476 64             LD	H,H
F477 64             LD	H,H
F478 10 64          DJNZ	F4DE
F47A 0B             DEC	BC
F47B 64             LD	H,H
F47C 64             LD	H,H
F47D 64             LD	H,H
F47E FF             RST	38
F47F 0C             INC	C
F480 09             ADD	HL,BC
F481 05             DEC	B
F482 05             DEC	B
F483 09             ADD	HL,BC
F484 0A             LD	A,(BC)
F485 0C             INC	C
F486 64             LD	H,H
F487 0E 10          LD	C,10
F489 11 11 13       LD	DE,1311
F48C 15             DEC	D
- 
F48D 11 64 13       LD	DE,1364
F490 15             DEC	D
F491 11 64 13       LD	DE,1364
F494 15             DEC	D
F495 13             INC	DE
F496 11 0E 64       LD	DE,640E
F499 0C             INC	C
F49A 64             LD	H,H
F49B 64             LD	H,H
F49C 64             LD	H,H
F49D 64             LD	H,H
F49E 64             LD	H,H
F49F FF             RST	38
F4A0 09             ADD	HL,BC
F4A1 64             LD	H,H
F4A2 0C             INC	C
F4A3 0A             LD	A,(BC)
F4A4 64             LD	H,H
F4A5 0E 0C          LD	C,0C
F4A7 0E 10          LD	C,10
- 
F4A9 11 64 64       LD	DE,6464
F4AC 09             ADD	HL,BC
F4AD 64             LD	H,H
F4AE 0C             INC	C
F4AF 0A             LD	A,(BC)
F4B0 64             LD	H,H
F4B1 0E 0C          LD	C,0C
F4B3 09             ADD	HL,BC
F4B4 05             DEC	B
F4B5 07             RLCA
F4B6 64             LD	H,H
F4B7 64             LD	H,H
F4B8 09             ADD	HL,BC
F4B9 09             ADD	HL,BC
F4BA 0C             INC	C
F4BB 0A             LD	A,(BC)
F4BC 0A             LD	A,(BC)
F4BD 0E 0C          LD	C,0C
F4BF 0E 10          LD	C,10
F4C1 11 64 64       LD	DE,6464
- 
F4C4 15             DEC	D
F4C5 15             DEC	D
F4C6 11 16 16       LD	DE,1616
F4C9 15             DEC	D
F4CA 13             INC	DE
F4CB 11 10 11       LD	DE,1110
F4CE 64             LD	H,H
F4CF 64             LD	H,H
F4D0 FF             RST	38
F4D1 16 17          LD	D,17
F4D3 19             ADD	HL,DE
F4D4 16 12          LD	D,12
F4D6 64             LD	H,H
F4D7 64             LD	H,H
F4D8 64             LD	H,H
F4D9 14             INC	D
F4DA 12             LD	(DE),A
F4DB 1B             DEC	DE
F4DC 17             RLA
F4DD 12             LD	(DE),A
- 
F4DE 64             LD	H,H
F4DF 64             LD	H,H
F4E0 64             LD	H,H
F4E1 17             RLA
F4E2 1B             DEC	DE
F4E3 1B             DEC	DE
F4E4 19             ADD	HL,DE
F4E5 17             RLA
F4E6 16 16          LD	D,16
F4E8 14             INC	D
F4E9 12             LD	(DE),A
F4EA 11 11 64       LD	DE,6411
F4ED 12             LD	(DE),A
F4EE 64             LD	H,H
F4EF 64             LD	H,H
F4F0 64             LD	H,H
F4F1 FF             RST	38
F4F2 0C             INC	C
F4F3 64             LD	H,H
F4F4 64             LD	H,H
- 
F4F5 0C             INC	C
F4F6 64             LD	H,H
F4F7 64             LD	H,H
F4F8 0C             INC	C
F4F9 09             ADD	HL,BC
F4FA 11 0C 09       LD	DE,090C
F4FD 05             DEC	B
F4FE 0A             LD	A,(BC)
F4FF 64             LD	H,H
F500 0A             LD	A,(BC)
F501 0A             LD	A,(BC)
F502 64             LD	H,H
F503 0A             LD	A,(BC)
F504 0A             LD	A,(BC)
F505 07             RLCA
F506 09             ADD	HL,BC
F507 0A             LD	A,(BC)
F508 09             ADD	HL,BC
F509 07             RLCA
F50A 64             LD	H,H
- 
F50B 64             LD	H,H
F50C FF             RST	38
F50D 15             DEC	D
F50E 18 64          JR	F574
F510 18 15          JR	F527
F512 64             LD	H,H
F513 15             DEC	D
F514 11 15 11       LD	DE,1115
F517 0C             INC	C
F518 64             LD	H,H
F519 64             LD	H,H
F51A 0E 64          LD	C,64
F51C 64             LD	H,H
F51D 10 64          DJNZ	F583
F51F 64             LD	H,H
F520 11 64 64       LD	DE,6464
F523 64             LD	H,H
F524 64             LD	H,H
F525 64             LD	H,H
F526 FF             RST	38
- 
F527 1B             DEC	DE
F528 1B             DEC	DE
F529 17             RLA
F52A 64             LD	H,H
F52B 14             INC	D
F52C 64             LD	H,H
F52D 10 10          DJNZ	F53F
F52F 14             INC	D
F530 64             LD	H,H
F531 12             LD	(DE),A
F532 64             LD	H,H
F533 17             RLA
F534 17             RLA
F535 12             LD	(DE),A
F536 64             LD	H,H
F537 0F             RRCA
F538 64             LD	H,H
F539 0B             DEC	BC
F53A 0B             DEC	BC
F53B 0D             DEC	C
- 
F53C 64             LD	H,H
F53D 0B             DEC	BC
F53E 64             LD	H,H
F53F FF             RST	38
F540 16 64          LD	D,64
F542 1A             LD	A,(DE)
F543 18 64          JR	F5A9
F545 1B             DEC	DE
F546 1A             LD	A,(DE)
F547 1D             DEC	E
F548 1A             LD	A,(DE)
F549 16 64          LD	D,64
F54B 64             LD	H,H
F54C 1F             RRA
F54D 64             LD	H,H
F54E 64             LD	H,H
F54F 18 64          JR	F5B5
F551 1B             DEC	DE
F552 1A             LD	A,(DE)
F553 64             LD	H,H
- 
F554 64             LD	H,H
F555 16 64          LD	D,64
F557 64             LD	H,H
F558 FF             RST	38
F559 81             ADD	A,C
F55A F0             RET	P
F55B BA             CP	D
F55C F0             RET	P
F55D DC F0 F3       CALL	C,F3F0
F560 F0             RET	P
F561 30 F1          JR	NC,F554
F563 49             LD	C,C
F564 F1             POP	AF
F565 63             LD	H,E
F566 F1             POP	AF
F567 98             SBC	A,B
F568 F1             POP	AF
F569 D9             EXX
F56A F1             POP	AF
F56B 14             INC	D
- 
F56C F2 45 F2       JP	P,F245
F56F 7E             LD	A,(HL)
F570 F2 9E F2       JP	P,F29E
F573 E1             POP	HL
F574 F2 F2 F2       JP	P,F2F2
F577 2B             DEC	HL
F578 F3             DI
F579 49             LD	C,C
F57A F3             DI
F57B 7C             LD	A,H
F57C F3             DI
F57D AA             XOR	D
F57E F3             DI
F57F E3             EX	(SP),HL
F580 F3             DI
F581 04             INC	B
F582 F4 2D F4       CALL	P,F42D
F585 5E             LD	E,(HL)
F586 F4 7F F4       CALL	P,F47F
F589 A0             AND	B
- 
F58A F4 D1 F4       CALL	P,F4D1
F58D F2 F4 0D       JP	P,0DF4 ; JP	P,CL_SET_2
F590 F5             PUSH	AF
F591 27             DAA
F592 F5             PUSH	AF
F593 40             LD	B,B
F594 F5             PUSH	AF
F595 FF             RST	38
F596 05             DEC	B
F597 1B             DEC	DE
F598 1C             INC	E
F599 1D             DEC	E
F59A 62             LD	H,D
F59B 05             DEC	B
F59C 08             EX	AF,AF'
F59D 61             LD	H,C
F59E 01 53 45       LD	BC,4553
F5A1 4C             LD	C,H
F5A2 45             LD	B,L
F5A3 43             LD	B,E
- 
F5A4 54             LD	D,H
F5A5 40             LD	B,B
F5A6 43             LD	B,E
F5A7 4F             LD	C,A
F5A8 4E             LD	C,(HL)
F5A9 54             LD	D,H
F5AA 52             LD	D,D
F5AB 4F             LD	C,A
F5AC 4C             LD	C,H
F5AD 53             LD	D,E
F5AE 3A 62 09       LD	A,(0962)
F5B1 0A             LD	A,(BC)
F5B2 61             LD	H,C
F5B3 02             LD	(BC),A
F5B4 31 2E 40       LD	SP,402E
F5B7 40             LD	B,B
F5B8 4B             LD	C,E
F5B9 45             LD	B,L
F5BA 59             LD	E,C
F5BB 42             LD	B,D
- 
F5BC 4F             LD	C,A
F5BD 41             LD	B,C
F5BE 52             LD	D,D
F5BF 44             LD	B,H
F5C0 62             LD	H,D
F5C1 0B             DEC	BC
F5C2 0A             LD	A,(BC)
F5C3 61             LD	H,C
F5C4 03             INC	BC
F5C5 32 2E 40       LD	(402E),A
F5C8 40             LD	B,B
F5C9 4B             LD	C,E
F5CA 45             LD	B,L
F5CB 4D             LD	C,L
F5CC 50             LD	D,B
F5CD 53             LD	D,E
F5CE 54             LD	D,H
F5CF 4F             LD	C,A
F5D0 4E             LD	C,(HL)
F5D1 62             LD	H,D
- 
F5D2 0D             DEC	C
F5D3 0A             LD	A,(BC)
F5D4 61             LD	H,C
F5D5 04             INC	B
F5D6 33             INC	SP
F5D7 2E 40          LD	L,40
F5D9 40             LD	B,B
F5DA 53             LD	D,E
F5DB 49             LD	C,C
F5DC 4E             LD	C,(HL)
F5DD 43             LD	B,E
F5DE 4C             LD	C,H
F5DF 41             LD	B,C
F5E0 49             LD	C,C
F5E1 52             LD	D,D
F5E2 62             LD	H,D
F5E3 0F             RRCA
F5E4 0A             LD	A,(BC)
F5E5 61             LD	H,C
F5E6 06 34          LD	B,34
- 
F5E8 2E 40          LD	L,40
F5EA 40             LD	B,B
F5EB 43             LD	B,E
F5EC 55             LD	D,L
F5ED 52             LD	D,D
F5EE 53             LD	D,E
F5EF 4F             LD	C,A
F5F0 52             LD	D,D
F5F1 62             LD	H,D
F5F2 11 0A 61       LD	DE,610A
F5F5 05             DEC	B
F5F6 35             DEC	(HL)
F5F7 2E 40          LD	L,40
F5F9 40             LD	B,B
F5FA 52             LD	D,D
F5FB 45             LD	B,L
F5FC 44             LD	B,H
F5FD 45             LD	B,L
F5FE 46             LD	B,(HL)
F5FF 49             LD	C,C
- 
F600 4E             LD	C,(HL)
F601 45             LD	B,L
F602 61             LD	H,C
F603 47             LD	B,A
F604 63             LD	H,E
F605 62             LD	H,D
F606 02             LD	(BC),A
F607 0E 61          LD	C,61
F609 05             DEC	B
F60A 47             LD	B,A
F60B 41             LD	B,C
F60C 4D             LD	C,L
F60D 45             LD	B,L
F60E 62             LD	H,D
F60F 08             EX	AF,AF'
F610 07             RLCA
F611 54             LD	D,H
F612 49             LD	C,C
F613 54             LD	D,H
F614 4C             LD	C,H
- 
F615 45             LD	B,L
F616 40             LD	B,B
F617 53             LD	D,E
F618 43             LD	B,E
F619 52             LD	D,D
F61A 45             LD	B,L
F61B 45             LD	B,L
F61C 4E             LD	C,(HL)
F61D 40             LD	B,B
F61E 4D             LD	C,L
F61F 55             LD	D,L
F620 53             LD	D,E
F621 49             LD	C,C
F622 43             LD	B,E
F623 62             LD	H,D
F624 0E 09          LD	C,09
F626 4C             LD	C,H
F627 4F             LD	C,A
F628 41             LD	B,C
F629 44             LD	B,H
- 
F62A 49             LD	C,C
F62B 4E             LD	C,(HL)
F62C 47             LD	B,A
F62D 40             LD	B,B
F62E 53             LD	D,E
F62F 43             LD	B,E
F630 52             LD	D,D
F631 45             LD	B,L
F632 45             LD	B,L
F633 4E             LD	C,(HL)
F634 62             LD	H,D
F635 04             INC	B
F636 07             RLCA
F637 61             LD	H,C
F638 46             LD	B,(HL)
F639 4A             LD	C,D
F63A 4F             LD	C,A
F63B 4E             LD	C,(HL)
F63C 41             LD	B,C
F63D 54             LD	D,H
- 
F63E 48             LD	C,B
F63F 41             LD	B,C
F640 4E             LD	C,(HL)
F641 40             LD	B,B
F642 43             LD	B,E
F643 41             LD	B,C
F644 55             LD	D,L
F645 4C             LD	C,H
F646 44             LD	B,H
F647 57             LD	D,A
F648 45             LD	B,L
F649 4C             LD	C,H
F64A 4C             LD	C,H
F64B 62             LD	H,D
F64C 0A             LD	A,(BC)
F64D 0C             INC	C
F64E 59             LD	E,C
F64F 45             LD	B,L
F650 52             LD	D,D
F651 5A             LD	E,D
- 
F652 4D             LD	C,L
F653 59             LD	E,C
F654 45             LD	B,L
F655 59             LD	E,C
F656 62             LD	H,D
F657 10 08          DJNZ	F661
F659 47             LD	B,A
F65A 52             LD	D,D
F65B 41             LD	B,C
F65C 48             LD	C,B
F65D 41             LD	B,C
F65E 4D             LD	C,L
F65F 40             LD	B,B
F660 40             LD	B,B
F661 52             LD	D,D
F662 49             LD	C,C
F663 43             LD	B,E
F664 48             LD	C,B
F665 41             LD	B,C
F666 52             LD	D,D
- 
F667 44             LD	B,H
F668 53             LD	D,E
F669 61             LD	H,C
F66A 47             LD	B,A
F66B 63             LD	H,E
F66C 62             LD	H,D
F66D 0C             INC	C
F66E 07             RLCA
F66F 61             LD	H,C
F670 42             LD	B,D
F671 54             LD	D,H
F672 4F             LD	C,A
F673 44             LD	B,H
F674 41             LD	B,C
F675 59             LD	E,C
F676 3C             INC	A
F677 53             LD	D,E
F678 40             LD	B,B
F679 48             LD	C,B
F67A 49             LD	C,C
- 
F67B 47             LD	B,A
F67C 48             LD	C,B
F67D 40             LD	B,B
F67E 53             LD	D,E
F67F 43             LD	B,E
F680 4F             LD	C,A
F681 52             LD	D,D
F682 45             LD	B,L
F683 62             LD	H,D
F684 06 0B          LD	B,0B
F686 4C             LD	C,H
F687 41             LD	B,C
F688 53             LD	D,E
F689 54             LD	D,H
F68A 40             LD	B,B
F68B 53             LD	D,E
F68C 43             LD	B,E
F68D 4F             LD	C,A
F68E 52             LD	D,D
F68F 45             LD	B,L
- 
F690 62             LD	H,D
F691 08             EX	AF,AF'
F692 0D             DEC	C
F693 61             LD	H,C
F694 44             LD	B,H
F695 63             LD	H,E
F696 62             LD	H,D
F697 16 11          LD	D,11
F699 50             LD	D,B
F69A 4F             LD	C,A
F69B 49             LD	C,C
F69C 4E             LD	C,(HL)
F69D 54             LD	D,H
F69E 53             LD	D,E
F69F 62             LD	H,D
F6A0 16 19          LD	D,19
F6A2 59             LD	E,C
F6A3 4F             LD	C,A
F6A4 4C             LD	C,H
F6A5 4B             LD	C,E
- 
F6A6 53             LD	D,E
F6A7 63             LD	H,E
F6A8 62             LD	H,D
F6A9 07             RLCA
F6AA 0B             DEC	BC
F6AB 61             LD	H,C
F6AC 43             LD	B,E
F6AD 47             LD	B,A
F6AE 41             LD	B,C
F6AF 4D             LD	C,L
F6B0 45             LD	B,L
F6B1 40             LD	B,B
F6B2 40             LD	B,B
F6B3 4F             LD	C,A
F6B4 56             LD	D,(HL)
F6B5 45             LD	B,L
F6B6 52             LD	D,D
F6B7 63             LD	H,E
F6B8 62             LD	H,D
F6B9 04             INC	B
- 
F6BA 08             EX	AF,AF'
F6BB 61             LD	H,C
F6BC 47             LD	B,A
F6BD 50             LD	D,B
F6BE 55             LD	D,L
F6BF 42             LD	B,D
F6C0 4C             LD	C,H
F6C1 49             LD	C,C
F6C2 43             LD	B,E
F6C3 40             LD	B,B
F6C4 54             LD	D,H
F6C5 45             LD	B,L
F6C6 4C             LD	C,H
F6C7 45             LD	B,L
F6C8 50             LD	D,B
F6C9 48             LD	C,B
F6CA 4F             LD	C,A
F6CB 4E             LD	C,(HL)
F6CC 45             LD	B,L
F6CD 62             LD	H,D
- 
F6CE 09             ADD	HL,BC
F6CF 07             RLCA
F6D0 61             LD	H,C
F6D1 45             LD	B,L
F6D2 53             LD	D,E
F6D3 45             LD	B,L
F6D4 4C             LD	C,H
F6D5 45             LD	B,L
F6D6 43             LD	B,E
F6D7 54             LD	D,H
F6D8 40             LD	B,B
F6D9 44             LD	B,H
F6DA 45             LD	B,L
F6DB 53             LD	D,E
F6DC 54             LD	D,H
F6DD 49             LD	C,C
F6DE 4E             LD	C,(HL)
F6DF 41             LD	B,C
F6E0 54             LD	D,H
F6E1 49             LD	C,C
- 
F6E2 4F             LD	C,A
F6E3 4E             LD	C,(HL)
F6E4 62             LD	H,D
F6E5 06 04          LD	B,04
F6E7 61             LD	H,C
F6E8 03             INC	BC
F6E9 63             LD	H,E
F6EA 62             LD	H,D
F6EB 06 04          LD	B,04
F6ED 61             LD	H,C
F6EE 42             LD	B,D
F6EF 40             LD	B,B
F6F0 40             LD	B,B
F6F1 4E             LD	C,(HL)
F6F2 4F             LD	C,A
F6F3 57             LD	D,A
F6F4 40             LD	B,B
F6F5 53             LD	D,E
F6F6 48             LD	C,B
F6F7 45             LD	B,L
- 
F6F8 4C             LD	C,H
F6F9 4C             LD	C,H
F6FA 45             LD	B,L
F6FB 50             LD	D,B
F6FC 4F             LD	C,A
F6FD 52             LD	D,D
F6FE 54             LD	D,H
F6FF 49             LD	C,C
F700 4E             LD	C,(HL)
F701 47             LD	B,A
F702 2E 2E          LD	L,2E
F704 2E 40          LD	L,40
F706 40             LD	B,B
F707 61             LD	H,C
F708 47             LD	B,A
F709 63             LD	H,E
F70A 62             LD	H,D
F70B 09             ADD	HL,BC
F70C 05             DEC	B
F70D 61             LD	H,C
- 
F70E 0E 41          LD	C,41
F710 4E             LD	C,(HL)
F711 44             LD	B,H
F712 40             LD	B,B
F713 53             LD	D,E
F714 4F             LD	C,A
F715 40             LD	B,B
F716 54             LD	D,H
F717 48             LD	C,B
F718 45             LD	B,L
F719 40             LD	B,B
F71A 50             LD	D,B
F71B 41             LD	B,C
F71C 47             LD	B,A
F71D 45             LD	B,L
F71E 40             LD	B,B
F71F 54             LD	D,H
F720 55             LD	D,L
F721 52             LD	D,D
F722 4E             LD	C,(HL)
- 
F723 45             LD	B,L
F724 44             LD	B,H
F725 63             LD	H,E
F726 62             LD	H,D
F727 05             DEC	B
F728 07             RLCA
F729 61             LD	H,C
F72A 1E 54          LD	E,54
F72C 48             LD	C,B
F72D 45             LD	B,L
F72E 40             LD	B,B
F72F 44             LD	B,H
F730 41             LD	B,C
F731 59             LD	E,C
F732 40             LD	B,B
F733 57             LD	D,A
F734 41             LD	B,C
F735 53             LD	D,E
F736 40             LD	B,B
F737 53             LD	D,E
- 
F738 41             LD	B,C
F739 56             LD	D,(HL)
F73A 45             LD	B,L
F73B 44             LD	B,H
F73C 62             LD	H,D
F73D 09             ADD	HL,BC
F73E 09             ADD	HL,BC
F73F 41             LD	B,C
F740 4E             LD	C,(HL)
F741 44             LD	B,H
F742 40             LD	B,B
F743 54             LD	D,H
F744 48             LD	C,B
F745 45             LD	B,L
F746 52             LD	D,D
F747 45             LD	B,L
F748 40             LD	B,B
F749 57             LD	D,A
F74A 41             LD	B,C
F74B 53             LD	D,E
- 
F74C 62             LD	H,D
F74D 0B             DEC	BC
F74E 09             ADD	HL,BC
F74F 53             LD	D,E
F750 43             LD	B,E
F751 52             LD	D,D
F752 41             LD	B,C
F753 4D             LD	C,L
F754 42             LD	B,D
F755 4C             LD	C,H
F756 45             LD	B,L
F757 44             LD	B,H
F758 40             LD	B,B
F759 45             LD	B,L
F75A 47             LD	B,A
F75B 47             LD	B,A
F75C 62             LD	H,D
F75D 0D             DEC	C
F75E 09             ADD	HL,BC
F75F 46             LD	B,(HL)
- 
F760 4F             LD	C,A
F761 52             LD	D,D
F762 40             LD	B,B
F763 42             LD	B,D
F764 52             LD	D,D
F765 45             LD	B,L
F766 41             LD	B,C
F767 4B             LD	C,E
F768 46             LD	B,(HL)
F769 41             LD	B,C
F76A 53             LD	D,E
F76B 54             LD	D,H
F76C 63             LD	H,E
F76D 06 14          LD	B,14
F76F E5             PUSH	HL
F770 36 AA          LD	(HL),AA
F772 7C             LD	A,H
F773 24             INC	H
F774 36 00          LD	(HL),00
F776 24             INC	H
- 
F777 36 00          LD	(HL),00
F779 24             INC	H
F77A 36 00          LD	(HL),00
F77C 24             INC	H
F77D 36 00          LD	(HL),00
F77F 24             INC	H
F780 36 00          LD	(HL),00
F782 24             INC	H
F783 36 00          LD	(HL),00
F785 24             INC	H
F786 36 00          LD	(HL),00
F788 67             LD	H,A
F789 2C             INC	L
F78A 10 E4          DJNZ	F770
F78C E1             POP	HL
F78D 7C             LD	A,H
F78E 1F             RRA
F78F 1F             RRA
F790 1F             RRA
F791 E6 03          AND	03
- 
F793 F6 58          OR	58
F795 67             LD	H,A
F796 06 14          LD	B,14
F798 36 03          LD	(HL),03
F79A 2C             INC	L
F79B 10 FB          DJNZ	F798
F79D C9             RET
F79E CD 84 7D       CALL	7D84
F7A1 21 9A F5       LD	HL,F59A
F7A4 CD 0D AC       CALL	AC0D
F7A7 18 63          JR	F80C
F7A9 21 05 F6       LD	HL,F605
F7AC CD 0D AC       CALL	AC0D
F7AF 18 5B          JR	F80C
F7B1 21 6C F6       LD	HL,F66C
F7B4 CD 0D AC       CALL	AC0D
F7B7 21 06 8E       LD	HL,8E06
F7BA CD 0D AC       CALL	AC0D
F7BD 21 0E 0D       LD	HL,0D0E
F7C0 22 27 90       LD	(9027),HL
- 
F7C3 21 0D 8E       LD	HL,8E0D
F7C6 CD 0D AC       CALL	AC0D
F7C9 21 66 40       LD	HL,4066
F7CC CD 6D F7       CALL	F76D
F7CF 21 46 50       LD	HL,5046
F7D2 CD 6D F7       CALL	F76D
F7D5 18 35          JR	F80C
F7D7 21 25 F9       LD	HL,F925
F7DA 22 22 F9       LD	(F922),HL
F7DD AF             XOR	A
F7DE 32 0B F8       LD	(F80B),A
F7E1 32 24 F9       LD	(F924),A
F7E4 3E 80          LD	A,80
F7E6 32 21 F9       LD	(F921),A
F7E9 CD BC 7C       CALL	7CBC
F7EC CD 65 AD       CALL	AD65
F7EF 21 0B F8       LD	HL,F80B
F7F2 7E             LD	A,(HL)
F7F3 34             INC	(HL)
F7F4 E6 03          AND	03
- 
F7F6 07             RLCA
F7F7 5F             LD	E,A
F7F8 16 00          LD	D,00
F7FA 21 03 F8       LD	HL,F803
F7FD 19             ADD	HL,DE
F7FE 5E             LD	E,(HL)
F7FF 23             INC	HL
F800 56             LD	D,(HL)
F801 EB             EX	DE,HL
F802 E9             JP	(HL)
F803 9E             SBC	A,(HL)
F804 F7             RST	30
F805 A9             XOR	C
F806 F7             RST	30
F807 9E             SBC	A,(HL)
F808 F7             RST	30
F809 B1             OR	C
F80A F7             RST	30
F80B 18 06          JR	F813
F80D 00             NOP
- 
F80E C5             PUSH	BC
F80F 76             HALT
F810 76             HALT
F811 CD 8E 02       CALL	028E ; CALL	KEY_SCAN
F814 C1             POP	BC
F815 7B             LD	A,E
F816 FE 24          CP	24
F818 CA 39 F8       JP	Z,F839
F81B FE 1C          CP	1C
F81D CA 3C F8       JP	Z,F83C
F820 FE 14          CP	14
F822 CA 40 F8       JP	Z,F840
F825 FE 0C          CP	0C
F827 CA 44 F8       JP	Z,F844
F82A FE 04          CP	04
F82C CA 49 7C       JP	Z,7C49
F82F FE 0F          CP	0F
F831 CC 58 F8       CALL	Z,F858
F834 10 D8          DJNZ	F80E
F836 C3 EC F7       JP	F7EC
- 
F839 AF             XOR	A
F83A 18 0A          JR	F846
F83C 3E 01          LD	A,01
F83E 18 06          JR	F846
F840 3E 02          LD	A,02
F842 18 02          JR	F846
F844 3E 03          LD	A,03
F846 32 39 A7       LD	(A739),A
F849 CD 00 7D       CALL	7D00
F84C 3E 47          LD	A,47
F84E 32 8D 5C       LD	(5C8D),A ; LD	(ATTRP_MASKP),A
F851 AF             XOR	A
F852 CD A0 7A       CALL	7AA0
F855 C3 C7 7A       JP	7AC7
F858 3E 09          LD	A,09
F85A CD 15 A7       CALL	A715
F85D D8             RET	C
F85E 3E 01          LD	A,01
F860 D3 FE          OUT	(FE),A
F862 21 81 F8       LD	HL,F881
- 
F865 22 58 82       LD	(8258),HL
F868 3E 27          LD	A,27
F86A CD 15 A7       CALL	A715
F86D D8             RET	C
F86E 21 F5 8B       LD	HL,8BF5
F871 36 C9          LD	(HL),C9
F873 21 99 F6       LD	HL,F699
F876 36 43          LD	(HL),43
F878 23             INC	HL
F879 36 48          LD	(HL),48
F87B 23             INC	HL
F87C 36 45          LD	(HL),45
F87E 23             INC	HL
F87F 36 41          LD	(HL),41
F881 C9             RET
F882 CD 06 C0       CALL	C006
F885 21 FF 50       LD	HL,50FF
F888 E5             PUSH	HL
F889 06 08          LD	B,08
F88B C5             PUSH	BC
- 
F88C E5             PUSH	HL
F88D 06 10          LD	B,10
F88F A7             AND	A
F890 CB 16          RL	(HL)
F892 2D             DEC	L
F893 CB 16          RL	(HL)
F895 2D             DEC	L
F896 10 F8          DJNZ	F890
F898 E1             POP	HL
F899 24             INC	H
F89A C1             POP	BC
F89B 10 EE          DJNZ	F88B
F89D CD C4 F8       CALL	F8C4
F8A0 07             RLCA
F8A1 5F             LD	E,A
F8A2 16 00          LD	D,00
F8A4 21 ED AA       LD	HL,AAED
F8A7 19             ADD	HL,DE
F8A8 19             ADD	HL,DE
F8A9 19             ADD	HL,DE
- 
F8AA EB             EX	DE,HL
F8AB E1             POP	HL
F8AC 3A 21 F9       LD	A,(F921)
F8AF 4F             LD	C,A
F8B0 06 06          LD	B,06
F8B2 1A             LD	A,(DE)
F8B3 A1             AND	C
F8B4 28 01          JR	Z,F8B7
F8B6 34             INC	(HL)
F8B7 24             INC	H
F8B8 13             INC	DE
F8B9 10 F7          DJNZ	F8B2
F8BB 21 21 F9       LD	HL,F921
F8BE CB 0E          RRC	(HL)
F8C0 D0             RET	NC
F8C1 C3 FA F8       JP	F8FA
F8C4 2A 22 F9       LD	HL,(F922)
F8C7 3A 24 F9       LD	A,(F924)
F8CA A7             AND	A
F8CB 28 0A          JR	Z,F8D7
- 
F8CD 3D             DEC	A
F8CE 28 0C          JR	Z,F8DC
F8D0 3D             DEC	A
F8D1 28 1A          JR	Z,F8ED
F8D3 7E             LD	A,(HL)
F8D4 E6 3F          AND	3F
F8D6 C9             RET
F8D7 7E             LD	A,(HL)
F8D8 1F             RRA
F8D9 1F             RRA
F8DA 18 F8          JR	F8D4
F8DC 7E             LD	A,(HL)
F8DD 0F             RRCA
F8DE 0F             RRCA
F8DF E6 C0          AND	C0
F8E1 47             LD	B,A
F8E2 23             INC	HL
F8E3 7E             LD	A,(HL)
F8E4 1F             RRA
F8E5 1F             RRA
- 
F8E6 E6 3C          AND	3C
F8E8 B0             OR	B
F8E9 1F             RRA
F8EA 1F             RRA
F8EB 18 E7          JR	F8D4
F8ED 7E             LD	A,(HL)
F8EE E6 0F          AND	0F
F8F0 47             LD	B,A
F8F1 23             INC	HL
F8F2 7E             LD	A,(HL)
F8F3 E6 C0          AND	C0
F8F5 B0             OR	B
F8F6 07             RLCA
F8F7 07             RLCA
F8F8 18 DA          JR	F8D4
F8FA 21 24 F9       LD	HL,F924
F8FD 34             INC	(HL)
F8FE 7E             LD	A,(HL)
F8FF FE 04          CP	04
F901 CC 1E F9       CALL	Z,F91E
- 
F904 2A 22 F9       LD	HL,(F922)
F907 FE 01          CP	01
F909 28 04          JR	Z,F90F
F90B 23             INC	HL
F90C 22 22 F9       LD	(F922),HL
F90F CD C4 F8       CALL	F8C4
F912 FE 3C          CP	3C
F914 D8             RET	C
F915 21 25 F9       LD	HL,F925
F918 22 22 F9       LD	(F922),HL
F91B 21 24 F9       LD	HL,F924
F91E AF             XOR	A
F91F 77             LD	(HL),A
F920 C9             RET
F921 80             ADD	A,B
F922 79             LD	A,C
F923 FA 02 BD       JP	M,BD02
F926 24             INC	H
F927 92             SUB	D
F928 5D             LD	E,L
- 
F929 96             SUB	(HL)
F92A 5A             LD	E,D
F92B 5D             LD	E,L
F92C 35             DEC	(HL)
F92D 92             SUB	D
F92E 21 24 92       LD	HL,9224
F931 BD             CP	L
F932 24             INC	H
F933 92             SUB	D
F934 56             LD	D,(HL)
F935 18 AB          JR	F8E2
F937 91             SUB	C
F938 B6             OR	(HL)
F939 5A             LD	E,D
F93A 99             SBC	A,C
F93B 27             DAA
F93C 21 81 39       LD	HL,3981
F93F 9A             SBC	A,D
F940 4E             LD	C,(HL)
F941 04             INC	B
- 
F942 95             SUB	L
F943 4E             LD	C,(HL)
F944 77             LD	(HL),A
F945 96             SUB	(HL)
F946 A5             AND	L
F947 77             LD	(HL),A
F948 9E             SBC	A,(HL)
F949 48             LD	C,B
F94A 40             LD	B,B
F94B 83             ADD	A,E
F94C 25             DEC	H
F94D 24             INC	H
F94E 92             SUB	D
F94F B5             OR	L
F950 24             INC	H
F951 92             SUB	D
F952 A5             AND	L
F953 77             LD	(HL),A
F954 95             SUB	L
F955 85             ADD	A,L
- 
F956 F5             PUSH	AF
F957 CF             RST	08
F958 49             LD	C,C
F959 29             ADD	HL,HL
F95A 5A             LD	E,D
F95B 5D             LD	E,L
F95C E7             RST	20
F95D 92             SUB	D
F95E A5             AND	L
F95F 74             LD	(HL),H
F960 99             SBC	A,C
F961 5E             LD	E,(HL)
F962 64             LD	H,H
F963 95             SUB	L
F964 91             SUB	C
F965 35             DEC	(HL)
F966 5D             LD	E,L
F967 6E             LD	L,(HL)
F968 06 51          LD	B,51
F96A 49             LD	C,C
- 
F96B 24             INC	H
F96C D4 95 78       CALL	NC,7895
F96F 26 41          LD	H,41
F971 F6 E0          OR	E0
F973 59             LD	E,C
F974 75             LD	(HL),L
F975 92             SUB	D
F976 56             LD	D,(HL)
F977 44             LD	B,H
F978 E5             PUSH	HL
F979 69             LD	L,C
F97A 2A 64 6E       LD	HL,(6E64)
F97D 65             LD	H,L
F97E E4 95 26       CALL	PO,2695
F981 93             SUB	E
F982 A1             AND	C
F983 74             LD	(HL),H
F984 99             SBC	A,C
F985 86             ADD	A,(HL)
F986 05             DEC	B
- 
F987 D2 9A 14       JP	NC,149A
F98A A6             AND	(HL)
F98B 69             LD	L,C
F98C 74             LD	(HL),H
F98D A2             AND	D
F98E 9D             SBC	A,L
F98F 44             LD	B,H
F990 93             SUB	E
F991 81             ADD	A,C
F992 64             LD	H,H
F993 95             SUB	L
F994 4E             LD	C,(HL)
F995 45             LD	B,L
F996 DE 5E          SBC	A,5E
F998 59             LD	E,C
F999 5E             LD	E,(HL)
F99A AD             XOR	L
F99B 27             DAA
F99C 97             SUB	A
F99D 62             LD	H,D
- 
F99E 64             LD	H,H
F99F A6             AND	(HL)
F9A0 69             LD	L,C
F9A1 76             HALT
F9A2 E4 4A 98       CALL	PO,984A
F9A5 64             LD	H,H
F9A6 75             LD	(HL),L
F9A7 28 60          JR	Z,FA09
F9A9 49             LD	C,C
F9AA 34             INC	(HL)
F9AB A6             AND	(HL)
F9AC 4D             LD	C,L
F9AD 47             LD	B,A
F9AE 97             SUB	A
F9AF 49             LD	C,C
F9B0 B8             CP	B
F9B1 12             LD	(DE),A
F9B2 99             SBC	A,C
F9B3 A5             AND	L
F9B4 D2 51 75       JP	NC,7551
- 
F9B7 E4 49 94       CALL	PO,9449
F9BA E4 59 78       CALL	PO,7859
F9BD 00             NOP
F9BE 49             LD	C,C
F9BF 24             INC	H
F9C0 D2 96 69       JP	NC,6996
F9C3 21 81 94       LD	HL,9481
F9C6 99             SBC	A,C
F9C7 9E             SBC	A,(HL)
F9C8 59             LD	E,C
F9C9 92             SUB	D
F9CA 85             ADD	A,L
F9CB 84             ADD	A,H
F9CC A9             XOR	C
F9CD 6E             LD	L,(HL)
F9CE 05             DEC	B
F9CF 92             SUB	D
F9D0 69             LD	L,C
F9D1 39             ADD	HL,SP
F9D2 52             LD	D,D
- 
F9D3 51             LD	D,C
F9D4 E8             RET	PE
F9D5 69             LD	L,C
F9D6 81             ADD	A,C
F9D7 26 E6          LD	H,E6
F9D9 49             LD	C,C
F9DA 3A 53 AC       LD	A,(AC53)
F9DD F4 92 49       CALL	P,4992
F9E0 A5             AND	L
F9E1 DE 89          SBC	A,89
F9E3 25             DEC	H
F9E4 D9             EXX
F9E5 65             LD	H,L
F9E6 A5             AND	L
F9E7 D3 59          OUT	(59),A
F9E9 25             DEC	H
F9EA 61             LD	H,C
F9EB 79             LD	A,C
F9EC E5             PUSH	HL
F9ED D5             PUSH	DE
- 
F9EE 99             SBC	A,C
F9EF 29             ADD	HL,HL
F9F0 9A             SBC	A,D
F9F1 5D             LD	E,L
F9F2 27             DAA
F9F3 DB 96          IN A,(96)
F9F5 56             LD	D,(HL)
F9F6 E0             RET	PO
F9F7 65             LD	H,L
F9F8 28 93          JR	Z,F98D
F9FA 65             LD	H,L
F9FB 79             LD	A,C
F9FC 52             LD	D,D
F9FD 95             SUB	L
F9FE 54             LD	D,H
F9FF E6 99          AND	99
FA01 79             LD	A,C
FA02 17             RLA
FA03 59             LD	E,C
FA04 24             INC	H
- 
FA05 E4 86 78       CALL	PO,7886
FA08 16 4A          LD	D,4A
FA0A 66             LD	H,(HL)
FA0B 97             SUB	A
FA0C 4A             LD	C,D
FA0D 68             LD	L,B
FA0E 69             LD	L,C
FA0F 81             ADD	A,C
FA10 29             ADD	HL,HL
FA11 61             LD	H,C
FA12 4A             LD	C,D
FA13 66             LD	H,(HL)
FA14 93             SUB	E
FA15 99             SBC	A,C
FA16 29             ADD	HL,HL
FA17 9A             SBC	A,D
FA18 5D             LD	E,L
FA19 28 17          JR	Z,FA32
FA1B AA             XOR	D
FA1C 64             LD	H,H
- 
FA1D 97             SUB	A
FA1E 59             LD	E,C
FA1F B9             CP	C
FA20 9B             SBC	A,E
FA21 86             ADD	A,(HL)
FA22 04             INC	B
FA23 A1             AND	C
FA24 61             LD	H,C
FA25 25             DEC	H
FA26 64             LD	H,H
FA27 4E             LD	C,(HL)
FA28 56             LD	D,(HL)
FA29 92             SUB	D
FA2A 55             LD	D,L
FA2B 38 12          JR 	C,FA3F
FA2D 51             LD	D,C
FA2E 74             LD	(HL),H
FA2F A2             AND	D
FA30 9E             SBC	A,(HL)
FA31 64             LD	H,H
- 
FA32 A6             AND	(HL)
FA33 85             ADD	A,L
FA34 25             DEC	H
FA35 17             RLA
FA36 58             LD	E,B
FA37 04             INC	B
FA38 92             SUB	D
FA39 99             SBC	A,C
FA3A A5             AND	L
FA3B E4 5D 26       CALL	PO,265D
FA3E E5             PUSH	HL
FA3F 49             LD	C,C
FA40 34             INC	(HL)
FA41 95             SUB	L
FA42 69             LD	L,C
FA43 74             LD	(HL),H
FA44 E6 49          AND	49
FA46 F8             RET	M
FA47 56             LD	D,(HL)
FA48 5C             LD	E,H
- 
FA49 D4 9B 61       CALL	NC,619B
FA4C 2A E1 9D       LD	HL,(9DE1)
FA4F 25             DEC	H
FA50 53             LD	D,E
FA51 81             ADD	A,C
FA52 26 1B          LD	H,1B
FA54 81             ADD	A,C
FA55 64             LD	H,H
FA56 9B             SBC	A,E
FA57 98             SBC	A,B
FA58 F4 92 49       CALL	P,4992
FA5B A4             AND	H
FA5C E8             RET	PE
FA5D 5D             LD	E,L
FA5E 2A E1 9D       LD	HL,(9DE1)
FA61 26 93          LD	H,93
FA63 59             LD	E,C
FA64 29             ADD	HL,HL
FA65 E0             RET	PO
FA66 4A             LD	C,D
- 
FA67 15             DEC	D
FA68 E7             RST	20
FA69 61             LD	H,C
FA6A 2A D7 99       LD	HL,(99D7)
FA6D 14             INC	D
FA6E 92             SUB	D
FA6F 49             LD	C,C
FA70 B9             CP	C
FA71 8E             ADC	A,(HL)
FA72 95             SUB	L
FA73 26 93          LD	H,93
FA75 91             SUB	C
FA76 64             LD	H,H
FA77 A9             XOR	C
FA78 86             ADD	A,(HL)
FA79 47             LD	B,A
FA7A 52             LD	D,D
FA7B A6             AND	(HL)
FA7C 46             LD	B,(HL)
FA7D E6 6E          AND	6E
- 
FA7F 06 52          LD	B,52
FA81 99             SBC	A,C
FA82 A5             AND	L
FA83 E5             PUSH	HL
FA84 5D             LD	E,L
FA85 28 9E          JR	Z,FA25
FA87 4E             LD	C,(HL)
FA88 66             LD	H,(HL)
FA89 21 91 F5       LD	HL,F591
FA8C E4 94 F4       CALL	PO,F494
FA8F 92             SUB	D
FA90 4A             LD	C,D
FA91 D4 92 4A       CALL	NC,4A92
FA94 55             LD	D,L
FA95 D7             RST	10
FA96 49             LD	C,C
FA97 F8             RET	M
FA98 64             LD	H,H
FA99 5D             LD	E,L
FA9A 24             INC	H
- 
FA9B E6 4A          AND	4A
FA9D 9A             SBC	A,D
FA9E 69             LD	L,C
FA9F 02             LD	(BC),A
FAA0 58             LD	E,B
FAA1 93             SUB	E
FAA2 81             ADD	A,C
FAA3 97             SUB	A
FAA4 97             SUB	A
FAA5 61             LD	H,C
FAA6 B9             CP	C
FAA7 5A             LD	E,D
FAA8 01 58 5F       LD	BC,5F58
FAAB 05             DEC	B
FAAC 76             HALT
FAAD 59             LD	E,C
FAAE 69             LD	L,C
FAAF 74             LD	(HL),H
FAB0 D6 49          SUB	49
FAB2 24             INC	H
- 
FAB3 BF             CP	A
FAB4 19             ADD	HL,DE
FAB5 19             ADD	HL,DE
FAB6 19             ADD	HL,DE
FAB7 19             ADD	HL,DE
FAB8 19             ADD	HL,DE
FAB9 19             ADD	HL,DE
FABA 19             ADD	HL,DE
FABB 19             ADD	HL,DE
FABC 19             ADD	HL,DE
FABD 19             ADD	HL,DE
FABE 19             ADD	HL,DE
FABF 19             ADD	HL,DE
FAC0 19             ADD	HL,DE
FAC1 19             ADD	HL,DE
FAC2 19             ADD	HL,DE
FAC3 19             ADD	HL,DE
FAC4 19             ADD	HL,DE
FAC5 19             ADD	HL,DE
FAC6 19             ADD	HL,DE
- 
FAC7 19             ADD	HL,DE
FAC8 19             ADD	HL,DE
FAC9 19             ADD	HL,DE
FACA 19             ADD	HL,DE
FACB 19             ADD	HL,DE
FACC 19             ADD	HL,DE
FACD 19             ADD	HL,DE
FACE 19             ADD	HL,DE
FACF 19             ADD	HL,DE
FAD0 19             ADD	HL,DE
FAD1 19             ADD	HL,DE
FAD2 00             NOP
FAD3 00             NOP
FAD4 19             ADD	HL,DE
FAD5 19             ADD	HL,DE
FAD6 19             ADD	HL,DE
FAD7 19             ADD	HL,DE
FAD8 19             ADD	HL,DE
FAD9 19             ADD	HL,DE
FADA 19             ADD	HL,DE
- 
FADB 19             ADD	HL,DE
FADC 19             ADD	HL,DE
FADD 00             NOP
FADE 00             NOP
FADF 19             ADD	HL,DE
FAE0 19             ADD	HL,DE
FAE1 19             ADD	HL,DE
FAE2 19             ADD	HL,DE
FAE3 19             ADD	HL,DE
FAE4 19             ADD	HL,DE
FAE5 19             ADD	HL,DE
FAE6 19             ADD	HL,DE
FAE7 00             NOP
FAE8 00             NOP
FAE9 19             ADD	HL,DE
FAEA 19             ADD	HL,DE
FAEB 19             ADD	HL,DE
FAEC 19             ADD	HL,DE
FAED 19             ADD	HL,DE
FAEE 19             ADD	HL,DE
- 
FAEF 19             ADD	HL,DE
FAF0 19             ADD	HL,DE
FAF1 19             ADD	HL,DE
FAF2 19             ADD	HL,DE
FAF3 00             NOP
FAF4 05             DEC	B
FAF5 00             NOP
FAF6 00             NOP
FAF7 00             NOP
FAF8 00             NOP
FAF9 00             NOP
FAFA 00             NOP
FAFB 00             NOP
FAFC 00             NOP
FAFD 00             NOP
FAFE 00             NOP
FAFF 00             NOP
FB00 00             NOP
FB01 00             NOP
FB02 00             NOP
- 
FB03 00             NOP
FB04 00             NOP
FB05 00             NOP
FB06 00             NOP
FB07 00             NOP
FB08 00             NOP
FB09 00             NOP
FB0A 00             NOP
FB0B 00             NOP
FB0C 00             NOP
FB0D 00             NOP
FB0E 05             DEC	B
FB0F 05             DEC	B
FB10 05             DEC	B
FB11 00             NOP
FB12 00             NOP
FB13 00             NOP
FB14 05             DEC	B
FB15 00             NOP
FB16 00             NOP
- 
FB17 00             NOP
FB18 00             NOP
FB19 00             NOP
FB1A 00             NOP
FB1B 00             NOP
FB1C 00             NOP
FB1D 00             NOP
FB1E 00             NOP
FB1F 00             NOP
FB20 00             NOP
FB21 00             NOP
FB22 00             NOP
FB23 00             NOP
FB24 00             NOP
FB25 00             NOP
FB26 00             NOP
FB27 00             NOP
FB28 00             NOP
FB29 00             NOP
FB2A 00             NOP
- 
FB2B 00             NOP
FB2C 00             NOP
FB2D 00             NOP
FB2E 05             DEC	B
FB2F 05             DEC	B
FB30 05             DEC	B
FB31 00             NOP
FB32 00             NOP
FB33 00             NOP
FB34 05             DEC	B
FB35 00             NOP
FB36 00             NOP
FB37 00             NOP
FB38 00             NOP
FB39 00             NOP
FB3A 00             NOP
FB3B 00             NOP
FB3C 00             NOP
FB3D 00             NOP
FB3E 00             NOP
- 
FB3F 00             NOP
FB40 00             NOP
FB41 00             NOP
FB42 00             NOP
FB43 00             NOP
FB44 00             NOP
FB45 00             NOP
FB46 00             NOP
FB47 00             NOP
FB48 00             NOP
FB49 00             NOP
FB4A 00             NOP
FB4B 00             NOP
FB4C 00             NOP
FB4D 00             NOP
FB4E 05             DEC	B
FB4F 05             DEC	B
FB50 05             DEC	B
FB51 00             NOP
FB52 00             NOP
- 
FB53 00             NOP
FB54 05             DEC	B
FB55 00             NOP
FB56 00             NOP
FB57 00             NOP
FB58 00             NOP
FB59 00             NOP
FB5A 00             NOP
FB5B 00             NOP
FB5C 00             NOP
FB5D 00             NOP
FB5E 00             NOP
FB5F 00             NOP
FB60 00             NOP
FB61 00             NOP
FB62 00             NOP
FB63 00             NOP
FB64 00             NOP
FB65 00             NOP
FB66 00             NOP
- 
FB67 00             NOP
FB68 00             NOP
FB69 00             NOP
FB6A 00             NOP
FB6B 00             NOP
FB6C 00             NOP
FB6D 00             NOP
FB6E 05             DEC	B
FB6F 05             DEC	B
FB70 05             DEC	B
FB71 00             NOP
FB72 00             NOP
FB73 00             NOP
FB74 05             DEC	B
FB75 00             NOP
FB76 00             NOP
FB77 00             NOP
FB78 00             NOP
FB79 00             NOP
FB7A 00             NOP
- 
FB7B 00             NOP
FB7C 00             NOP
FB7D 00             NOP
FB7E 00             NOP
FB7F 00             NOP
FB80 1D             DEC	E
FB81 1D             DEC	E
FB82 1D             DEC	E
FB83 1D             DEC	E
FB84 1D             DEC	E
FB85 1D             DEC	E
FB86 00             NOP
FB87 00             NOP
FB88 00             NOP
FB89 00             NOP
FB8A 1D             DEC	E
FB8B 1D             DEC	E
FB8C 1D             DEC	E
FB8D 1D             DEC	E
FB8E 05             DEC	B
- 
FB8F 05             DEC	B
FB90 05             DEC	B
FB91 00             NOP
FB92 00             NOP
FB93 00             NOP
FB94 05             DEC	B
FB95 00             NOP
FB96 00             NOP
FB97 00             NOP
FB98 00             NOP
FB99 00             NOP
FB9A 00             NOP
FB9B 00             NOP
FB9C 00             NOP
FB9D 00             NOP
FB9E 00             NOP
FB9F 00             NOP
FBA0 00             NOP
FBA1 00             NOP
FBA2 00             NOP
- 
FBA3 00             NOP
FBA4 00             NOP
FBA5 00             NOP
FBA6 00             NOP
FBA7 00             NOP
FBA8 00             NOP
FBA9 00             NOP
FBAA 00             NOP
FBAB 00             NOP
FBAC 00             NOP
FBAD 00             NOP
FBAE 05             DEC	B
FBAF 05             DEC	B
FBB0 05             DEC	B
FBB1 00             NOP
FBB2 00             NOP
FBB3 00             NOP
FBB4 05             DEC	B
FBB5 00             NOP
FBB6 00             NOP
- 
FBB7 00             NOP
FBB8 00             NOP
FBB9 00             NOP
FBBA 00             NOP
FBBB 00             NOP
FBBC 00             NOP
FBBD 00             NOP
FBBE 00             NOP
FBBF 00             NOP
FBC0 00             NOP
FBC1 00             NOP
FBC2 00             NOP
FBC3 00             NOP
FBC4 00             NOP
FBC5 00             NOP
FBC6 00             NOP
FBC7 00             NOP
FBC8 00             NOP
FBC9 00             NOP
FBCA 00             NOP
- 
FBCB 00             NOP
FBCC 00             NOP
FBCD 00             NOP
FBCE 05             DEC	B
FBCF 05             DEC	B
FBD0 05             DEC	B
FBD1 00             NOP
FBD2 00             NOP
FBD3 00             NOP
FBD4 05             DEC	B
FBD5 05             DEC	B
FBD6 05             DEC	B
FBD7 05             DEC	B
FBD8 05             DEC	B
FBD9 05             DEC	B
FBDA 05             DEC	B
FBDB 05             DEC	B
FBDC 00             NOP
FBDD 00             NOP
FBDE 00             NOP
- 
FBDF 00             NOP
FBE0 00             NOP
FBE1 00             NOP
FBE2 00             NOP
FBE3 00             NOP
FBE4 00             NOP
FBE5 00             NOP
FBE6 00             NOP
FBE7 00             NOP
FBE8 00             NOP
FBE9 00             NOP
FBEA 00             NOP
FBEB 00             NOP
FBEC 00             NOP
FBED 00             NOP
FBEE 05             DEC	B
FBEF 05             DEC	B
FBF0 05             DEC	B
FBF1 00             NOP
FBF2 00             NOP
- 
FBF3 00             NOP
FBF4 00             NOP
FBF5 00             NOP
FBF6 00             NOP
FBF7 00             NOP
FBF8 00             NOP
FBF9 00             NOP
FBFA 00             NOP
FBFB 00             NOP
FBFC 00             NOP
FBFD 00             NOP
FBFE 00             NOP
FBFF 00             NOP
FC00 1D             DEC	E
FC01 1D             DEC	E
FC02 1D             DEC	E
FC03 1D             DEC	E
FC04 1D             DEC	E
FC05 1D             DEC	E
FC06 00             NOP
- 
FC07 00             NOP
FC08 00             NOP
FC09 00             NOP
FC0A 05             DEC	B
FC0B 05             DEC	B
FC0C 09             ADD	HL,BC
FC0D 09             ADD	HL,BC
FC0E 05             DEC	B
FC0F 05             DEC	B
FC10 05             DEC	B
FC11 00             NOP
FC12 00             NOP
FC13 00             NOP
FC14 00             NOP
FC15 00             NOP
FC16 00             NOP
FC17 00             NOP
FC18 00             NOP
FC19 00             NOP
FC1A 00             NOP
- 
FC1B 00             NOP
FC1C 00             NOP
FC1D 00             NOP
FC1E 00             NOP
FC1F 00             NOP
FC20 00             NOP
FC21 00             NOP
FC22 00             NOP
FC23 00             NOP
FC24 00             NOP
FC25 00             NOP
FC26 00             NOP
FC27 00             NOP
FC28 00             NOP
FC29 00             NOP
FC2A 00             NOP
FC2B 00             NOP
FC2C 09             ADD	HL,BC
FC2D 09             ADD	HL,BC
FC2E 05             DEC	B
- 
FC2F 05             DEC	B
FC30 05             DEC	B
FC31 00             NOP
FC32 00             NOP
FC33 00             NOP
FC34 00             NOP
FC35 00             NOP
FC36 00             NOP
FC37 00             NOP
FC38 00             NOP
FC39 00             NOP
FC3A 00             NOP
FC3B 00             NOP
FC3C 00             NOP
FC3D 00             NOP
FC3E 00             NOP
FC3F 00             NOP
FC40 00             NOP
FC41 00             NOP
FC42 00             NOP
- 
FC43 00             NOP
FC44 00             NOP
FC45 00             NOP
FC46 00             NOP
FC47 00             NOP
FC48 00             NOP
FC49 00             NOP
FC4A 00             NOP
FC4B 00             NOP
FC4C 09             ADD	HL,BC
FC4D 09             ADD	HL,BC
FC4E 05             DEC	B
FC4F 05             DEC	B
FC50 05             DEC	B
FC51 00             NOP
FC52 00             NOP
FC53 00             NOP
FC54 0D             DEC	C
FC55 0D             DEC	C
FC56 0D             DEC	C
- 
FC57 0D             DEC	C
FC58 0D             DEC	C
FC59 00             NOP
FC5A 00             NOP
FC5B 00             NOP
FC5C 00             NOP
FC5D 00             NOP
FC5E 00             NOP
FC5F 00             NOP
FC60 00             NOP
FC61 00             NOP
FC62 00             NOP
FC63 00             NOP
FC64 00             NOP
FC65 00             NOP
FC66 00             NOP
FC67 00             NOP
FC68 00             NOP
FC69 00             NOP
FC6A 00             NOP
- 
FC6B 00             NOP
FC6C 09             ADD	HL,BC
FC6D 09             ADD	HL,BC
FC6E 05             DEC	B
FC6F 05             DEC	B
FC70 05             DEC	B
FC71 00             NOP
FC72 00             NOP
FC73 00             NOP
FC74 0D             DEC	C
FC75 0D             DEC	C
FC76 0D             DEC	C
FC77 0D             DEC	C
FC78 0D             DEC	C
FC79 0D             DEC	C
FC7A 0D             DEC	C
FC7B 00             NOP
FC7C 00             NOP
FC7D 00             NOP
FC7E 00             NOP
- 
FC7F 00             NOP
FC80 00             NOP
FC81 00             NOP
FC82 00             NOP
FC83 1D             DEC	E
FC84 1D             DEC	E
FC85 1D             DEC	E
FC86 1D             DEC	E
FC87 1D             DEC	E
FC88 1D             DEC	E
FC89 1D             DEC	E
FC8A 1D             DEC	E
FC8B 1D             DEC	E
FC8C 1D             DEC	E
FC8D 1D             DEC	E
FC8E 05             DEC	B
FC8F 05             DEC	B
FC90 05             DEC	B
FC91 00             NOP
FC92 00             NOP
- 
FC93 00             NOP
FC94 0D             DEC	C
FC95 0D             DEC	C
FC96 0D             DEC	C
FC97 0D             DEC	C
FC98 0D             DEC	C
FC99 0D             DEC	C
FC9A 0D             DEC	C
FC9B 0D             DEC	C
FC9C 0D             DEC	C
FC9D 00             NOP
FC9E 00             NOP
FC9F 00             NOP
FCA0 00             NOP
FCA1 00             NOP
FCA2 00             NOP
FCA3 00             NOP
FCA4 00             NOP
FCA5 00             NOP
FCA6 00             NOP
- 
FCA7 00             NOP
FCA8 00             NOP
FCA9 00             NOP
FCAA 00             NOP
FCAB 00             NOP
FCAC 00             NOP
FCAD 00             NOP
FCAE 00             NOP
FCAF 00             NOP
FCB0 00             NOP
FCB1 00             NOP
FCB2 00             NOP
FCB3 00             NOP
FCB4 0D             DEC	C
FCB5 0D             DEC	C
FCB6 0D             DEC	C
FCB7 0D             DEC	C
FCB8 0D             DEC	C
FCB9 0D             DEC	C
FCBA 0D             DEC	C
- 
FCBB 0D             DEC	C
FCBC 0D             DEC	C
FCBD 0D             DEC	C
FCBE 0D             DEC	C
FCBF 00             NOP
FCC0 00             NOP
FCC1 00             NOP
FCC2 00             NOP
FCC3 00             NOP
FCC4 00             NOP
FCC5 00             NOP
FCC6 00             NOP
FCC7 00             NOP
FCC8 00             NOP
FCC9 00             NOP
FCCA 00             NOP
FCCB 00             NOP
FCCC 00             NOP
FCCD 00             NOP
FCCE 00             NOP
- 
FCCF 00             NOP
FCD0 00             NOP
FCD1 00             NOP
FCD2 00             NOP
FCD3 00             NOP
FCD4 0D             DEC	C
FCD5 0D             DEC	C
FCD6 0D             DEC	C
FCD7 0D             DEC	C
FCD8 0D             DEC	C
FCD9 0D             DEC	C
FCDA 0D             DEC	C
FCDB 0D             DEC	C
FCDC 0D             DEC	C
FCDD 0D             DEC	C
FCDE 0D             DEC	C
FCDF 0D             DEC	C
FCE0 0D             DEC	C
FCE1 00             NOP
FCE2 00             NOP
- 
FCE3 00             NOP
FCE4 00             NOP
FCE5 00             NOP
FCE6 00             NOP
FCE7 00             NOP
FCE8 00             NOP
FCE9 00             NOP
FCEA 00             NOP
FCEB 00             NOP
FCEC 00             NOP
FCED 00             NOP
FCEE 00             NOP
FCEF 00             NOP
FCF0 00             NOP
FCF1 00             NOP
FCF2 00             NOP
FCF3 00             NOP
FCF4 0D             DEC	C
FCF5 0D             DEC	C
FCF6 0D             DEC	C
- 
FCF7 0D             DEC	C
FCF8 0D             DEC	C
FCF9 0D             DEC	C
FCFA 0D             DEC	C
FCFB 0D             DEC	C
FCFC 0D             DEC	C
FCFD 0D             DEC	C
FCFE 0D             DEC	C
FCFF 0D             DEC	C
FD00 0D             DEC	C
FD01 0D             DEC	C
FD02 0D             DEC	C
FD03 0D             DEC	C
FD04 0D             DEC	C
FD05 0D             DEC	C
FD06 0D             DEC	C
FD07 0D             DEC	C
FD08 0D             DEC	C
FD09 0D             DEC	C
FD0A 0D             DEC	C
- 
FD0B 0D             DEC	C
FD0C 0D             DEC	C
FD0D 0D             DEC	C
FD0E 0D             DEC	C
FD0F 0D             DEC	C
FD10 0D             DEC	C
FD11 0D             DEC	C
FD12 0D             DEC	C
FD13 0D             DEC	C
FD14 0D             DEC	C
FD15 0D             DEC	C
FD16 0D             DEC	C
FD17 0D             DEC	C
FD18 0D             DEC	C
FD19 0D             DEC	C
FD1A 0D             DEC	C
FD1B 0D             DEC	C
FD1C 0D             DEC	C
FD1D 0D             DEC	C
FD1E 0D             DEC	C
- 
FD1F 0D             DEC	C
FD20 0D             DEC	C
FD21 0D             DEC	C
FD22 0D             DEC	C
FD23 0D             DEC	C
FD24 0D             DEC	C
FD25 0D             DEC	C
FD26 0D             DEC	C
FD27 0D             DEC	C
FD28 0D             DEC	C
FD29 0D             DEC	C
FD2A 0D             DEC	C
FD2B 0D             DEC	C
FD2C 0D             DEC	C
FD2D 0D             DEC	C
FD2E 0D             DEC	C
FD2F 0D             DEC	C
FD30 0D             DEC	C
FD31 0D             DEC	C
FD32 0D             DEC	C
- 
FD33 0D             DEC	C
FD34 00             NOP
FD35 00             NOP
FD36 00             NOP
FD37 00             NOP
FD38 00             NOP
FD39 00             NOP
FD3A 00             NOP
FD3B 00             NOP
FD3C 00             NOP
FD3D 00             NOP
FD3E 00             NOP
FD3F 00             NOP
FD40 00             NOP
FD41 00             NOP
FD42 00             NOP
FD43 00             NOP
FD44 3C             INC	A
FD45 7C             LD	A,H
FD46 7E             LD	A,(HL)
- 
FD47 3C             INC	A
FD48 7C             LD	A,H
FD49 7C             LD	A,H
FD4A 42             LD	B,D
FD4B 42             LD	B,D
FD4C 00             NOP
FD4D 3C             INC	A
FD4E 3C             INC	A
FD4F 42             LD	B,D
FD50 7E             LD	A,(HL)
FD51 3C             INC	A
FD52 00             NOP
FD53 00             NOP
FD54 40             LD	B,B
FD55 42             LD	B,D
FD56 40             LD	B,B
FD57 42             LD	B,D
FD58 10 42          DJNZ	FD9C
FD5A 42             LD	B,D
FD5B 66             LD	H,(HL)
- 
FD5C 00             NOP
FD5D 42             LD	B,D
FD5E 42             LD	B,D
FD5F 66             LD	H,(HL)
FD60 40             LD	B,B
FD61 40             LD	B,B
FD62 00             NOP
FD63 00             NOP
FD64 3C             INC	A
FD65 42             LD	B,D
FD66 78             LD	A,B
FD67 40             LD	B,B
FD68 10 42          DJNZ	FDAC
FD6A 42             LD	B,D
FD6B 5A             LD	E,D
FD6C 00             NOP
FD6D 40             LD	B,B
FD6E 42             LD	B,D
FD6F 5A             LD	E,D
FD70 78             LD	A,B
- 
FD71 3C             INC	A
FD72 00             NOP
FD73 00             NOP
FD74 02             LD	(BC),A
FD75 7C             LD	A,H
FD76 40             LD	B,B
FD77 40             LD	B,B
FD78 10 7C          DJNZ	FDF6
FD7A 42             LD	B,D
FD7B 42             LD	B,D
FD7C 00             NOP
FD7D 4E             LD	C,(HL)
FD7E 7E             LD	A,(HL)
FD7F 42             LD	B,D
FD80 40             LD	B,B
FD81 02             LD	(BC),A
FD82 00             NOP
FD83 00             NOP
FD84 02             LD	(BC),A
FD85 40             LD	B,B
- 
FD86 40             LD	B,B
FD87 42             LD	B,D
FD88 10 42          DJNZ	FDCC
FD8A 42             LD	B,D
FD8B 42             LD	B,D
FD8C 00             NOP
FD8D 42             LD	B,D
FD8E 42             LD	B,D
FD8F 42             LD	B,D
FD90 40             LD	B,B
FD91 02             LD	(BC),A
FD92 00             NOP
FD93 00             NOP
FD94 7C             LD	A,H
FD95 40             LD	B,B
FD96 7E             LD	A,(HL)
FD97 3C             INC	A
FD98 10 42          DJNZ	FDDC
FD9A 3C             INC	A
FD9B 42             LD	B,D
- 
FD9C 00             NOP
FD9D 3E 42          LD	A,42
FD9F 42             LD	B,D
FDA0 7E             LD	A,(HL)
FDA1 7C             LD	A,H
FDA2 00             NOP
FDA3 00             NOP
FDA4 00             NOP
FDA5 00             NOP
FDA6 00             NOP
FDA7 00             NOP
FDA8 00             NOP
FDA9 00             NOP
FDAA 00             NOP
FDAB 00             NOP
FDAC 00             NOP
FDAD 00             NOP
FDAE 00             NOP
FDAF 00             NOP
FDB0 00             NOP
- 
FDB1 00             NOP
FDB2 00             NOP
FDB3 00             NOP
FDB4 F5             PUSH	AF
FDB5 D5             PUSH	DE
FDB6 C5             PUSH	BC
FDB7 E5             PUSH	HL
FDB8 DD E5          PUSH	IX
FDBA 21 78 5C       LD	HL,5C78 ; LD	HL,FRAMES1
FDBD 34             INC	(HL)
FDBE CD 85 F8       CALL	F885
FDC1 DD E1          POP	IX
FDC3 E1             POP	HL
FDC4 C1             POP	BC
FDC5 D1             POP	DE
FDC6 F1             POP	AF
FDC7 FB             EI
FDC8 ED 4D          RETI
FDCA C9             RET
FDCB F5             PUSH	AF
- 
FDCC 3A 78 5C       LD	A,(5C78) ; LD	A,(FRAMES1)
FDCF 3C             INC	A
FDD0 32 78 5C       LD	(5C78),A ; LD	(FRAMES1),A
FDD3 F1             POP	AF
FDD4 FB             EI
FDD5 ED 4D          RETI
FDD7 C9             RET
FDD8 00             NOP
FDD9 00             NOP
FDDA 00             NOP
FDDB 00             NOP
FDDC 00             NOP
FDDD 00             NOP
FDDE 00             NOP
FDDF 00             NOP
FDE0 00             NOP
FDE1 00             NOP
FDE2 00             NOP
FDE3 00             NOP
FDE4 00             NOP
- 
FDE5 00             NOP
FDE6 00             NOP
FDE7 00             NOP
FDE8 00             NOP
FDE9 00             NOP
FDEA 00             NOP
FDEB 00             NOP
FDEC 00             NOP
FDED 00             NOP
FDEE 00             NOP
FDEF 00             NOP
FDF0 00             NOP
FDF1 00             NOP
FDF2 00             NOP
FDF3 00             NOP
FDF4 00             NOP
FDF5 00             NOP
FDF6 00             NOP
FDF7 00             NOP
FDF8 00             NOP
- 
FDF9 00             NOP
FDFA 00             NOP
FDFB 00             NOP
FDFC 00             NOP
FDFD C3 B4 FD       JP	FDB4
FE00 FD             ???
FE01 FD             ???
FE02 FD             ???
FE03 FD             ???
FE04 FD             ???
FE05 FD             ???
FE06 FD             ???
FE07 FD             ???
FE08 FD             ???
FE09 FD             ???
FE0A FD             ???
FE0B FD             ???
FE0C FD             ???
FE0D FD             ???
FE0E FD             ???
- 
FE0F FD             ???
FE10 FD             ???
FE11 FD             ???
FE12 FD             ???
FE13 FD             ???
FE14 FD             ???
FE15 FD             ???
FE16 FD             ???
FE17 FD             ???
FE18 FD             ???
FE19 FD             ???
FE1A FD             ???
FE1B FD             ???
FE1C FD             ???
FE1D FD             ???
FE1E FD             ???
FE1F FD             ???
FE20 FD             ???
FE21 FD             ???
FE22 FD             ???
- 
FE23 FD             ???
FE24 FD             ???
FE25 FD             ???
FE26 FD             ???
FE27 FD             ???
FE28 FD             ???
FE29 FD             ???
FE2A FD             ???
FE2B FD             ???
FE2C FD             ???
FE2D FD             ???
FE2E FD             ???
FE2F FD             ???
FE30 FD             ???
FE31 FD             ???
FE32 FD             ???
FE33 FD             ???
FE34 FD             ???
FE35 FD             ???
FE36 FD             ???
- 
FE37 FD             ???
FE38 FD             ???
FE39 FD             ???
FE3A FD             ???
FE3B FD             ???
FE3C FD             ???
FE3D FD             ???
FE3E FD             ???
FE3F FD             ???
FE40 FD             ???
FE41 FD             ???
FE42 FD             ???
FE43 FD             ???
FE44 FD             ???
FE45 FD             ???
FE46 FD             ???
FE47 FD             ???
FE48 FD             ???
FE49 FD             ???
FE4A FD             ???
- 
FE4B FD             ???
FE4C FD             ???
FE4D FD             ???
FE4E FD             ???
FE4F FD             ???
FE50 FD             ???
FE51 FD             ???
FE52 FD             ???
FE53 FD             ???
FE54 FD             ???
FE55 FD             ???
FE56 FD             ???
FE57 FD             ???
FE58 FD             ???
FE59 FD             ???
FE5A FD             ???
FE5B FD             ???
FE5C FD             ???
FE5D FD             ???
FE5E FD             ???
- 
FE5F FD             ???
FE60 FD             ???
FE61 FD             ???
FE62 FD             ???
FE63 FD             ???
FE64 FD             ???
FE65 FD             ???
FE66 FD             ???
FE67 FD             ???
FE68 FD             ???
FE69 FD             ???
FE6A FD             ???
FE6B FD             ???
FE6C FD             ???
FE6D FD             ???
FE6E FD             ???
FE6F FD             ???
FE70 FD             ???
FE71 FD             ???
FE72 FD             ???
- 
FE73 FD             ???
FE74 FD             ???
FE75 FD             ???
FE76 FD             ???
FE77 FD             ???
FE78 FD             ???
FE79 FD             ???
FE7A FD             ???
FE7B FD             ???
FE7C FD             ???
FE7D FD             ???
FE7E FD             ???
FE7F FD             ???
FE80 FD             ???
FE81 FD             ???
FE82 FD             ???
FE83 FD             ???
FE84 FD             ???
FE85 FD             ???
FE86 FD             ???
- 
FE87 FD             ???
FE88 FD             ???
FE89 FD             ???
FE8A FD             ???
FE8B FD             ???
FE8C FD             ???
FE8D FD             ???
FE8E FD             ???
FE8F FD             ???
FE90 FD             ???
FE91 FD             ???
FE92 FD             ???
FE93 FD             ???
FE94 FD             ???
FE95 FD             ???
FE96 FD             ???
FE97 FD             ???
FE98 FD             ???
FE99 FD             ???
FE9A FD             ???
- 
FE9B FD             ???
FE9C FD             ???
FE9D FD             ???
FE9E FD             ???
FE9F FD             ???
FEA0 FD             ???
FEA1 FD             ???
FEA2 FD             ???
FEA3 FD             ???
FEA4 FD             ???
FEA5 FD             ???
FEA6 FD             ???
FEA7 FD             ???
FEA8 FD             ???
FEA9 FD             ???
FEAA FD             ???
FEAB FD             ???
FEAC FD             ???
FEAD FD             ???
FEAE FD             ???
- 
FEAF FD             ???
FEB0 FD             ???
FEB1 FD             ???
FEB2 FD             ???
FEB3 FD             ???
FEB4 FD             ???
FEB5 FD             ???
FEB6 FD             ???
FEB7 FD             ???
FEB8 FD             ???
FEB9 FD             ???
FEBA FD             ???
FEBB FD             ???
FEBC FD             ???
FEBD FD             ???
FEBE FD             ???
FEBF FD             ???
FEC0 FD             ???
FEC1 FD             ???
FEC2 FD             ???
- 
FEC3 FD             ???
FEC4 FD             ???
FEC5 FD             ???
FEC6 FD             ???
FEC7 FD             ???
FEC8 FD             ???
FEC9 FD             ???
FECA FD             ???
FECB FD             ???
FECC FD             ???
FECD FD             ???
FECE FD             ???
FECF FD             ???
FED0 FD             ???
FED1 FD             ???
FED2 FD             ???
FED3 FD             ???
FED4 FD             ???
FED5 FD             ???
FED6 FD             ???
- 
FED7 FD             ???
FED8 FD             ???
FED9 FD             ???
FEDA FD             ???
FEDB FD             ???
FEDC FD             ???
FEDD FD             ???
FEDE FD             ???
FEDF FD             ???
FEE0 FD             ???
FEE1 FD             ???
FEE2 FD             ???
FEE3 FD             ???
FEE4 FD             ???
FEE5 FD             ???
FEE6 FD             ???
FEE7 FD             ???
FEE8 FD             ???
FEE9 FD             ???
FEEA FD             ???
- 
FEEB FD             ???
FEEC FD             ???
FEED FD             ???
FEEE FD             ???
FEEF FD             ???
FEF0 FD             ???
FEF1 FD             ???
FEF2 FD             ???
FEF3 FD             ???
FEF4 FD             ???
FEF5 FD             ???
FEF6 FD             ???
FEF7 FD             ???
FEF8 FD             ???
FEF9 FD             ???
FEFA FD             ???
FEFB FD             ???
FEFC FD             ???
FEFD FD             ???
FEFE FD             ???
- 
FEFF FD             ???
FF00 FD             ???
FF01 FD 21 30 30    LD	IY,3030
FF05 22 96 FF       LD	(FF96),HL
FF08 AF             XOR	A
FF09 32 A9 FF       LD	(FFA9),A
FF0C 06 58          LD	B,58
FF0E C5             PUSH	BC
FF0F 78             LD	A,B
FF10 3D             DEC	A
FF11 4F             LD	C,A
FF12 CD B9 8E       CALL	8EB9
FF15 A6             AND	(HL)
FF16 C4 D8 FF       CALL	NZ,FFD8
FF19 C1             POP	BC
FF1A 10 F2          DJNZ	FF0E
FF1C 3A A9 FF       LD	A,(FFA9)
FF1F 57             LD	D,A
FF20 1E 00          LD	E,00
FF22 2A A7 FF       LD	HL,(FFA7)
- 
FF25 CD AA FF       CALL	FFAA
FF28 E5             PUSH	HL
FF29 3E 5D          LD	A,5D
FF2B 21 02 8E       LD	HL,8E02
FF2E 96             SUB	(HL)
FF2F 57             LD	D,A
FF30 1E 00          LD	E,00
FF32 2A A5 FF       LD	HL,(FFA5)
FF35 CD AA FF       CALL	FFAA
FF38 D1             POP	DE
FF39 19             ADD	HL,DE
FF3A CB 3C          SRL	H
FF3C 44             LD	B,H
FF3D 21 30 30       LD	HL,3030
FF40 22 A0 FF       LD	(FFA0),HL
FF43 28 08          JR	Z,FF4D
FF45 21 A1 FF       LD	HL,FFA1
FF48 CD DF FF       CALL	FFDF
FF4B 10 F8          DJNZ	FF45
FF4D 21 53 FF       LD	HL,FF53
- 
FF50 C3 0D AC       JP	AC0D
FF53 62             LD	H,D
FF54 0B             DEC	BC
FF55 03             INC	BC
FF56 61             LD	H,C
FF57 42             LD	B,D
FF58 52             LD	D,D
FF59 4F             LD	C,A
FF5A 4F             LD	C,A
FF5B 4D             LD	C,L
FF5C 53             LD	D,E
FF5D 40             LD	B,B
FF5E 56             LD	D,(HL)
FF5F 49             LD	C,C
FF60 53             LD	D,E
FF61 49             LD	C,C
FF62 54             LD	D,H
FF63 45             LD	B,L
FF64 44             LD	B,H
FF65 40             LD	B,B
- 
FF66 62             LD	H,D
FF67 0D             DEC	C
FF68 03             INC	BC
FF69 4F             LD	C,A
FF6A 42             LD	B,D
FF6B 4A             LD	C,D
FF6C 45             LD	B,L
FF6D 43             LD	B,E
FF6E 54             LD	D,H
FF6F 53             LD	D,E
FF70 40             LD	B,B
FF71 43             LD	B,E
FF72 4F             LD	C,A
FF73 4C             LD	C,H
FF74 4C             LD	C,H
FF75 45             LD	B,L
FF76 43             LD	B,E
FF77 54             LD	D,H
FF78 45             LD	B,L
FF79 44             LD	B,H
- 
FF7A 62             LD	H,D
FF7B 0F             RRCA
FF7C 03             INC	BC
FF7D 50             LD	D,B
FF7E 45             LD	B,L
FF7F 52             LD	D,D
FF80 43             LD	B,E
FF81 45             LD	B,L
FF82 4E             LD	C,(HL)
FF83 54             LD	D,H
FF84 41             LD	B,C
FF85 47             LD	B,A
FF86 45             LD	B,L
FF87 40             LD	B,B
FF88 43             LD	B,E
FF89 4F             LD	C,A
FF8A 4D             LD	C,L
FF8B 50             LD	D,B
FF8C 4C             LD	C,H
FF8D 45             LD	B,L
- 
FF8E 54             LD	D,H
FF8F 45             LD	B,L
FF90 44             LD	B,H
FF91 61             LD	H,C
FF92 44             LD	B,H
FF93 62             LD	H,D
FF94 0B             DEC	BC
FF95 1B             DEC	DE
FF96 30 31          JR	NC,FFC9
FF98 62             LD	H,D
FF99 0D             DEC	C
FF9A 1B             DEC	DE
FF9B 30 30          JR	NC,FFCD
FF9D 62             LD	H,D
FF9E 0F             RRCA
FF9F 1B             DEC	DE
FFA0 30 30          JR	NC,FFD2
FFA2 61             LD	H,C
FFA3 47             LD	B,A
FFA4 63             LD	H,E
- 
FFA5 12             LD	(DE),A
FFA6 01 22 01       LD	BC,0122
FFA9 01 7D AB       LD	BC,AB7D
FFAC E6 01          AND	01
FFAE F5             PUSH	AF
FFAF CB 85          RES	0,L
FFB1 7B             LD	A,E
FFB2 E6 FE          AND	FE
FFB4 5A             LD	E,D
FFB5 44             LD	B,H
FFB6 4D             LD	C,L
FFB7 21 00 00       LD	HL,0000 ; LD	HL,START
FFBA 54             LD	D,H
FFBB 08             EX	AF,AF'
FFBC 3E 10          LD	A,10
FFBE 08             EX	AF,AF'
FFBF CB 18          RR	B
FFC1 CB 19          RR	C
FFC3 30 02          JR	NC,FFC7
FFC5 19             ADD	HL,DE
- 
FFC6 A7             AND	A
FFC7 17             RLA
FFC8 CB 13          RL	E
FFCA CB 12          RL	D
FFCC 08             EX	AF,AF'
FFCD 3D             DEC	A
FFCE C2 BE FF       JP	NZ,FFBE
FFD1 7D             LD	A,L
FFD2 E6 FE          AND	FE
FFD4 C1             POP	BC
FFD5 B0             OR	B
FFD6 6F             LD	L,A
FFD7 C9             RET
FFD8 21 A9 FF       LD	HL,FFA9
FFDB 34             INC	(HL)
FFDC 21 97 FF       LD	HL,FF97
FFDF 34             INC	(HL)
FFE0 7E             LD	A,(HL)
FFE1 FE 3A          CP	3A
FFE3 D8             RET	C
- 
FFE4 36 30          LD	(HL),30
FFE6 2B             DEC	HL
FFE7 34             INC	(HL)
FFE8 C9             RET
FFE9 5A             LD	E,D
FFEA 75             LD	(HL),L
FFEB 63             LD	H,E
FFEC 63             LD	H,E
FFED 68             LD	L,B
FFEE 69             LD	L,C
FFEF 6E             LD	L,(HL)
FFF0 69             LD	L,C
FFF1 3F             CCF
FFF2 10 10          DJNZ	1000
FFF4 10 10          DJNZ	1000
FFF6 10 00          DJNZ	FFF8
FFF8 00             NOP
FFF9 42             LD	B,D
FFFA 42             LD	B,D
FFFB 42             LD	B,D
- 
FFFC 42             LD	B,D
FFFD 42             LD	B,D
FFFE 3C             INC	A
FFFF                NOP
FFFF                NOP
FFFF                NOP
FFFF                NOP
FFFF                NOP
FFFF                NOP
FFFF                NOP
FFFF                NOP
FFFF                NOP
FFFF                NOP
FFFF                NOP
FFFF                NOP
FFFF                NOP
FFFF                NOP
FFFF                NOP
FFFF                NOP
FFFF                NOP
- 
FFFF                NOP
FFFF                NOP
FFFF                NOP
FFFF                NOP
FFFF                NOP
FFFF                NOP
FFFF                NOP
FFFF                NOP
FFFF                NOP
FFFF                NOP
FFFF                NOP
FFFF                NOP
FFFF                NOP
FFFF                NOP
FFFF                NOP
FFFF                NOP
FFFF                NOP
FFFF                NOP
FFFF                NOP
FFFF                NOP
- 
FFFF                NOP
FFFF                NOP
FFFF                NOP
FFFF                NOP
FFFF                NOP
FFFF                NOP
FFFF                NOP
FFFF                NOP
FFFF                NOP
FFFF                NOP
FFFF                NOP
FFFF                NOP
FFFF                NOP
FFFF                NOP
FFFF                NOP
FFFF                NOP
FFFF                NOP
FFFF                NOP
FFFF                NOP
FFFF                NOP
- 
FFFF                NOP
FFFF                NOP
FFFF                NOP
FFFF                NOP
FFFF                NOP
FFFF                NOP
FFFF                NOP
FFFF                NOP
FFFF                NOP
FFFF                NOP
FFFF                NOP
FFFF                NOP
FFFF                NOP
FFFF                NOP
FFFF                NOP
FFFF                NOP
FFFF                NOP
FFFF                NOP
FFFF                NOP
FFFF                NOP
- 
FFFF                NOP
FFFF                NOP
FFFF                NOP
FFFF                NOP
FFFF                NOP
FFFF                NOP
FFFF                NOP
FFFF                NOP
FFFF                NOP
FFFF                NOP
FFFF                NOP
FFFF                NOP
FFFF                NOP
FFFF                NOP
FFFF                NOP
FFFF                NOP
FFFF                NOP
FFFF                NOP
FFFF                NOP
FFFF                NOP
- 
FFFF                NOP
FFFF                NOP
FFFF                NOP
FFFF                NOP
FFFF                NOP
FFFF                NOP
FFFF                NOP
FFFF                NOP
FFFF                NOP
FFFF                NOP
FFFF                NOP
FFFF                NOP
FFFF                NOP
FFFF                NOP
FFFF                NOP
FFFF                NOP
FFFF                NOP
FFFF                NOP
FFFF                NOP
FFFF                NOP
- 
FFFF                NOP
FFFF                NOP
FFFF                NOP
FFFF                NOP
FFFF                NOP
FFFF                NOP
FFFF                NOP
FFFF                NOP
FFFF                NOP
FFFF                NOP
FFFF                NOP
FFFF                NOP
FFFF                NOP
FFFF                NOP
FFFF                NOP
FFFF                NOP
FFFF                NOP
FFFF                NOP
FFFF                NOP
FFFF                NOP
- 
FFFF                NOP
FFFF                NOP
FFFF                NOP
FFFF                NOP
FFFF                NOP
FFFF                NOP
FFFF                NOP
FFFF                NOP
FFFF                NOP
FFFF                NOP
FFFF                NOP
FFFF                NOP
FFFF                NOP
FFFF                NOP
FFFF                NOP
FFFF                NOP
FFFF                NOP
FFFF                NOP
FFFF                NOP
FFFF                NOP
- 
FFFF                NOP
FFFF                NOP
FFFF                NOP
FFFF                NOP
FFFF                NOP
FFFF                NOP
FFFF                NOP
FFFF                NOP
FFFF                NOP
FFFF                NOP
FFFF                NOP
FFFF                NOP
FFFF                NOP
FFFF                NOP
FFFF                NOP
FFFF                NOP
FFFF                NOP
FFFF                NOP
FFFF                NOP
FFFF                NOP
- 
FFFF                NOP
FFFF                NOP
FFFF                NOP
FFFF                NOP
FFFF                NOP
FFFF                NOP
FFFF                NOP
FFFF                NOP
FFFF                NOP
FFFF                NOP
FFFF                NOP
FFFF                NOP
FFFF                NOP
FFFF                NOP
FFFF                NOP
FFFF                NOP
FFFF                NOP
FFFF                NOP
FFFF                NOP
FFFF                NOP
- 
FFFF                NOP
FFFF                NOP
FFFF                NOP
FFFF                NOP
FFFF                NOP
FFFF                NOP
FFFF                NOP
FFFF                NOP
FFFF                NOP
FFFF                NOP
FFFF                NOP
FFFF                NOP
FFFF                NOP
FFFF                NOP
FFFF                NOP
FFFF                NOP
FFFF                NOP
FFFF                NOP
FFFF                NOP
FFFF                NOP
- 
FFFF                NOP
FFFF                NOP
FFFF                NOP
FFFF                NOP
FFFF                NOP
FFFF                NOP
FFFF                NOP
FFFF                NOP
FFFF                NOP
FFFF                NOP
FFFF                NOP
FFFF                NOP
FFFF                NOP
FFFF                NOP
FFFF                NOP
FFFF                NOP
FFFF                NOP
FFFF                NOP
FFFF                NOP
FFFF                NOP
- 
FFFF                NOP
FFFF                NOP
FFFF                NOP
FFFF                NOP
FFFF                NOP
FFFF                NOP
FFFF                NOP
FFFF                NOP
FFFF                NOP
FFFF                NOP
FFFF                NOP
FFFF                NOP
FFFF                NOP
FFFF                NOP
FFFF                NOP
FFFF                NOP
FFFF                NOP
FFFF                NOP
FFFF                NOP
FFFF                NOP
- 
FFFF                NOP
FFFF                NOP
FFFF                NOP
FFFF                NOP
FFFF                NOP
FFFF                NOP
FFFF                NOP
FFFF                NOP
FFFF                NOP
FFFF                NOP
FFFF                NOP
FFFF                NOP
FFFF                NOP
FFFF                NOP
FFFF                NOP
FFFF                NOP
FFFF                NOP
FFFF                NOP
FFFF                NOP
FFFF                NOP
- 
FFFF                NOP
FFFF                NOP
FFFF                NOP
FFFF                NOP
FFFF                NOP
FFFF                NOP
FFFF                NOP
FFFF                NOP
FFFF                NOP
FFFF                NOP
FFFF                NOP
FFFF                NOP
FFFF                NOP
FFFF                NOP
FFFF                NOP
FFFF                NOP
FFFF                NOP
FFFF                NOP
FFFF                NOP
FFFF                NOP
- 
FFFF                NOP
FFFF                NOP
FFFF                NOP
FFFF                NOP
FFFF                NOP
FFFF                NOP
FFFF                NOP
FFFF                NOP
FFFF                NOP
FFFF                NOP
FFFF                NOP
FFFF                NOP
FFFF                NOP
FFFF                NOP
FFFF                NOP
FFFF                NOP
FFFF                NOP
FFFF                NOP
FFFF                NOP
FFFF                NOP
- 
FFFF                NOP
FFFF                NOP
FFFF                NOP
FFFF                NOP
FFFF                NOP
FFFF                NOP
FFFF                NOP
FFFF                NOP
FFFF                NOP
FFFF                NOP
FFFF                NOP
FFFF                NOP
FFFF                NOP
FFFF                NOP
FFFF                NOP
FFFF                NOP
FFFF                NOP
FFFF                NOP
FFFF                NOP
FFFF                NOP
- 
FFFF                NOP
FFFF                NOP
FFFF                NOP
FFFF                NOP
FFFF                NOP
FFFF                NOP
FFFF                NOP
FFFF                NOP
FFFF                NOP
FFFF                NOP
FFFF                NOP
FFFF                NOP
FFFF                NOP
FFFF                NOP
FFFF                NOP
FFFF                NOP
FFFF                NOP
FFFF                NOP
FFFF                NOP
FFFF                NOP
- 
FFFF                NOP
FFFF                NOP
FFFF                NOP
FFFF                NOP
FFFF                NOP
FFFF                NOP
FFFF                NOP
FFFF                NOP
FFFF                NOP
FFFF                NOP
FFFF                NOP
FFFF                NOP
FFFF                NOP
FFFF                NOP
FFFF                NOP
FFFF                NOP
FFFF                NOP
FFFF                NOP
FFFF                NOP
FFFF                NOP
- 
FFFF                NOP
FFFF                NOP
FFFF                NOP
FFFF                NOP
FFFF                NOP
FFFF                NOP
FFFF                NOP
FFFF                NOP
FFFF                NOP
FFFF                NOP
FFFF                NOP
FFFF                NOP
FFFF                NOP
FFFF                NOP
FFFF                NOP
FFFF                NOP
FFFF                NOP
FFFF                NOP
FFFF                NOP
FFFF                NOP
- 
FFFF                NOP
FFFF                NOP
FFFF                NOP
FFFF                NOP
FFFF                NOP
FFFF                NOP
FFFF                NOP
FFFF                NOP
FFFF                NOP
FFFF                NOP
FFFF                NOP
FFFF                NOP
FFFF                NOP
FFFF                NOP
FFFF                NOP
FFFF                NOP
FFFF                NOP
FFFF                NOP
FFFF                NOP
FFFF                NOP
- 
FFFF                NOP
FFFF                NOP
FFFF                NOP
FFFF                NOP
FFFF                NOP
FFFF                NOP
FFFF                NOP
FFFF                NOP
FFFF                NOP
FFFF                NOP
FFFF                NOP
FFFF                NOP
FFFF                NOP
FFFF                NOP
FFFF                NOP
FFFF                NOP
FFFF                NOP
FFFF                NOP
FFFF                NOP
FFFF                NOP
- q
Quitting. Disabling trace.
[1m[7m%[27m[1m[0m                                                                                ]7;file://Ruis-MacBook-Pro-2.local/Users/ruiribeiro/Desktop/z80/debugz80[0m[27m[24m[Jruiribeiro@Ruis-MacBook-Pro-2 debugz80 % [K[?2004heexit[?2004l

Script done on Sat Nov  9 00:47:35 2019
